
out.elf:     file format elf32-tradlittlemips


Disassembly of section .reset:

bd007000 <_reset>:
bd007000:	0f401c02 	jal	bd007008 <_startup>
bd007004:	00000000 	nop

bd007008 <_startup>:
bd007008:	401a6000 	mfc0	k0,c0_status
bd00700c:	7f5a04c0 	ext	k0,k0,0x13,0x1
bd007010:	13400005 	beqz	k0,bd007028 <_no_nmi>
bd007014:	00000000 	nop
bd007018:	3c1a9d01 	lui	k0,0x9d01
bd00701c:	275ac4a8 	addiu	k0,k0,-15192
bd007020:	03400008 	jr	k0
bd007024:	00000000 	nop

bd007028 <_no_nmi>:
bd007028:	3c1da001 	lui	sp,0xa001
bd00702c:	27bdfff8 	addiu	sp,sp,-8
bd007030:	3c1ca000 	lui	gp,0xa000
bd007034:	279c7ff0 	addiu	gp,gp,32752
bd007038:	3c089d01 	lui	t0,0x9d01
bd00703c:	2508c51c 	addiu	t0,t0,-15076
bd007040:	0100f809 	jalr	t0
bd007044:	00000000 	nop
bd007048:	3c089d01 	lui	t0,0x9d01
bd00704c:	2508b580 	addiu	t0,t0,-19072
bd007050:	0100f809 	jalr	t0
bd007054:	00000000 	nop
bd007058:	3c090000 	lui	t1,0x0
bd00705c:	25290000 	addiu	t1,t1,0
bd007060:	11200010 	beqz	t1,bd0070a4 <_ramfunc_done>
bd007064:	00000000 	nop
bd007068:	3c090001 	lui	t1,0x1
bd00706c:	25290000 	addiu	t1,t1,0
bd007070:	3c0abf88 	lui	t2,0xbf88
bd007074:	254a2010 	addiu	t2,t2,8208
bd007078:	ad490000 	sw	t1,0(t2)
bd00707c:	3c090001 	lui	t1,0x1
bd007080:	25290000 	addiu	t1,t1,0
bd007084:	3c0abf88 	lui	t2,0xbf88
bd007088:	254a2020 	addiu	t2,t2,8224
bd00708c:	ad490000 	sw	t1,0(t2)
bd007090:	3c090001 	lui	t1,0x1
bd007094:	25290000 	addiu	t1,t1,0
bd007098:	3c0abf88 	lui	t2,0xbf88
bd00709c:	254a2030 	addiu	t2,t2,8240
bd0070a0:	ad490000 	sw	t1,0(t2)

bd0070a4 <_ramfunc_done>:
bd0070a4:	40804800 	mtc0	zero,c0_count
bd0070a8:	240affff 	li	t2,-1
bd0070ac:	408a5800 	mtc0	t2,c0_compare
bd0070b0:	3c080040 	lui	t0,0x40
bd0070b4:	400a6000 	mfc0	t2,c0_status
bd0070b8:	010a5025 	or	t2,t0,t2
bd0070bc:	408a6000 	mtc0	t2,c0_status
bd0070c0:	3c099d00 	lui	t1,0x9d00
bd0070c4:	25296000 	addiu	t1,t1,24576
bd0070c8:	000000c0 	ehb
bd0070cc:	40897801 	mtc0	t1,c0_ebase
bd0070d0:	3c090000 	lui	t1,0x0
bd0070d4:	25290001 	addiu	t1,t1,1
bd0070d8:	240a0000 	li	t2,0
bd0070dc:	7d2a4944 	ins	t2,t1,0x5,0x5
bd0070e0:	408a6001 	mtc0	t2,c0_intctl
bd0070e4:	3c090080 	lui	t1,0x80
bd0070e8:	40896800 	mtc0	t1,c0_cause
bd0070ec:	40088000 	mfc0	t0,c0_config
bd0070f0:	7d090580 	ext	t1,t0,0x16,0x1
bd0070f4:	00094c40 	sll	t1,t1,0x11
bd0070f8:	40086000 	mfc0	t0,c0_status
bd0070fc:	3c010058 	lui	at,0x58
bd007100:	01014024 	and	t0,t0,at
bd007104:	01284025 	or	t0,t1,t0
bd007108:	40886000 	mtc0	t0,c0_status
bd00710c:	000000c0 	ehb
bd007110:	3c089d01 	lui	t0,0x9d01
bd007114:	2508c524 	addiu	t0,t0,-15068
bd007118:	0100f809 	jalr	t0
bd00711c:	00000000 	nop
bd007120:	40086000 	mfc0	t0,c0_status
bd007124:	3c01ffbf 	lui	at,0xffbf
bd007128:	3421ffff 	ori	at,at,0xffff
bd00712c:	01014024 	and	t0,t0,at
bd007130:	40886000 	mtc0	t0,c0_status
bd007134:	30840000 	andi	a0,a0,0x0
bd007138:	30a50000 	andi	a1,a1,0x0
bd00713c:	3c089d01 	lui	t0,0x9d01
bd007140:	2508ba90 	addiu	t0,t0,-17776
bd007144:	01000008 	jr	t0
bd007148:	00000000 	nop

Disassembly of section .bev_excpt:

bfc07380 <_bev_exception>:
bfc07380:	3c1a9d01 	lui	k0,0x9d01
bfc07384:	275abbd4 	addiu	k0,k0,-17452
bfc07388:	03400008 	jr	k0
bfc0738c:	00000000 	nop

Disassembly of section .app_excpt:

9d006180 <_gen_exception>:
9d006180:	3c1a9d01 	lui	k0,0x9d01
9d006184:	275aa878 	addiu	k0,k0,-22408
9d006188:	03400008 	jr	k0
9d00618c:	00000000 	nop

Disassembly of section .vector_0:

9d006200 <__vector_dispatch_0>:
9d006200:	0b402f19 	j	9d00bc64 <_DefaultInterrupt>
9d006204:	00000000 	nop

Disassembly of section .vector_1:

9d006220 <__vector_dispatch_1>:
9d006220:	0b402f19 	j	9d00bc64 <_DefaultInterrupt>
9d006224:	00000000 	nop

Disassembly of section .vector_2:

9d006240 <__vector_dispatch_2>:
9d006240:	0b402f19 	j	9d00bc64 <_DefaultInterrupt>
9d006244:	00000000 	nop

Disassembly of section .vector_3:

9d006260 <__vector_dispatch_3>:
9d006260:	0b402f19 	j	9d00bc64 <_DefaultInterrupt>
9d006264:	00000000 	nop

Disassembly of section .vector_4:

9d006280 <__vector_dispatch_4>:
9d006280:	0b402f19 	j	9d00bc64 <_DefaultInterrupt>
9d006284:	00000000 	nop

Disassembly of section .vector_5:

9d0062a0 <__vector_dispatch_5>:
9d0062a0:	0b402f19 	j	9d00bc64 <_DefaultInterrupt>
9d0062a4:	00000000 	nop

Disassembly of section .vector_6:

9d0062c0 <__vector_dispatch_6>:
9d0062c0:	0b402f19 	j	9d00bc64 <_DefaultInterrupt>
9d0062c4:	00000000 	nop

Disassembly of section .vector_7:

9d0062e0 <__vector_dispatch_7>:
9d0062e0:	0b402f19 	j	9d00bc64 <_DefaultInterrupt>
9d0062e4:	00000000 	nop

Disassembly of section .vector_8:

9d006300 <__vector_dispatch_8>:
9d006300:	0b402f19 	j	9d00bc64 <_DefaultInterrupt>
9d006304:	00000000 	nop

Disassembly of section .vector_9:

9d006320 <__vector_dispatch_9>:
9d006320:	0b402f19 	j	9d00bc64 <_DefaultInterrupt>
9d006324:	00000000 	nop

Disassembly of section .vector_10:

9d006340 <__vector_dispatch_10>:
9d006340:	0b402f19 	j	9d00bc64 <_DefaultInterrupt>
9d006344:	00000000 	nop

Disassembly of section .vector_11:

9d006360 <__vector_dispatch_11>:
9d006360:	0b402f19 	j	9d00bc64 <_DefaultInterrupt>
9d006364:	00000000 	nop

Disassembly of section .vector_12:

9d006380 <__vector_dispatch_12>:
9d006380:	0b402f19 	j	9d00bc64 <_DefaultInterrupt>
9d006384:	00000000 	nop

Disassembly of section .vector_13:

9d0063a0 <__vector_dispatch_13>:
9d0063a0:	0b402f19 	j	9d00bc64 <_DefaultInterrupt>
9d0063a4:	00000000 	nop

Disassembly of section .vector_14:

9d0063c0 <__vector_dispatch_14>:
9d0063c0:	0b402f19 	j	9d00bc64 <_DefaultInterrupt>
9d0063c4:	00000000 	nop

Disassembly of section .vector_15:

9d0063e0 <__vector_dispatch_15>:
9d0063e0:	0b402f19 	j	9d00bc64 <_DefaultInterrupt>
9d0063e4:	00000000 	nop

Disassembly of section .vector_16:

9d006400 <__vector_dispatch_16>:
9d006400:	0b402f19 	j	9d00bc64 <_DefaultInterrupt>
9d006404:	00000000 	nop

Disassembly of section .vector_17:

9d006420 <__vector_dispatch_17>:
9d006420:	0b402f19 	j	9d00bc64 <_DefaultInterrupt>
9d006424:	00000000 	nop

Disassembly of section .vector_18:

9d006440 <__vector_dispatch_18>:
9d006440:	0b402f19 	j	9d00bc64 <_DefaultInterrupt>
9d006444:	00000000 	nop

Disassembly of section .vector_19:

9d006460 <__vector_dispatch_19>:
9d006460:	0b402f19 	j	9d00bc64 <_DefaultInterrupt>
9d006464:	00000000 	nop

Disassembly of section .vector_20:

9d006480 <__vector_dispatch_20>:
9d006480:	0b402f19 	j	9d00bc64 <_DefaultInterrupt>
9d006484:	00000000 	nop

Disassembly of section .vector_21:

9d0064a0 <__vector_dispatch_21>:
9d0064a0:	0b402f19 	j	9d00bc64 <_DefaultInterrupt>
9d0064a4:	00000000 	nop

Disassembly of section .vector_22:

9d0064c0 <__vector_dispatch_22>:
9d0064c0:	0b402f19 	j	9d00bc64 <_DefaultInterrupt>
9d0064c4:	00000000 	nop

Disassembly of section .vector_23:

9d0064e0 <__vector_dispatch_23>:
9d0064e0:	0b402f19 	j	9d00bc64 <_DefaultInterrupt>
9d0064e4:	00000000 	nop

Disassembly of section .vector_24:

9d006500 <__vector_dispatch_24>:
9d006500:	0b402f19 	j	9d00bc64 <_DefaultInterrupt>
9d006504:	00000000 	nop

Disassembly of section .vector_25:

9d006520 <__vector_dispatch_25>:
9d006520:	0b402f19 	j	9d00bc64 <_DefaultInterrupt>
9d006524:	00000000 	nop

Disassembly of section .vector_26:

9d006540 <__vector_dispatch_26>:
9d006540:	0b402f19 	j	9d00bc64 <_DefaultInterrupt>
9d006544:	00000000 	nop

Disassembly of section .vector_27:

9d006560 <__vector_dispatch_27>:
9d006560:	0b402f19 	j	9d00bc64 <_DefaultInterrupt>
9d006564:	00000000 	nop

Disassembly of section .vector_28:

9d006580 <__vector_dispatch_28>:
9d006580:	0b402f19 	j	9d00bc64 <_DefaultInterrupt>
9d006584:	00000000 	nop

Disassembly of section .vector_29:

9d0065a0 <__vector_dispatch_29>:
9d0065a0:	0b402f19 	j	9d00bc64 <_DefaultInterrupt>
9d0065a4:	00000000 	nop

Disassembly of section .vector_30:

9d0065c0 <__vector_dispatch_30>:
9d0065c0:	0b402f19 	j	9d00bc64 <_DefaultInterrupt>
9d0065c4:	00000000 	nop

Disassembly of section .vector_31:

9d0065e0 <__vector_dispatch_31>:
9d0065e0:	0b402f19 	j	9d00bc64 <_DefaultInterrupt>
9d0065e4:	00000000 	nop

Disassembly of section .vector_32:

9d006600 <__vector_dispatch_32>:
9d006600:	0b402f19 	j	9d00bc64 <_DefaultInterrupt>
9d006604:	00000000 	nop

Disassembly of section .vector_33:

9d006620 <__vector_dispatch_33>:
9d006620:	0b402f19 	j	9d00bc64 <_DefaultInterrupt>
9d006624:	00000000 	nop

Disassembly of section .vector_34:

9d006640 <__vector_dispatch_34>:
9d006640:	0b402f19 	j	9d00bc64 <_DefaultInterrupt>
9d006644:	00000000 	nop

Disassembly of section .vector_35:

9d006660 <__vector_dispatch_35>:
9d006660:	0b402f19 	j	9d00bc64 <_DefaultInterrupt>
9d006664:	00000000 	nop

Disassembly of section .vector_36:

9d006680 <__vector_dispatch_36>:
9d006680:	0b402f19 	j	9d00bc64 <_DefaultInterrupt>
9d006684:	00000000 	nop

Disassembly of section .vector_37:

9d0066a0 <__vector_dispatch_37>:
9d0066a0:	0b402417 	j	9d00905c <U2ISR>
9d0066a4:	00000000 	nop

Disassembly of section .vector_38:

9d0066c0 <__vector_dispatch_38>:
9d0066c0:	0b402f19 	j	9d00bc64 <_DefaultInterrupt>
9d0066c4:	00000000 	nop

Disassembly of section .vector_39:

9d0066e0 <__vector_dispatch_39>:
9d0066e0:	0b402f19 	j	9d00bc64 <_DefaultInterrupt>
9d0066e4:	00000000 	nop

Disassembly of section .vector_40:

9d006700 <__vector_dispatch_40>:
9d006700:	0b402f19 	j	9d00bc64 <_DefaultInterrupt>
9d006704:	00000000 	nop

Disassembly of section .vector_41:

9d006720 <__vector_dispatch_41>:
9d006720:	0b402f19 	j	9d00bc64 <_DefaultInterrupt>
9d006724:	00000000 	nop

Disassembly of section .vector_42:

9d006740 <__vector_dispatch_42>:
9d006740:	0b402f19 	j	9d00bc64 <_DefaultInterrupt>
9d006744:	00000000 	nop

Disassembly of section .vector_43:

9d006760 <__vector_dispatch_43>:
9d006760:	0b402f19 	j	9d00bc64 <_DefaultInterrupt>
9d006764:	00000000 	nop

Disassembly of section .rodata:

9d007490 <.rodata>:
9d007490:	00006425 	0x6425
9d007494:	0c000061 	jal	90000184 <_bmxdudba_address+0x8fff0184>
9d007498:	0a0d6425 	j	98359094 <_bmxdudba_address+0x98349094>
9d00749c:	0c000000 	jal	90000000 <_bmxdudba_address+0x8fff0000>
9d0074a0:	0c000062 	jal	90000188 <_bmxdudba_address+0x8fff0188>
9d0074a4:	6f636e45 	0x6f636e45
9d0074a8:	20726564 	addi	s2,v1,25956
9d0074ac:	6e756f63 	0x6e756f63
9d0074b0:	65722074 	0x65722074
9d0074b4:	0d746573 	jal	95d195cc <_bmxdudba_address+0x95d095cc>
9d0074b8:	0c00000a 	jal	90000028 <_bmxdudba_address+0x8fff0028>
9d0074bc:	6c696e28 	0x6c696e28
9d0074c0:	00000029 	0x29
9d0074c4:	00000025 	move	zero,zero

Disassembly of section ._debug_exception:

bfc00480 <__DbgExecReturn>:
bfc00480:	409bf800 	mtc0	k1,c0_desave
bfc00484:	000000c0 	ehb
bfc00488:	3c1b9d01 	lui	k1,0x9d01
bfc0048c:	277bbd3c 	addiu	k1,k1,-17092
bfc00490:	13600002 	beqz	k1,bfc0049c <__DbgExecReturn+0x1c>
bfc00494:	00000000 	nop
bfc00498:	409bc000 	mtc0	k1,c0_depc
bfc0049c:	401bf800 	mfc0	k1,c0_desave
bfc004a0:	000000c0 	ehb
bfc004a4:	4200001f 	deret
bfc004a8:	00000000 	nop

Disassembly of section .text.__scanf_core:

9d0074c8 <__scanf_core>:
9d0074c8:	27bdfe20 	addiu	sp,sp,-480
9d0074cc:	afb601d4 	sw	s6,468(sp)
9d0074d0:	afb501d0 	sw	s5,464(sp)
9d0074d4:	afb201c4 	sw	s2,452(sp)
9d0074d8:	afb001bc 	sw	s0,444(sp)
9d0074dc:	afbf01dc 	sw	ra,476(sp)
9d0074e0:	afb701d8 	sw	s7,472(sp)
9d0074e4:	afb401cc 	sw	s4,460(sp)
9d0074e8:	afb301c8 	sw	s3,456(sp)
9d0074ec:	afb101c0 	sw	s1,448(sp)
9d0074f0:	00808025 	move	s0,a0
9d0074f4:	00c09025 	move	s2,a2
9d0074f8:	afa501b4 	sw	a1,436(sp)
9d0074fc:	afa001b0 	sw	zero,432(sp)
9d007500:	0000a825 	move	s5,zero
9d007504:	27b6011c 	addiu	s6,sp,284
9d007508:	8fa201b4 	lw	v0,436(sp)
9d00750c:	80420000 	lb	v0,0(v0)
9d007510:	1040005a 	beqz	v0,9d00767c <__scanf_core+0x1b4>
9d007514:	24020080 	li	v0,128
9d007518:	27a501b4 	addiu	a1,sp,436
9d00751c:	02002025 	move	a0,s0
9d007520:	afa0019c 	sw	zero,412(sp)
9d007524:	afa001a0 	sw	zero,416(sp)
9d007528:	afa001a4 	sw	zero,420(sp)
9d00752c:	afb601a8 	sw	s6,424(sp)
9d007530:	0f402dd7 	jal	9d00b75c <__consumews>
9d007534:	afa201ac 	sw	v0,428(sp)
9d007538:	00408825 	move	s1,v0
9d00753c:	8fa301b4 	lw	v1,436(sp)
9d007540:	80620000 	lb	v0,0(v1)
9d007544:	10400003 	beqz	v0,9d007554 <__scanf_core+0x8c>
9d007548:	24040025 	li	a0,37
9d00754c:	5444003b 	bnel	v0,a0,9d00763c <__scanf_core+0x174>
9d007550:	8e02003c 	lw	v0,60(s0)
9d007554:	8fa201b0 	lw	v0,432(sp)
9d007558:	00511021 	addu	v0,v0,s1
9d00755c:	afa201b0 	sw	v0,432(sp)
9d007560:	80640000 	lb	a0,0(v1)
9d007564:	24020025 	li	v0,37
9d007568:	1482002d 	bne	a0,v0,9d007620 <__scanf_core+0x158>
9d00756c:	24620001 	addiu	v0,v1,1
9d007570:	afa201b4 	sw	v0,436(sp)
9d007574:	afa001a4 	sw	zero,420(sp)
9d007578:	80640001 	lb	a0,1(v1)
9d00757c:	2402002a 	li	v0,42
9d007580:	14820004 	bne	a0,v0,9d007594 <__scanf_core+0xcc>
9d007584:	00008825 	move	s1,zero
9d007588:	24630002 	addiu	v1,v1,2
9d00758c:	afa301b4 	sw	v1,436(sp)
9d007590:	24110001 	li	s1,1
9d007594:	0f402d7d 	jal	9d00b5f4 <atoi>
9d007598:	8fa401b4 	lw	a0,436(sp)
9d00759c:	00402825 	move	a1,v0
9d0075a0:	02002025 	move	a0,s0
9d0075a4:	0f40304a 	jal	9d00c128 <__shlim>
9d0075a8:	afa201a4 	sw	v0,420(sp)
9d0075ac:	8fa301b4 	lw	v1,436(sp)
9d0075b0:	80620000 	lb	v0,0(v1)
9d0075b4:	2442ffd0 	addiu	v0,v0,-48
9d0075b8:	2c42000a 	sltiu	v0,v0,10
9d0075bc:	1440004b 	bnez	v0,9d0076ec <__scanf_core+0x224>
9d0075c0:	24630001 	addiu	v1,v1,1
9d0075c4:	0f402e8e 	jal	9d00ba38 <__fmt_state>
9d0075c8:	27a401b4 	addiu	a0,sp,436
9d0075cc:	0040a025 	move	s4,v0
9d0075d0:	8fa201b4 	lw	v0,436(sp)
9d0075d4:	0f4030f2 	jal	9d00c3c8 <tolower>
9d0075d8:	80440000 	lb	a0,0(v0)
9d0075dc:	28430068 	slti	v1,v0,104
9d0075e0:	1060005f 	beqz	v1,9d007760 <__scanf_core+0x298>
9d0075e4:	28430065 	slti	v1,v0,101
9d0075e8:	106000bd 	beqz	v1,9d0078e0 <__scanf_core+0x418>
9d0075ec:	24030061 	li	v1,97
9d0075f0:	104300bb 	beq	v0,v1,9d0078e0 <__scanf_core+0x418>
9d0075f4:	28430062 	slti	v1,v0,98
9d0075f8:	1060003e 	beqz	v1,9d0076f4 <__scanf_core+0x22c>
9d0075fc:	24040025 	li	a0,37
9d007600:	104400e0 	beq	v0,a0,9d007984 <__scanf_core+0x4bc>
9d007604:	8fa301b4 	lw	v1,436(sp)
9d007608:	2404005b 	li	a0,91
9d00760c:	104400fc 	beq	v0,a0,9d007a00 <__scanf_core+0x538>
9d007610:	24020080 	li	v0,128
9d007614:	8fa201b4 	lw	v0,436(sp)
9d007618:	24420001 	addiu	v0,v0,1
9d00761c:	afa201b4 	sw	v0,436(sp)
9d007620:	2402ffff 	li	v0,-1
9d007624:	166200ac 	bne	s3,v0,9d0078d8 <__scanf_core+0x410>
9d007628:	00008825 	move	s1,zero
9d00762c:	52a00013 	beqzl	s5,9d00767c <__scanf_core+0x1b4>
9d007630:	2415ffff 	li	s5,-1
9d007634:	10000012 	b	9d007680 <__scanf_core+0x1b8>
9d007638:	8fbf01dc 	lw	ra,476(sp)
9d00763c:	8e03004c 	lw	v1,76(s0)
9d007640:	0043182b 	sltu	v1,v0,v1
9d007644:	10600019 	beqz	v1,9d0076ac <__scanf_core+0x1e4>
9d007648:	24430001 	addiu	v1,v0,1
9d00764c:	ae03003c 	sw	v1,60(s0)
9d007650:	90530000 	lbu	s3,0(v0)
9d007654:	8fa201b4 	lw	v0,436(sp)
9d007658:	80420000 	lb	v0,0(v0)
9d00765c:	10530019 	beq	v0,s3,9d0076c4 <__scanf_core+0x1fc>
9d007660:	8fa201b0 	lw	v0,432(sp)
9d007664:	8e02004c 	lw	v0,76(s0)
9d007668:	10400005 	beqz	v0,9d007680 <__scanf_core+0x1b8>
9d00766c:	8fbf01dc 	lw	ra,476(sp)
9d007670:	8e02003c 	lw	v0,60(s0)
9d007674:	2442ffff 	addiu	v0,v0,-1
9d007678:	ae02003c 	sw	v0,60(s0)
9d00767c:	8fbf01dc 	lw	ra,476(sp)
9d007680:	02a01025 	move	v0,s5
9d007684:	8fb701d8 	lw	s7,472(sp)
9d007688:	8fb601d4 	lw	s6,468(sp)
9d00768c:	8fb501d0 	lw	s5,464(sp)
9d007690:	8fb401cc 	lw	s4,460(sp)
9d007694:	8fb301c8 	lw	s3,456(sp)
9d007698:	8fb201c4 	lw	s2,452(sp)
9d00769c:	8fb101c0 	lw	s1,448(sp)
9d0076a0:	8fb001bc 	lw	s0,444(sp)
9d0076a4:	03e00008 	jr	ra
9d0076a8:	27bd01e0 	addiu	sp,sp,480
9d0076ac:	0f402b49 	jal	9d00ad24 <__shgetc>
9d0076b0:	02002025 	move	a0,s0
9d0076b4:	00409825 	move	s3,v0
9d0076b8:	2402ffff 	li	v0,-1
9d0076bc:	1662ffe5 	bne	s3,v0,9d007654 <__scanf_core+0x18c>
9d0076c0:	8fa201b0 	lw	v0,432(sp)
9d0076c4:	27a501b4 	addiu	a1,sp,436
9d0076c8:	02002025 	move	a0,s0
9d0076cc:	24420001 	addiu	v0,v0,1
9d0076d0:	afa201b0 	sw	v0,432(sp)
9d0076d4:	8fa201b4 	lw	v0,436(sp)
9d0076d8:	24420001 	addiu	v0,v0,1
9d0076dc:	0f402dd7 	jal	9d00b75c <__consumews>
9d0076e0:	afa201b4 	sw	v0,436(sp)
9d0076e4:	1000ff95 	b	9d00753c <__scanf_core+0x74>
9d0076e8:	02228821 	addu	s1,s1,v0
9d0076ec:	1000ffaf 	b	9d0075ac <__scanf_core+0xe4>
9d0076f0:	afa301b4 	sw	v1,436(sp)
9d0076f4:	24030063 	li	v1,99
9d0076f8:	1043008a 	beq	v0,v1,9d007924 <__scanf_core+0x45c>
9d0076fc:	24030064 	li	v1,100
9d007700:	1443ffc4 	bne	v0,v1,9d007614 <__scanf_core+0x14c>
9d007704:	27a701b0 	addiu	a3,sp,432
9d007708:	27a6019c 	addiu	a2,sp,412
9d00770c:	27a50018 	addiu	a1,sp,24
9d007710:	0f402dbb 	jal	9d00b6ec <__scan_d>
9d007714:	02002025 	move	a0,s0
9d007718:	0442000c 	bltzl	v0,9d00774c <__scanf_core+0x284>
9d00771c:	00408825 	move	s1,v0
9d007720:	8fa201b4 	lw	v0,436(sp)
9d007724:	24420001 	addiu	v0,v0,1
9d007728:	162000a8 	bnez	s1,9d0079cc <__scanf_core+0x504>
9d00772c:	afa201b4 	sw	v0,436(sp)
9d007730:	02403825 	move	a3,s2
9d007734:	24060001 	li	a2,1
9d007738:	02802825 	move	a1,s4
9d00773c:	0f40264a 	jal	9d009928 <__push_int>
9d007740:	27a40018 	addiu	a0,sp,24
9d007744:	04410064 	bgez	v0,9d0078d8 <__scanf_core+0x410>
9d007748:	00408825 	move	s1,v0
9d00774c:	2402ffff 	li	v0,-1
9d007750:	1222ffb6 	beq	s1,v0,9d00762c <__scanf_core+0x164>
9d007754:	8fbf01dc 	lw	ra,476(sp)
9d007758:	1000ffca 	b	9d007684 <__scanf_core+0x1bc>
9d00775c:	02a01025 	move	v0,s5
9d007760:	24030070 	li	v1,112
9d007764:	10430040 	beq	v0,v1,9d007868 <__scanf_core+0x3a0>
9d007768:	28430071 	slti	v1,v0,113
9d00776c:	1060000d 	beqz	v1,9d0077a4 <__scanf_core+0x2dc>
9d007770:	2403006e 	li	v1,110
9d007774:	1043004b 	beq	v0,v1,9d0078a4 <__scanf_core+0x3dc>
9d007778:	2843006f 	slti	v1,v0,111
9d00777c:	1060002c 	beqz	v1,9d007830 <__scanf_core+0x368>
9d007780:	24030069 	li	v1,105
9d007784:	1443ffa3 	bne	v0,v1,9d007614 <__scanf_core+0x14c>
9d007788:	27a701b0 	addiu	a3,sp,432
9d00778c:	27a6019c 	addiu	a2,sp,412
9d007790:	27a50018 	addiu	a1,sp,24
9d007794:	0f4024cd 	jal	9d009334 <__scan_i>
9d007798:	02002025 	move	a0,s0
9d00779c:	1000ffde 	b	9d007718 <__scanf_core+0x250>
9d0077a0:	00000000 	nop
9d0077a4:	24030075 	li	v1,117
9d0077a8:	10430013 	beq	v0,v1,9d0077f8 <__scanf_core+0x330>
9d0077ac:	24030078 	li	v1,120
9d0077b0:	10430026 	beq	v0,v1,9d00784c <__scanf_core+0x384>
9d0077b4:	24030073 	li	v1,115
9d0077b8:	1443ff96 	bne	v0,v1,9d007614 <__scanf_core+0x14c>
9d0077bc:	24020080 	li	v0,128
9d0077c0:	1682ff94 	bne	s4,v0,9d007614 <__scanf_core+0x14c>
9d0077c4:	8fa201b4 	lw	v0,436(sp)
9d0077c8:	24420001 	addiu	v0,v0,1
9d0077cc:	afa201b4 	sw	v0,436(sp)
9d0077d0:	16200005 	bnez	s1,9d0077e8 <__scanf_core+0x320>
9d0077d4:	00001025 	move	v0,zero
9d0077d8:	8e420000 	lw	v0,0(s2)
9d0077dc:	24430004 	addiu	v1,v0,4
9d0077e0:	ae430000 	sw	v1,0(s2)
9d0077e4:	8c420000 	lw	v0,0(v0)
9d0077e8:	afa20010 	sw	v0,16(sp)
9d0077ec:	27a701b0 	addiu	a3,sp,432
9d0077f0:	1000005f 	b	9d007970 <__scanf_core+0x4a8>
9d0077f4:	24060001 	li	a2,1
9d0077f8:	27a701b0 	addiu	a3,sp,432
9d0077fc:	27a6019c 	addiu	a2,sp,412
9d007800:	27a50018 	addiu	a1,sp,24
9d007804:	0f403151 	jal	9d00c544 <__scan_a>
9d007808:	02002025 	move	a0,s0
9d00780c:	0442ffcf 	bltzl	v0,9d00774c <__scanf_core+0x284>
9d007810:	00408825 	move	s1,v0
9d007814:	8fa201b4 	lw	v0,436(sp)
9d007818:	24420001 	addiu	v0,v0,1
9d00781c:	1620006b 	bnez	s1,9d0079cc <__scanf_core+0x504>
9d007820:	afa201b4 	sw	v0,436(sp)
9d007824:	02403825 	move	a3,s2
9d007828:	1000ffc3 	b	9d007738 <__scanf_core+0x270>
9d00782c:	00003025 	move	a2,zero
9d007830:	27a701b0 	addiu	a3,sp,432
9d007834:	27a6019c 	addiu	a2,sp,412
9d007838:	27a50018 	addiu	a1,sp,24
9d00783c:	0f403151 	jal	9d00c544 <__scan_a>
9d007840:	02002025 	move	a0,s0
9d007844:	1000fff1 	b	9d00780c <__scanf_core+0x344>
9d007848:	00000000 	nop
9d00784c:	27a701b0 	addiu	a3,sp,432
9d007850:	27a6019c 	addiu	a2,sp,412
9d007854:	27a50018 	addiu	a1,sp,24
9d007858:	0f403151 	jal	9d00c544 <__scan_a>
9d00785c:	02002025 	move	a0,s0
9d007860:	1000ffea 	b	9d00780c <__scanf_core+0x344>
9d007864:	00000000 	nop
9d007868:	27a701b0 	addiu	a3,sp,432
9d00786c:	27a6019c 	addiu	a2,sp,412
9d007870:	27a50018 	addiu	a1,sp,24
9d007874:	0f403151 	jal	9d00c544 <__scan_a>
9d007878:	02002025 	move	a0,s0
9d00787c:	0442ffb3 	bltzl	v0,9d00774c <__scanf_core+0x284>
9d007880:	00408825 	move	s1,v0
9d007884:	8fa201b4 	lw	v0,436(sp)
9d007888:	24420001 	addiu	v0,v0,1
9d00788c:	1620004f 	bnez	s1,9d0079cc <__scanf_core+0x504>
9d007890:	afa201b4 	sw	v0,436(sp)
9d007894:	02403825 	move	a3,s2
9d007898:	00003025 	move	a2,zero
9d00789c:	1000ffa7 	b	9d00773c <__scanf_core+0x274>
9d0078a0:	240500f0 	li	a1,240
9d0078a4:	8fa201b4 	lw	v0,436(sp)
9d0078a8:	24420001 	addiu	v0,v0,1
9d0078ac:	afa201b4 	sw	v0,436(sp)
9d0078b0:	8fa201b0 	lw	v0,432(sp)
9d0078b4:	afa20018 	sw	v0,24(sp)
9d0078b8:	000217c3 	sra	v0,v0,0x1f
9d0078bc:	16200043 	bnez	s1,9d0079cc <__scanf_core+0x504>
9d0078c0:	afa2001c 	sw	v0,28(sp)
9d0078c4:	02403825 	move	a3,s2
9d0078c8:	00003025 	move	a2,zero
9d0078cc:	02802825 	move	a1,s4
9d0078d0:	0f40264a 	jal	9d009928 <__push_int>
9d0078d4:	27a40018 	addiu	a0,sp,24
9d0078d8:	1000ff0b 	b	9d007508 <__scanf_core+0x40>
9d0078dc:	02b1a821 	addu	s5,s5,s1
9d0078e0:	27a701b0 	addiu	a3,sp,432
9d0078e4:	27a6019c 	addiu	a2,sp,412
9d0078e8:	27a50018 	addiu	a1,sp,24
9d0078ec:	0f403151 	jal	9d00c544 <__scan_a>
9d0078f0:	02002025 	move	a0,s0
9d0078f4:	0442ff95 	bltzl	v0,9d00774c <__scanf_core+0x284>
9d0078f8:	00408825 	move	s1,v0
9d0078fc:	8fa201b4 	lw	v0,436(sp)
9d007900:	24420001 	addiu	v0,v0,1
9d007904:	16200031 	bnez	s1,9d0079cc <__scanf_core+0x504>
9d007908:	afa201b4 	sw	v0,436(sp)
9d00790c:	02403025 	move	a2,s2
9d007910:	02802825 	move	a1,s4
9d007914:	0f402ba2 	jal	9d00ae88 <__push_float>
9d007918:	27a40018 	addiu	a0,sp,24
9d00791c:	1000ff89 	b	9d007744 <__scanf_core+0x27c>
9d007920:	00000000 	nop
9d007924:	24020080 	li	v0,128
9d007928:	1682ff3a 	bne	s4,v0,9d007614 <__scanf_core+0x14c>
9d00792c:	8fa201a4 	lw	v0,420(sp)
9d007930:	54400004 	bnezl	v0,9d007944 <__scanf_core+0x47c>
9d007934:	8fa201b4 	lw	v0,436(sp)
9d007938:	24020001 	li	v0,1
9d00793c:	afa201a4 	sw	v0,420(sp)
9d007940:	8fa201b4 	lw	v0,436(sp)
9d007944:	24420001 	addiu	v0,v0,1
9d007948:	afa201b4 	sw	v0,436(sp)
9d00794c:	16200005 	bnez	s1,9d007964 <__scanf_core+0x49c>
9d007950:	00001025 	move	v0,zero
9d007954:	8e420000 	lw	v0,0(s2)
9d007958:	24430004 	addiu	v1,v0,4
9d00795c:	ae430000 	sw	v1,0(s2)
9d007960:	8c420000 	lw	v0,0(v0)
9d007964:	afa20010 	sw	v0,16(sp)
9d007968:	27a701b0 	addiu	a3,sp,432
9d00796c:	00003025 	move	a2,zero
9d007970:	27a5019c 	addiu	a1,sp,412
9d007974:	0f403153 	jal	9d00c54c <__scan_s>
9d007978:	02002025 	move	a0,s0
9d00797c:	1000ff71 	b	9d007744 <__scanf_core+0x27c>
9d007980:	00000000 	nop
9d007984:	24020080 	li	v0,128
9d007988:	1682ff23 	bne	s4,v0,9d007618 <__scanf_core+0x150>
9d00798c:	8fa201b4 	lw	v0,436(sp)
9d007990:	24630001 	addiu	v1,v1,1
9d007994:	afa301b4 	sw	v1,436(sp)
9d007998:	8e02003c 	lw	v0,60(s0)
9d00799c:	8e03004c 	lw	v1,76(s0)
9d0079a0:	0043182b 	sltu	v1,v0,v1
9d0079a4:	1060000b 	beqz	v1,9d0079d4 <__scanf_core+0x50c>
9d0079a8:	00000000 	nop
9d0079ac:	24430001 	addiu	v1,v0,1
9d0079b0:	ae03003c 	sw	v1,60(s0)
9d0079b4:	90420000 	lbu	v0,0(v0)
9d0079b8:	24030025 	li	v1,37
9d0079bc:	14430009 	bne	v0,v1,9d0079e4 <__scanf_core+0x51c>
9d0079c0:	8fa201b0 	lw	v0,432(sp)
9d0079c4:	24420001 	addiu	v0,v0,1
9d0079c8:	afa201b0 	sw	v0,432(sp)
9d0079cc:	1000ffc2 	b	9d0078d8 <__scanf_core+0x410>
9d0079d0:	00008825 	move	s1,zero
9d0079d4:	0f402b49 	jal	9d00ad24 <__shgetc>
9d0079d8:	02002025 	move	a0,s0
9d0079dc:	1000fff7 	b	9d0079bc <__scanf_core+0x4f4>
9d0079e0:	24030025 	li	v1,37
9d0079e4:	8e02004c 	lw	v0,76(s0)
9d0079e8:	5040ffbb 	beqzl	v0,9d0078d8 <__scanf_core+0x410>
9d0079ec:	00008825 	move	s1,zero
9d0079f0:	8e02003c 	lw	v0,60(s0)
9d0079f4:	2442ffff 	addiu	v0,v0,-1
9d0079f8:	1000fff4 	b	9d0079cc <__scanf_core+0x504>
9d0079fc:	ae02003c 	sw	v0,60(s0)
9d007a00:	1682ff05 	bne	s4,v0,9d007618 <__scanf_core+0x150>
9d007a04:	8fa201b4 	lw	v0,436(sp)
9d007a08:	16200005 	bnez	s1,9d007a20 <__scanf_core+0x558>
9d007a0c:	0000a025 	move	s4,zero
9d007a10:	8e420000 	lw	v0,0(s2)
9d007a14:	24440004 	addiu	a0,v0,4
9d007a18:	ae440000 	sw	a0,0(s2)
9d007a1c:	8c540000 	lw	s4,0(v0)
9d007a20:	24620001 	addiu	v0,v1,1
9d007a24:	afa201b4 	sw	v0,436(sp)
9d007a28:	80640001 	lb	a0,1(v1)
9d007a2c:	2402005e 	li	v0,94
9d007a30:	14820004 	bne	a0,v0,9d007a44 <__scanf_core+0x57c>
9d007a34:	00008825 	move	s1,zero
9d007a38:	24630002 	addiu	v1,v1,2
9d007a3c:	afa301b4 	sw	v1,436(sp)
9d007a40:	24110001 	li	s1,1
9d007a44:	27a40018 	addiu	a0,sp,24
9d007a48:	24060101 	li	a2,257
9d007a4c:	0f40309f 	jal	9d00c27c <memset>
9d007a50:	02202825 	move	a1,s1
9d007a54:	8fa201b4 	lw	v0,436(sp)
9d007a58:	a3a00018 	sb	zero,24(sp)
9d007a5c:	2404002d 	li	a0,45
9d007a60:	80430000 	lb	v1,0(v0)
9d007a64:	1464001e 	bne	v1,a0,9d007ae0 <__scanf_core+0x618>
9d007a68:	2404005d 	li	a0,93
9d007a6c:	24420001 	addiu	v0,v0,1
9d007a70:	afa201b4 	sw	v0,436(sp)
9d007a74:	24020001 	li	v0,1
9d007a78:	00511023 	subu	v0,v0,s1
9d007a7c:	a3a20046 	sb	v0,70(sp)
9d007a80:	24020001 	li	v0,1
9d007a84:	2405005d 	li	a1,93
9d007a88:	2406002d 	li	a2,45
9d007a8c:	00518823 	subu	s1,v0,s1
9d007a90:	8fa301b4 	lw	v1,436(sp)
9d007a94:	80620000 	lb	v0,0(v1)
9d007a98:	14450018 	bne	v0,a1,9d007afc <__scanf_core+0x634>
9d007a9c:	00000000 	nop
9d007aa0:	56800037 	bnezl	s4,9d007b80 <__scanf_core+0x6b8>
9d007aa4:	00008825 	move	s1,zero
9d007aa8:	8e02003c 	lw	v0,60(s0)
9d007aac:	8e03004c 	lw	v1,76(s0)
9d007ab0:	0043182b 	sltu	v1,v0,v1
9d007ab4:	10600056 	beqz	v1,9d007c10 <__scanf_core+0x748>
9d007ab8:	24430001 	addiu	v1,v0,1
9d007abc:	ae03003c 	sw	v1,60(s0)
9d007ac0:	90530000 	lbu	s3,0(v0)
9d007ac4:	27a20018 	addiu	v0,sp,24
9d007ac8:	00531021 	addu	v0,v0,s3
9d007acc:	90420001 	lbu	v0,1(v0)
9d007ad0:	1440004b 	bnez	v0,9d007c00 <__scanf_core+0x738>
9d007ad4:	0000b825 	move	s7,zero
9d007ad8:	10000037 	b	9d007bb8 <__scanf_core+0x6f0>
9d007adc:	8e02004c 	lw	v0,76(s0)
9d007ae0:	1464ffe7 	bne	v1,a0,9d007a80 <__scanf_core+0x5b8>
9d007ae4:	24420001 	addiu	v0,v0,1
9d007ae8:	afa201b4 	sw	v0,436(sp)
9d007aec:	24020001 	li	v0,1
9d007af0:	00511023 	subu	v0,v0,s1
9d007af4:	1000ffe2 	b	9d007a80 <__scanf_core+0x5b8>
9d007af8:	a3a20076 	sb	v0,118(sp)
9d007afc:	1040ffe8 	beqz	v0,9d007aa0 <__scanf_core+0x5d8>
9d007b00:	00000000 	nop
9d007b04:	10460009 	beq	v0,a2,9d007b2c <__scanf_core+0x664>
9d007b08:	8fa201b8 	lw	v0,440(sp)
9d007b0c:	8fa201b4 	lw	v0,436(sp)
9d007b10:	27a40018 	addiu	a0,sp,24
9d007b14:	80430000 	lb	v1,0(v0)
9d007b18:	24420001 	addiu	v0,v0,1
9d007b1c:	afa201b4 	sw	v0,436(sp)
9d007b20:	00831821 	addu	v1,a0,v1
9d007b24:	1000ffda 	b	9d007a90 <__scanf_core+0x5c8>
9d007b28:	a0710001 	sb	s1,1(v1)
9d007b2c:	80420000 	lb	v0,0(v0)
9d007b30:	5040fff7 	beqzl	v0,9d007b10 <__scanf_core+0x648>
9d007b34:	8fa201b4 	lw	v0,436(sp)
9d007b38:	1045fff4 	beq	v0,a1,9d007b0c <__scanf_core+0x644>
9d007b3c:	24620001 	addiu	v0,v1,1
9d007b40:	afa201b4 	sw	v0,436(sp)
9d007b44:	8fa201b0 	lw	v0,432(sp)
9d007b48:	80420000 	lb	v0,0(v0)
9d007b4c:	80640001 	lb	a0,1(v1)
9d007b50:	0044202a 	slt	a0,v0,a0
9d007b54:	1080ffed 	beqz	a0,9d007b0c <__scanf_core+0x644>
9d007b58:	24420001 	addiu	v0,v0,1
9d007b5c:	27a40018 	addiu	a0,sp,24
9d007b60:	00822021 	addu	a0,a0,v0
9d007b64:	1000fff9 	b	9d007b4c <__scanf_core+0x684>
9d007b68:	a0910000 	sb	s1,0(a0)
9d007b6c:	a0530000 	sb	s3,0(v0)
9d007b70:	8fa201b0 	lw	v0,432(sp)
9d007b74:	26310001 	addiu	s1,s1,1
9d007b78:	24420001 	addiu	v0,v0,1
9d007b7c:	afa201b0 	sw	v0,432(sp)
9d007b80:	8e02003c 	lw	v0,60(s0)
9d007b84:	8e03004c 	lw	v1,76(s0)
9d007b88:	0043182b 	sltu	v1,v0,v1
9d007b8c:	10600018 	beqz	v1,9d007bf0 <__scanf_core+0x728>
9d007b90:	0220b825 	move	s7,s1
9d007b94:	24430001 	addiu	v1,v0,1
9d007b98:	ae03003c 	sw	v1,60(s0)
9d007b9c:	90530000 	lbu	s3,0(v0)
9d007ba0:	27a20018 	addiu	v0,sp,24
9d007ba4:	00531021 	addu	v0,v0,s3
9d007ba8:	90420001 	lbu	v0,1(v0)
9d007bac:	1440ffef 	bnez	v0,9d007b6c <__scanf_core+0x6a4>
9d007bb0:	02911021 	addu	v0,s4,s1
9d007bb4:	8e02004c 	lw	v0,76(s0)
9d007bb8:	10400005 	beqz	v0,9d007bd0 <__scanf_core+0x708>
9d007bbc:	8fa201b4 	lw	v0,436(sp)
9d007bc0:	8e02003c 	lw	v0,60(s0)
9d007bc4:	2442ffff 	addiu	v0,v0,-1
9d007bc8:	ae02003c 	sw	v0,60(s0)
9d007bcc:	8fa201b4 	lw	v0,436(sp)
9d007bd0:	24420001 	addiu	v0,v0,1
9d007bd4:	12e0fe8f 	beqz	s7,9d007614 <__scanf_core+0x14c>
9d007bd8:	afa201b4 	sw	v0,436(sp)
9d007bdc:	1280fe8d 	beqz	s4,9d007614 <__scanf_core+0x14c>
9d007be0:	24110001 	li	s1,1
9d007be4:	0297a021 	addu	s4,s4,s7
9d007be8:	1000ff3b 	b	9d0078d8 <__scanf_core+0x410>
9d007bec:	a2800000 	sb	zero,0(s4)
9d007bf0:	0f402b49 	jal	9d00ad24 <__shgetc>
9d007bf4:	02002025 	move	a0,s0
9d007bf8:	1000ffe9 	b	9d007ba0 <__scanf_core+0x6d8>
9d007bfc:	00409825 	move	s3,v0
9d007c00:	8fa201b0 	lw	v0,432(sp)
9d007c04:	24420001 	addiu	v0,v0,1
9d007c08:	1000ffa7 	b	9d007aa8 <__scanf_core+0x5e0>
9d007c0c:	afa201b0 	sw	v0,432(sp)
9d007c10:	0f402b49 	jal	9d00ad24 <__shgetc>
9d007c14:	02002025 	move	a0,s0
9d007c18:	1000ffaa 	b	9d007ac4 <__scanf_core+0x5fc>
9d007c1c:	00409825 	move	s3,v0

Disassembly of section .text.__intscan:

9d007c20 <__intscan>:
9d007c20:	27bdffb8 	addiu	sp,sp,-72
9d007c24:	8fa2005c 	lw	v0,92(sp)
9d007c28:	afb20028 	sw	s2,40(sp)
9d007c2c:	afbf0044 	sw	ra,68(sp)
9d007c30:	afa20010 	sw	v0,16(sp)
9d007c34:	2ca20025 	sltiu	v0,a1,37
9d007c38:	afbe0040 	sw	s8,64(sp)
9d007c3c:	afb7003c 	sw	s7,60(sp)
9d007c40:	afb60038 	sw	s6,56(sp)
9d007c44:	afb50034 	sw	s5,52(sp)
9d007c48:	afb40030 	sw	s4,48(sp)
9d007c4c:	afb3002c 	sw	s3,44(sp)
9d007c50:	afb10024 	sw	s1,36(sp)
9d007c54:	afb00020 	sw	s0,32(sp)
9d007c58:	10400006 	beqz	v0,9d007c74 <__intscan+0x54>
9d007c5c:	8fb20058 	lw	s2,88(sp)
9d007c60:	24020001 	li	v0,1
9d007c64:	00808025 	move	s0,a0
9d007c68:	00a08825 	move	s1,a1
9d007c6c:	14a20005 	bne	a1,v0,9d007c84 <__intscan+0x64>
9d007c70:	00c09825 	move	s3,a2
9d007c74:	3c02a000 	lui	v0,0xa000
9d007c78:	24030016 	li	v1,22
9d007c7c:	1000005a 	b	9d007de8 <__intscan+0x1c8>
9d007c80:	ac430160 	sw	v1,352(v0)
9d007c84:	8e02003c 	lw	v0,60(s0)
9d007c88:	8e03004c 	lw	v1,76(s0)
9d007c8c:	0043182b 	sltu	v1,v0,v1
9d007c90:	1060002b 	beqz	v1,9d007d40 <__intscan+0x120>
9d007c94:	24430001 	addiu	v1,v0,1
9d007c98:	ae03003c 	sw	v1,60(s0)
9d007c9c:	90490000 	lbu	t1,0(v0)
9d007ca0:	24020020 	li	v0,32
9d007ca4:	1122fff7 	beq	t1,v0,9d007c84 <__intscan+0x64>
9d007ca8:	2522fff7 	addiu	v0,t1,-9
9d007cac:	2c420005 	sltiu	v0,v0,5
9d007cb0:	1440fff4 	bnez	v0,9d007c84 <__intscan+0x64>
9d007cb4:	2522ffd5 	addiu	v0,t1,-43
9d007cb8:	7c020844 	ins	v0,zero,0x1,0x1
9d007cbc:	1440000b 	bnez	v0,9d007cec <__intscan+0xcc>
9d007cc0:	0000a025 	move	s4,zero
9d007cc4:	8e02003c 	lw	v0,60(s0)
9d007cc8:	8e03004c 	lw	v1,76(s0)
9d007ccc:	3934002d 	xori	s4,t1,0x2d
9d007cd0:	2e940001 	sltiu	s4,s4,1
9d007cd4:	0043182b 	sltu	v1,v0,v1
9d007cd8:	1060001d 	beqz	v1,9d007d50 <__intscan+0x130>
9d007cdc:	0014a023 	negu	s4,s4
9d007ce0:	24430001 	addiu	v1,v0,1
9d007ce4:	ae03003c 	sw	v1,60(s0)
9d007ce8:	90490000 	lbu	t1,0(v0)
9d007cec:	1220001c 	beqz	s1,9d007d60 <__intscan+0x140>
9d007cf0:	8e03004c 	lw	v1,76(s0)
9d007cf4:	24020010 	li	v0,16
9d007cf8:	12220185 	beq	s1,v0,9d008310 <__intscan+0x6f0>
9d007cfc:	24020030 	li	v0,48
9d007d00:	3c029d01 	lui	v0,0x9d01
9d007d04:	2442a491 	addiu	v0,v0,-23407
9d007d08:	01221021 	addu	v0,t1,v0
9d007d0c:	90420000 	lbu	v0,0(v0)
9d007d10:	0051102b 	sltu	v0,v0,s1
9d007d14:	14400055 	bnez	v0,9d007e6c <__intscan+0x24c>
9d007d18:	2402000a 	li	v0,10
9d007d1c:	10600004 	beqz	v1,9d007d30 <__intscan+0x110>
9d007d20:	00002825 	move	a1,zero
9d007d24:	8e02003c 	lw	v0,60(s0)
9d007d28:	2442ffff 	addiu	v0,v0,-1
9d007d2c:	ae02003c 	sw	v0,60(s0)
9d007d30:	0f40304a 	jal	9d00c128 <__shlim>
9d007d34:	02002025 	move	a0,s0
9d007d38:	1000ffcf 	b	9d007c78 <__intscan+0x58>
9d007d3c:	3c02a000 	lui	v0,0xa000
9d007d40:	0f402b49 	jal	9d00ad24 <__shgetc>
9d007d44:	02002025 	move	a0,s0
9d007d48:	1000ffd5 	b	9d007ca0 <__intscan+0x80>
9d007d4c:	00404825 	move	t1,v0
9d007d50:	0f402b49 	jal	9d00ad24 <__shgetc>
9d007d54:	02002025 	move	a0,s0
9d007d58:	1000ffe4 	b	9d007cec <__intscan+0xcc>
9d007d5c:	00404825 	move	t1,v0
9d007d60:	24020030 	li	v0,48
9d007d64:	5522ffe6 	bnel	t1,v0,9d007d00 <__intscan+0xe0>
9d007d68:	2411000a 	li	s1,10
9d007d6c:	8e02003c 	lw	v0,60(s0)
9d007d70:	0043182b 	sltu	v1,v0,v1
9d007d74:	1060002c 	beqz	v1,9d007e28 <__intscan+0x208>
9d007d78:	24430001 	addiu	v1,v0,1
9d007d7c:	ae03003c 	sw	v1,60(s0)
9d007d80:	90490000 	lbu	t1,0(v0)
9d007d84:	35220020 	ori	v0,t1,0x20
9d007d88:	24030078 	li	v1,120
9d007d8c:	14430035 	bne	v0,v1,9d007e64 <__intscan+0x244>
9d007d90:	00000000 	nop
9d007d94:	8e02003c 	lw	v0,60(s0)
9d007d98:	8e03004c 	lw	v1,76(s0)
9d007d9c:	0043182b 	sltu	v1,v0,v1
9d007da0:	10600025 	beqz	v1,9d007e38 <__intscan+0x218>
9d007da4:	24430001 	addiu	v1,v0,1
9d007da8:	ae03003c 	sw	v1,60(s0)
9d007dac:	90490000 	lbu	t1,0(v0)
9d007db0:	3c029d01 	lui	v0,0x9d01
9d007db4:	2442a491 	addiu	v0,v0,-23407
9d007db8:	01221021 	addu	v0,t1,v0
9d007dbc:	90420000 	lbu	v0,0(v0)
9d007dc0:	2c420010 	sltiu	v0,v0,16
9d007dc4:	5440002b 	bnezl	v0,9d007e74 <__intscan+0x254>
9d007dc8:	24110010 	li	s1,16
9d007dcc:	8e02004c 	lw	v0,76(s0)
9d007dd0:	1040014b 	beqz	v0,9d008300 <__intscan+0x6e0>
9d007dd4:	00003825 	move	a3,zero
9d007dd8:	1260001b 	beqz	s3,9d007e48 <__intscan+0x228>
9d007ddc:	8e02003c 	lw	v0,60(s0)
9d007de0:	2442fffe 	addiu	v0,v0,-2
9d007de4:	ae02003c 	sw	v0,60(s0)
9d007de8:	00003825 	move	a3,zero
9d007dec:	0000f025 	move	s8,zero
9d007df0:	8fbf0044 	lw	ra,68(sp)
9d007df4:	03c01825 	move	v1,s8
9d007df8:	00e01025 	move	v0,a3
9d007dfc:	8fbe0040 	lw	s8,64(sp)
9d007e00:	8fb7003c 	lw	s7,60(sp)
9d007e04:	8fb60038 	lw	s6,56(sp)
9d007e08:	8fb50034 	lw	s5,52(sp)
9d007e0c:	8fb40030 	lw	s4,48(sp)
9d007e10:	8fb3002c 	lw	s3,44(sp)
9d007e14:	8fb20028 	lw	s2,40(sp)
9d007e18:	8fb10024 	lw	s1,36(sp)
9d007e1c:	8fb00020 	lw	s0,32(sp)
9d007e20:	03e00008 	jr	ra
9d007e24:	27bd0048 	addiu	sp,sp,72
9d007e28:	0f402b49 	jal	9d00ad24 <__shgetc>
9d007e2c:	02002025 	move	a0,s0
9d007e30:	1000ffd4 	b	9d007d84 <__intscan+0x164>
9d007e34:	00404825 	move	t1,v0
9d007e38:	0f402b49 	jal	9d00ad24 <__shgetc>
9d007e3c:	02002025 	move	a0,s0
9d007e40:	1000ffdb 	b	9d007db0 <__intscan+0x190>
9d007e44:	00404825 	move	t1,v0
9d007e48:	2442ffff 	addiu	v0,v0,-1
9d007e4c:	ae02003c 	sw	v0,60(s0)
9d007e50:	00002825 	move	a1,zero
9d007e54:	0f40304a 	jal	9d00c128 <__shlim>
9d007e58:	02002025 	move	a0,s0
9d007e5c:	1000ffe3 	b	9d007dec <__intscan+0x1cc>
9d007e60:	00003825 	move	a3,zero
9d007e64:	12200083 	beqz	s1,9d008074 <__intscan+0x454>
9d007e68:	2402000a 	li	v0,10
9d007e6c:	1222007a 	beq	s1,v0,9d008058 <__intscan+0x438>
9d007e70:	3c151999 	lui	s5,0x1999
9d007e74:	2627ffff 	addiu	a3,s1,-1
9d007e78:	3c139d01 	lui	s3,0x9d01
9d007e7c:	00f1a824 	and	s5,a3,s1
9d007e80:	16a000f5 	bnez	s5,9d008258 <__intscan+0x638>
9d007e84:	2673a491 	addiu	s3,s3,-23407
9d007e88:	24020017 	li	v0,23
9d007e8c:	72221002 	mul	v0,s1,v0
9d007e90:	3c039d01 	lui	v1,0x9d01
9d007e94:	2463a484 	addiu	v1,v1,-23420
9d007e98:	7c421140 	ext	v0,v0,0x5,0x3
9d007e9c:	00431021 	addu	v0,v0,v1
9d007ea0:	80560000 	lb	s6,0(v0)
9d007ea4:	02691021 	addu	v0,s3,t1
9d007ea8:	90570000 	lbu	s7,0(v0)
9d007eac:	02f1102b 	sltu	v0,s7,s1
9d007eb0:	10400004 	beqz	v0,9d007ec4 <__intscan+0x2a4>
9d007eb4:	3c020800 	lui	v0,0x800
9d007eb8:	02a2102b 	sltu	v0,s5,v0
9d007ebc:	5440006f 	bnezl	v0,9d00807c <__intscan+0x45c>
9d007ec0:	8e02003c 	lw	v0,60(s0)
9d007ec4:	02c03025 	move	a2,s6
9d007ec8:	2404ffff 	li	a0,-1
9d007ecc:	2405ffff 	li	a1,-1
9d007ed0:	afa9001c 	sw	t1,28(sp)
9d007ed4:	0f402fce 	jal	9d00bf38 <__lshrdi3>
9d007ed8:	afb50018 	sw	s5,24(sp)
9d007edc:	8fa70018 	lw	a3,24(sp)
9d007ee0:	8fa9001c 	lw	t1,28(sp)
9d007ee4:	0000f025 	move	s8,zero
9d007ee8:	afa20014 	sw	v0,20(sp)
9d007eec:	0060a825 	move	s5,v1
9d007ef0:	02691021 	addu	v0,s3,t1
9d007ef4:	90570000 	lbu	s7,0(v0)
9d007ef8:	02f1102b 	sltu	v0,s7,s1
9d007efc:	1040009e 	beqz	v0,9d008178 <__intscan+0x558>
9d007f00:	02be102b 	sltu	v0,s5,s8
9d007f04:	5440009d 	bnezl	v0,9d00817c <__intscan+0x55c>
9d007f08:	3c139d01 	lui	s3,0x9d01
9d007f0c:	17d50004 	bne	s8,s5,9d007f20 <__intscan+0x300>
9d007f10:	8fa20014 	lw	v0,20(sp)
9d007f14:	0047102b 	sltu	v0,v0,a3
9d007f18:	54400098 	bnezl	v0,9d00817c <__intscan+0x55c>
9d007f1c:	3c139d01 	lui	s3,0x9d01
9d007f20:	8e02003c 	lw	v0,60(s0)
9d007f24:	8e03004c 	lw	v1,76(s0)
9d007f28:	0043182b 	sltu	v1,v0,v1
9d007f2c:	10600060 	beqz	v1,9d0080b0 <__intscan+0x490>
9d007f30:	24430001 	addiu	v1,v0,1
9d007f34:	ae03003c 	sw	v1,60(s0)
9d007f38:	90490000 	lbu	t1,0(v0)
9d007f3c:	00e02025 	move	a0,a3
9d007f40:	03c02825 	move	a1,s8
9d007f44:	02c03025 	move	a2,s6
9d007f48:	0f402fdd 	jal	9d00bf74 <__ashldi3>
9d007f4c:	afa90018 	sw	t1,24(sp)
9d007f50:	02e23825 	or	a3,s7,v0
9d007f54:	0060f025 	move	s8,v1
9d007f58:	1000ffe5 	b	9d007ef0 <__intscan+0x2d0>
9d007f5c:	8fa90018 	lw	t1,24(sp)
9d007f60:	8e03004c 	lw	v1,76(s0)
9d007f64:	0043182b 	sltu	v1,v0,v1
9d007f68:	10600036 	beqz	v1,9d008044 <__intscan+0x424>
9d007f6c:	24430001 	addiu	v1,v0,1
9d007f70:	ae03003c 	sw	v1,60(s0)
9d007f74:	90420000 	lbu	v0,0(v0)
9d007f78:	2407000a 	li	a3,10
9d007f7c:	72671802 	mul	v1,s3,a3
9d007f80:	00693821 	addu	a3,v1,t1
9d007f84:	24f3ffd0 	addiu	s3,a3,-48
9d007f88:	00404825 	move	t1,v0
9d007f8c:	2522ffd0 	addiu	v0,t1,-48
9d007f90:	2c42000a 	sltiu	v0,v0,10
9d007f94:	10400003 	beqz	v0,9d007fa4 <__intscan+0x384>
9d007f98:	0275102b 	sltu	v0,s3,s5
9d007f9c:	5440fff0 	bnezl	v0,9d007f60 <__intscan+0x340>
9d007fa0:	8e02003c 	lw	v0,60(s0)
9d007fa4:	3c151999 	lui	s5,0x1999
9d007fa8:	02603825 	move	a3,s3
9d007fac:	0000f025 	move	s8,zero
9d007fb0:	36b5999a 	ori	s5,s5,0x999a
9d007fb4:	2533ffd0 	addiu	s3,t1,-48
9d007fb8:	2e62000a 	sltiu	v0,s3,10
9d007fbc:	10400087 	beqz	v0,9d0081dc <__intscan+0x5bc>
9d007fc0:	03d5102b 	sltu	v0,s8,s5
9d007fc4:	1040006c 	beqz	v0,9d008178 <__intscan+0x558>
9d007fc8:	26a2ffff 	addiu	v0,s5,-1
9d007fcc:	17c20006 	bne	s8,v0,9d007fe8 <__intscan+0x3c8>
9d007fd0:	2402000a 	li	v0,10
9d007fd4:	3c029999 	lui	v0,0x9999
9d007fd8:	3442999a 	ori	v0,v0,0x999a
9d007fdc:	00e2102b 	sltu	v0,a3,v0
9d007fe0:	10400065 	beqz	v0,9d008178 <__intscan+0x558>
9d007fe4:	2402000a 	li	v0,10
9d007fe8:	00470019 	multu	v0,a3
9d007fec:	0000b810 	mfhi	s7
9d007ff0:	0000b012 	mflo	s6
9d007ff4:	705e1802 	mul	v1,v0,s8
9d007ff8:	0077b821 	addu	s7,v1,s7
9d007ffc:	2403ffff 	li	v1,-1
9d008000:	16e30004 	bne	s7,v1,9d008014 <__intscan+0x3f4>
9d008004:	00131027 	nor	v0,zero,s3
9d008008:	0056102b 	sltu	v0,v0,s6
9d00800c:	5440005b 	bnezl	v0,9d00817c <__intscan+0x55c>
9d008010:	3c139d01 	lui	s3,0x9d01
9d008014:	8e02003c 	lw	v0,60(s0)
9d008018:	8e03004c 	lw	v1,76(s0)
9d00801c:	0043182b 	sltu	v1,v0,v1
9d008020:	10600010 	beqz	v1,9d008064 <__intscan+0x444>
9d008024:	00000000 	nop
9d008028:	24430001 	addiu	v1,v0,1
9d00802c:	ae03003c 	sw	v1,60(s0)
9d008030:	90490000 	lbu	t1,0(v0)
9d008034:	02763821 	addu	a3,s3,s6
9d008038:	00f6402b 	sltu	t0,a3,s6
9d00803c:	1000ffdd 	b	9d007fb4 <__intscan+0x394>
9d008040:	0117f021 	addu	s8,t0,s7
9d008044:	02002025 	move	a0,s0
9d008048:	0f402b49 	jal	9d00ad24 <__shgetc>
9d00804c:	afa90014 	sw	t1,20(sp)
9d008050:	1000ffc9 	b	9d007f78 <__intscan+0x358>
9d008054:	8fa90014 	lw	t1,20(sp)
9d008058:	00009825 	move	s3,zero
9d00805c:	1000ffcb 	b	9d007f8c <__intscan+0x36c>
9d008060:	36b59999 	ori	s5,s5,0x9999
9d008064:	0f402b49 	jal	9d00ad24 <__shgetc>
9d008068:	02002025 	move	a0,s0
9d00806c:	1000fff1 	b	9d008034 <__intscan+0x414>
9d008070:	00404825 	move	t1,v0
9d008074:	1000ff7f 	b	9d007e74 <__intscan+0x254>
9d008078:	24110008 	li	s1,8
9d00807c:	8e03004c 	lw	v1,76(s0)
9d008080:	0043182b 	sltu	v1,v0,v1
9d008084:	10600006 	beqz	v1,9d0080a0 <__intscan+0x480>
9d008088:	24430001 	addiu	v1,v0,1
9d00808c:	ae03003c 	sw	v1,60(s0)
9d008090:	90490000 	lbu	t1,0(v0)
9d008094:	02d53804 	sllv	a3,s5,s6
9d008098:	1000ff82 	b	9d007ea4 <__intscan+0x284>
9d00809c:	00f7a825 	or	s5,a3,s7
9d0080a0:	0f402b49 	jal	9d00ad24 <__shgetc>
9d0080a4:	02002025 	move	a0,s0
9d0080a8:	1000fffa 	b	9d008094 <__intscan+0x474>
9d0080ac:	00404825 	move	t1,v0
9d0080b0:	02002025 	move	a0,s0
9d0080b4:	0f402b49 	jal	9d00ad24 <__shgetc>
9d0080b8:	afa70018 	sw	a3,24(sp)
9d0080bc:	00404825 	move	t1,v0
9d0080c0:	1000ff9e 	b	9d007f3c <__intscan+0x31c>
9d0080c4:	8fa70018 	lw	a3,24(sp)
9d0080c8:	8e03004c 	lw	v1,76(s0)
9d0080cc:	0043182b 	sltu	v1,v0,v1
9d0080d0:	1060005d 	beqz	v1,9d008248 <__intscan+0x628>
9d0080d4:	24430001 	addiu	v1,v0,1
9d0080d8:	ae03003c 	sw	v1,60(s0)
9d0080dc:	90490000 	lbu	t1,0(v0)
9d0080e0:	72351002 	mul	v0,s1,s5
9d0080e4:	0056a821 	addu	s5,v0,s6
9d0080e8:	02691021 	addu	v0,s3,t1
9d0080ec:	90560000 	lbu	s6,0(v0)
9d0080f0:	02d1102b 	sltu	v0,s6,s1
9d0080f4:	10400005 	beqz	v0,9d00810c <__intscan+0x4ec>
9d0080f8:	3c02071c 	lui	v0,0x71c
9d0080fc:	244271c7 	addiu	v0,v0,29127
9d008100:	02a2102b 	sltu	v0,s5,v0
9d008104:	5440fff0 	bnezl	v0,9d0080c8 <__intscan+0x4a8>
9d008108:	8e02003c 	lw	v0,60(s0)
9d00810c:	02a03825 	move	a3,s5
9d008110:	0000f025 	move	s8,zero
9d008114:	02691021 	addu	v0,s3,t1
9d008118:	90550000 	lbu	s5,0(v0)
9d00811c:	02b1102b 	sltu	v0,s5,s1
9d008120:	10400015 	beqz	v0,9d008178 <__intscan+0x558>
9d008124:	00f10019 	multu	a3,s1
9d008128:	00002012 	mflo	a0
9d00812c:	13c00009 	beqz	s8,9d008154 <__intscan+0x534>
9d008130:	00002810 	mfhi	a1
9d008134:	023e0019 	multu	s1,s8
9d008138:	00006012 	mflo	t4
9d00813c:	00ac1021 	addu	v0,a1,t4
9d008140:	004c102b 	sltu	v0,v0,t4
9d008144:	00006810 	mfhi	t5
9d008148:	004d1021 	addu	v0,v0,t5
9d00814c:	5440000b 	bnezl	v0,9d00817c <__intscan+0x55c>
9d008150:	3c139d01 	lui	s3,0x9d01
9d008154:	73d11002 	mul	v0,s8,s1
9d008158:	2403ffff 	li	v1,-1
9d00815c:	0080b025 	move	s6,a0
9d008160:	0045b821 	addu	s7,v0,a1
9d008164:	16e3003e 	bne	s7,v1,9d008260 <__intscan+0x640>
9d008168:	00151027 	nor	v0,zero,s5
9d00816c:	0044102b 	sltu	v0,v0,a0
9d008170:	5040003c 	beqzl	v0,9d008264 <__intscan+0x644>
9d008174:	8e02003c 	lw	v0,60(s0)
9d008178:	3c139d01 	lui	s3,0x9d01
9d00817c:	2673a491 	addiu	s3,s3,-23407
9d008180:	01334821 	addu	t1,t1,s3
9d008184:	91220000 	lbu	v0,0(t1)
9d008188:	0051102b 	sltu	v0,v0,s1
9d00818c:	50400014 	beqzl	v0,9d0081e0 <__intscan+0x5c0>
9d008190:	8e02004c 	lw	v0,76(s0)
9d008194:	8e02003c 	lw	v0,60(s0)
9d008198:	8e03004c 	lw	v1,76(s0)
9d00819c:	0043182b 	sltu	v1,v0,v1
9d0081a0:	1060003e 	beqz	v1,9d00829c <__intscan+0x67c>
9d0081a4:	24430001 	addiu	v1,v0,1
9d0081a8:	ae03003c 	sw	v1,60(s0)
9d0081ac:	90420000 	lbu	v0,0(v0)
9d0081b0:	02621021 	addu	v0,s3,v0
9d0081b4:	90420000 	lbu	v0,0(v0)
9d0081b8:	0051102b 	sltu	v0,v0,s1
9d0081bc:	1440fff5 	bnez	v0,9d008194 <__intscan+0x574>
9d0081c0:	3c02a000 	lui	v0,0xa000
9d0081c4:	24030022 	li	v1,34
9d0081c8:	8fbe0010 	lw	s8,16(sp)
9d0081cc:	ac430160 	sw	v1,352(v0)
9d0081d0:	32420001 	andi	v0,s2,0x1
9d0081d4:	02403825 	move	a3,s2
9d0081d8:	0002a00b 	movn	s4,zero,v0
9d0081dc:	8e02004c 	lw	v0,76(s0)
9d0081e0:	10400005 	beqz	v0,9d0081f8 <__intscan+0x5d8>
9d0081e4:	8fa20010 	lw	v0,16(sp)
9d0081e8:	8e02003c 	lw	v0,60(s0)
9d0081ec:	2442ffff 	addiu	v0,v0,-1
9d0081f0:	ae02003c 	sw	v0,60(s0)
9d0081f4:	8fa20010 	lw	v0,16(sp)
9d0081f8:	03c2102b 	sltu	v0,s8,v0
9d0081fc:	14400039 	bnez	v0,9d0082e4 <__intscan+0x6c4>
9d008200:	8fa20010 	lw	v0,16(sp)
9d008204:	145e0003 	bne	v0,s8,9d008214 <__intscan+0x5f4>
9d008208:	00f2102b 	sltu	v0,a3,s2
9d00820c:	14400036 	bnez	v0,9d0082e8 <__intscan+0x6c8>
9d008210:	2402ffff 	li	v0,-1
9d008214:	32420001 	andi	v0,s2,0x1
9d008218:	14400025 	bnez	v0,9d0082b0 <__intscan+0x690>
9d00821c:	8fa20010 	lw	v0,16(sp)
9d008220:	16800022 	bnez	s4,9d0082ac <__intscan+0x68c>
9d008224:	3c02a000 	lui	v0,0xa000
9d008228:	24030022 	li	v1,34
9d00822c:	ac430160 	sw	v1,352(v0)
9d008230:	8fa20010 	lw	v0,16(sp)
9d008234:	2647ffff 	addiu	a3,s2,-1
9d008238:	00f2902b 	sltu	s2,a3,s2
9d00823c:	2451ffff 	addiu	s1,v0,-1
9d008240:	1000feeb 	b	9d007df0 <__intscan+0x1d0>
9d008244:	0251f021 	addu	s8,s2,s1
9d008248:	0f402b49 	jal	9d00ad24 <__shgetc>
9d00824c:	02002025 	move	a0,s0
9d008250:	1000ffa3 	b	9d0080e0 <__intscan+0x4c0>
9d008254:	00404825 	move	t1,v0
9d008258:	1000ffa3 	b	9d0080e8 <__intscan+0x4c8>
9d00825c:	0000a825 	move	s5,zero
9d008260:	8e02003c 	lw	v0,60(s0)
9d008264:	8e03004c 	lw	v1,76(s0)
9d008268:	0043182b 	sltu	v1,v0,v1
9d00826c:	10600007 	beqz	v1,9d00828c <__intscan+0x66c>
9d008270:	24430001 	addiu	v1,v0,1
9d008274:	ae03003c 	sw	v1,60(s0)
9d008278:	90490000 	lbu	t1,0(v0)
9d00827c:	02b63821 	addu	a3,s5,s6
9d008280:	00f6402b 	sltu	t0,a3,s6
9d008284:	1000ffa3 	b	9d008114 <__intscan+0x4f4>
9d008288:	0117f021 	addu	s8,t0,s7
9d00828c:	0f402b49 	jal	9d00ad24 <__shgetc>
9d008290:	02002025 	move	a0,s0
9d008294:	1000fff9 	b	9d00827c <__intscan+0x65c>
9d008298:	00404825 	move	t1,v0
9d00829c:	0f402b49 	jal	9d00ad24 <__shgetc>
9d0082a0:	02002025 	move	a0,s0
9d0082a4:	1000ffc3 	b	9d0081b4 <__intscan+0x594>
9d0082a8:	02621021 	addu	v0,s3,v0
9d0082ac:	8fa20010 	lw	v0,16(sp)
9d0082b0:	005e102b 	sltu	v0,v0,s8
9d0082b4:	14400005 	bnez	v0,9d0082cc <__intscan+0x6ac>
9d0082b8:	8fa20010 	lw	v0,16(sp)
9d0082bc:	17c20009 	bne	s8,v0,9d0082e4 <__intscan+0x6c4>
9d0082c0:	0247102b 	sltu	v0,s2,a3
9d0082c4:	10400008 	beqz	v0,9d0082e8 <__intscan+0x6c8>
9d0082c8:	2402ffff 	li	v0,-1
9d0082cc:	3c02a000 	lui	v0,0xa000
9d0082d0:	24030022 	li	v1,34
9d0082d4:	ac430160 	sw	v1,352(v0)
9d0082d8:	02403825 	move	a3,s2
9d0082dc:	1000fec4 	b	9d007df0 <__intscan+0x1d0>
9d0082e0:	8fbe0010 	lw	s8,16(sp)
9d0082e4:	2402ffff 	li	v0,-1
9d0082e8:	1682fec1 	bne	s4,v0,9d007df0 <__intscan+0x1d0>
9d0082ec:	001e4023 	negu	t0,s8
9d0082f0:	00073823 	negu	a3,a3
9d0082f4:	0007102b 	sltu	v0,zero,a3
9d0082f8:	1000febd 	b	9d007df0 <__intscan+0x1d0>
9d0082fc:	0102f023 	subu	s8,t0,v0
9d008300:	1660febb 	bnez	s3,9d007df0 <__intscan+0x1d0>
9d008304:	0000f025 	move	s8,zero
9d008308:	1000fed2 	b	9d007e54 <__intscan+0x234>
9d00830c:	00002825 	move	a1,zero
9d008310:	1122fe96 	beq	t1,v0,9d007d6c <__intscan+0x14c>
9d008314:	3c029d01 	lui	v0,0x9d01
9d008318:	1000fe7b 	b	9d007d08 <__intscan+0xe8>
9d00831c:	2442a491 	addiu	v0,v0,-23407

Disassembly of section .text.__printf_core:

9d008320 <__printf_core>:
9d008320:	27bdff18 	addiu	sp,sp,-232
9d008324:	afb400dc 	sw	s4,220(sp)
9d008328:	afb300d8 	sw	s3,216(sp)
9d00832c:	afb200d4 	sw	s2,212(sp)
9d008330:	afb100d0 	sw	s1,208(sp)
9d008334:	afbf00e4 	sw	ra,228(sp)
9d008338:	afb500e0 	sw	s5,224(sp)
9d00833c:	afb000cc 	sw	s0,204(sp)
9d008340:	00809025 	move	s2,a0
9d008344:	00c08825 	move	s1,a2
9d008348:	afa500b8 	sw	a1,184(sp)
9d00834c:	00009825 	move	s3,zero
9d008350:	3c149d00 	lui	s4,0x9d00
9d008354:	8fa500b8 	lw	a1,184(sp)
9d008358:	80a20000 	lb	v0,0(a1)
9d00835c:	104000e4 	beqz	v0,9d0086f0 <__printf_core+0x3d0>
9d008360:	2402ffff 	li	v0,-1
9d008364:	afa2009c 	sw	v0,156(sp)
9d008368:	27a20018 	addiu	v0,sp,24
9d00836c:	afa200a4 	sw	v0,164(sp)
9d008370:	24020080 	li	v0,128
9d008374:	afa00098 	sw	zero,152(sp)
9d008378:	afa000a0 	sw	zero,160(sp)
9d00837c:	afa200a8 	sw	v0,168(sp)
9d008380:	00008025 	move	s0,zero
9d008384:	24030025 	li	v1,37
9d008388:	00b01021 	addu	v0,a1,s0
9d00838c:	80420000 	lb	v0,0(v0)
9d008390:	10400003 	beqz	v0,9d0083a0 <__printf_core+0x80>
9d008394:	00000000 	nop
9d008398:	5443fffb 	bnel	v0,v1,9d008388 <__printf_core+0x68>
9d00839c:	26100001 	addiu	s0,s0,1
9d0083a0:	12000006 	beqz	s0,9d0083bc <__printf_core+0x9c>
9d0083a4:	02003025 	move	a2,s0
9d0083a8:	0f402cb3 	jal	9d00b2cc <__out>
9d0083ac:	02402025 	move	a0,s2
9d0083b0:	8fa200b8 	lw	v0,184(sp)
9d0083b4:	00501021 	addu	v0,v0,s0
9d0083b8:	afa200b8 	sw	v0,184(sp)
9d0083bc:	8fb500b8 	lw	s5,184(sp)
9d0083c0:	24020025 	li	v0,37
9d0083c4:	82a30000 	lb	v1,0(s5)
9d0083c8:	146200c2 	bne	v1,v0,9d0086d4 <__printf_core+0x3b4>
9d0083cc:	26b50001 	addiu	s5,s5,1
9d0083d0:	afb500b8 	sw	s5,184(sp)
9d0083d4:	2405002b 	li	a1,43
9d0083d8:	2406002d 	li	a2,45
9d0083dc:	24030030 	li	v1,48
9d0083e0:	24070020 	li	a3,32
9d0083e4:	24080023 	li	t0,35
9d0083e8:	8fa400b8 	lw	a0,184(sp)
9d0083ec:	80820000 	lb	v0,0(a0)
9d0083f0:	5045001b 	beql	v0,a1,9d008460 <__printf_core+0x140>
9d0083f4:	8fa20098 	lw	v0,152(sp)
9d0083f8:	2849002c 	slti	t1,v0,44
9d0083fc:	1120001e 	beqz	t1,9d008478 <__printf_core+0x158>
9d008400:	00000000 	nop
9d008404:	50470018 	beql	v0,a3,9d008468 <__printf_core+0x148>
9d008408:	8fa20098 	lw	v0,152(sp)
9d00840c:	50480018 	beql	v0,t0,9d008470 <__printf_core+0x150>
9d008410:	8fa20098 	lw	v0,152(sp)
9d008414:	2403002a 	li	v1,42
9d008418:	5043001e 	beql	v0,v1,9d008494 <__printf_core+0x174>
9d00841c:	8e220000 	lw	v0,0(s1)
9d008420:	0f402d7d 	jal	9d00b5f4 <atoi>
9d008424:	00000000 	nop
9d008428:	afa200a0 	sw	v0,160(sp)
9d00842c:	8fa300b8 	lw	v1,184(sp)
9d008430:	80620000 	lb	v0,0(v1)
9d008434:	2442ffd0 	addiu	v0,v0,-48
9d008438:	2c42000a 	sltiu	v0,v0,10
9d00843c:	10400021 	beqz	v0,9d0084c4 <__printf_core+0x1a4>
9d008440:	24630001 	addiu	v1,v1,1
9d008444:	1000fff9 	b	9d00842c <__printf_core+0x10c>
9d008448:	afa300b8 	sw	v1,184(sp)
9d00844c:	34420001 	ori	v0,v0,0x1
9d008450:	24840001 	addiu	a0,a0,1
9d008454:	afa20098 	sw	v0,152(sp)
9d008458:	1000ffe3 	b	9d0083e8 <__printf_core+0xc8>
9d00845c:	afa400b8 	sw	a0,184(sp)
9d008460:	1000fffb 	b	9d008450 <__printf_core+0x130>
9d008464:	34420004 	ori	v0,v0,0x4
9d008468:	1000fff9 	b	9d008450 <__printf_core+0x130>
9d00846c:	34420008 	ori	v0,v0,0x8
9d008470:	1000fff7 	b	9d008450 <__printf_core+0x130>
9d008474:	34420010 	ori	v0,v0,0x10
9d008478:	5046fff4 	beql	v0,a2,9d00844c <__printf_core+0x12c>
9d00847c:	8fa20098 	lw	v0,152(sp)
9d008480:	5443ffe5 	bnel	v0,v1,9d008418 <__printf_core+0xf8>
9d008484:	2403002a 	li	v1,42
9d008488:	8fa20098 	lw	v0,152(sp)
9d00848c:	1000fff0 	b	9d008450 <__printf_core+0x130>
9d008490:	34420002 	ori	v0,v0,0x2
9d008494:	24840001 	addiu	a0,a0,1
9d008498:	afa400b8 	sw	a0,184(sp)
9d00849c:	24430004 	addiu	v1,v0,4
9d0084a0:	8c420000 	lw	v0,0(v0)
9d0084a4:	ae230000 	sw	v1,0(s1)
9d0084a8:	04410006 	bgez	v0,9d0084c4 <__printf_core+0x1a4>
9d0084ac:	afa200a0 	sw	v0,160(sp)
9d0084b0:	8fa30098 	lw	v1,152(sp)
9d0084b4:	00021023 	negu	v0,v0
9d0084b8:	afa200a0 	sw	v0,160(sp)
9d0084bc:	38630001 	xori	v1,v1,0x1
9d0084c0:	afa30098 	sw	v1,152(sp)
9d0084c4:	8fa20098 	lw	v0,152(sp)
9d0084c8:	30430001 	andi	v1,v0,0x1
9d0084cc:	10600002 	beqz	v1,9d0084d8 <__printf_core+0x1b8>
9d0084d0:	7c020844 	ins	v0,zero,0x1,0x1
9d0084d4:	afa20098 	sw	v0,152(sp)
9d0084d8:	8fa200b8 	lw	v0,184(sp)
9d0084dc:	2403002e 	li	v1,46
9d0084e0:	80440000 	lb	a0,0(v0)
9d0084e4:	1483000d 	bne	a0,v1,9d00851c <__printf_core+0x1fc>
9d0084e8:	24440001 	addiu	a0,v0,1
9d0084ec:	afa0009c 	sw	zero,156(sp)
9d0084f0:	afa400b8 	sw	a0,184(sp)
9d0084f4:	80450001 	lb	a1,1(v0)
9d0084f8:	2403002a 	li	v1,42
9d0084fc:	14a30023 	bne	a1,v1,9d00858c <__printf_core+0x26c>
9d008500:	24420002 	addiu	v0,v0,2
9d008504:	afa200b8 	sw	v0,184(sp)
9d008508:	8e220000 	lw	v0,0(s1)
9d00850c:	24430004 	addiu	v1,v0,4
9d008510:	8c420000 	lw	v0,0(v0)
9d008514:	ae230000 	sw	v1,0(s1)
9d008518:	afa2009c 	sw	v0,156(sp)
9d00851c:	0f402e8e 	jal	9d00ba38 <__fmt_state>
9d008520:	27a400b8 	addiu	a0,sp,184
9d008524:	afa200c0 	sw	v0,192(sp)
9d008528:	8fa200b8 	lw	v0,184(sp)
9d00852c:	0f4030f2 	jal	9d00c3c8 <tolower>
9d008530:	80440000 	lb	a0,0(v0)
9d008534:	24030069 	li	v1,105
9d008538:	10430077 	beq	v0,v1,9d008718 <__printf_core+0x3f8>
9d00853c:	8fa500c0 	lw	a1,192(sp)
9d008540:	2843006a 	slti	v1,v0,106
9d008544:	1060002f 	beqz	v1,9d008604 <__printf_core+0x2e4>
9d008548:	24030063 	li	v1,99
9d00854c:	104300be 	beq	v0,v1,9d008848 <__printf_core+0x528>
9d008550:	28430064 	slti	v1,v0,100
9d008554:	10600018 	beqz	v1,9d0085b8 <__printf_core+0x298>
9d008558:	24030025 	li	v1,37
9d00855c:	104300cb 	beq	v0,v1,9d00888c <__printf_core+0x56c>
9d008560:	24030061 	li	v1,97
9d008564:	5043004f 	beql	v0,v1,9d0086a4 <__printf_core+0x384>
9d008568:	02203025 	move	a2,s1
9d00856c:	2402ffff 	li	v0,-1
9d008570:	afb500b8 	sw	s5,184(sp)
9d008574:	afa00098 	sw	zero,152(sp)
9d008578:	afa000a0 	sw	zero,160(sp)
9d00857c:	afa2009c 	sw	v0,156(sp)
9d008580:	afa00010 	sw	zero,16(sp)
9d008584:	100000c9 	b	9d0088ac <__printf_core+0x58c>
9d008588:	00003825 	move	a3,zero
9d00858c:	0f402d7d 	jal	9d00b5f4 <atoi>
9d008590:	00000000 	nop
9d008594:	afa2009c 	sw	v0,156(sp)
9d008598:	8fa300b8 	lw	v1,184(sp)
9d00859c:	80620000 	lb	v0,0(v1)
9d0085a0:	2442ffd0 	addiu	v0,v0,-48
9d0085a4:	2c42000a 	sltiu	v0,v0,10
9d0085a8:	1040ffdc 	beqz	v0,9d00851c <__printf_core+0x1fc>
9d0085ac:	24630001 	addiu	v1,v1,1
9d0085b0:	1000fff9 	b	9d008598 <__printf_core+0x278>
9d0085b4:	afa300b8 	sw	v1,184(sp)
9d0085b8:	24030064 	li	v1,100
9d0085bc:	10430056 	beq	v0,v1,9d008718 <__printf_core+0x3f8>
9d0085c0:	28420068 	slti	v0,v0,104
9d0085c4:	1040ffea 	beqz	v0,9d008570 <__printf_core+0x250>
9d0085c8:	2402ffff 	li	v0,-1
9d0085cc:	02203025 	move	a2,s1
9d0085d0:	0f402ece 	jal	9d00bb38 <__pop_float>
9d0085d4:	27a400b0 	addiu	a0,sp,176
9d0085d8:	10400097 	beqz	v0,9d008838 <__printf_core+0x518>
9d0085dc:	8fa200b8 	lw	v0,184(sp)
9d0085e0:	27a600b0 	addiu	a2,sp,176
9d0085e4:	27a50098 	addiu	a1,sp,152
9d0085e8:	24430001 	addiu	v1,v0,1
9d0085ec:	afa300b8 	sw	v1,184(sp)
9d0085f0:	80470000 	lb	a3,0(v0)
9d0085f4:	0f40314d 	jal	9d00c534 <__fmt_a>
9d0085f8:	02402025 	move	a0,s2
9d0085fc:	10000035 	b	9d0086d4 <__printf_core+0x3b4>
9d008600:	02028021 	addu	s0,s0,v0
9d008604:	24030070 	li	v1,112
9d008608:	1043006e 	beq	v0,v1,9d0087c4 <__printf_core+0x4a4>
9d00860c:	28430071 	slti	v1,v0,113
9d008610:	10600013 	beqz	v1,9d008660 <__printf_core+0x340>
9d008614:	2403006e 	li	v1,110
9d008618:	10430083 	beq	v0,v1,9d008828 <__printf_core+0x508>
9d00861c:	2403006f 	li	v1,111
9d008620:	1443ffd3 	bne	v0,v1,9d008570 <__printf_core+0x250>
9d008624:	2402ffff 	li	v0,-1
9d008628:	02203825 	move	a3,s1
9d00862c:	00003025 	move	a2,zero
9d008630:	0f4025e8 	jal	9d0097a0 <__pop_int>
9d008634:	27a400b0 	addiu	a0,sp,176
9d008638:	1040007f 	beqz	v0,9d008838 <__printf_core+0x518>
9d00863c:	8fa200b8 	lw	v0,184(sp)
9d008640:	27a600b0 	addiu	a2,sp,176
9d008644:	27a50098 	addiu	a1,sp,152
9d008648:	24420001 	addiu	v0,v0,1
9d00864c:	02402025 	move	a0,s2
9d008650:	0f40314b 	jal	9d00c52c <__fmt_o>
9d008654:	afa200b8 	sw	v0,184(sp)
9d008658:	1000001e 	b	9d0086d4 <__printf_core+0x3b4>
9d00865c:	02028021 	addu	s0,s0,v0
9d008660:	24030075 	li	v1,117
9d008664:	1043003a 	beq	v0,v1,9d008750 <__printf_core+0x430>
9d008668:	24030078 	li	v1,120
9d00866c:	10430046 	beq	v0,v1,9d008788 <__printf_core+0x468>
9d008670:	24030073 	li	v1,115
9d008674:	1443ffbd 	bne	v0,v1,9d00856c <__printf_core+0x24c>
9d008678:	24020080 	li	v0,128
9d00867c:	14a2006e 	bne	a1,v0,9d008838 <__printf_core+0x518>
9d008680:	8fa200b8 	lw	v0,184(sp)
9d008684:	00003825 	move	a3,zero
9d008688:	24420001 	addiu	v0,v0,1
9d00868c:	afa200b8 	sw	v0,184(sp)
9d008690:	8e220000 	lw	v0,0(s1)
9d008694:	24430004 	addiu	v1,v0,4
9d008698:	ae230000 	sw	v1,0(s1)
9d00869c:	10000076 	b	9d008878 <__printf_core+0x558>
9d0086a0:	8c460000 	lw	a2,0(v0)
9d0086a4:	0f402ece 	jal	9d00bb38 <__pop_float>
9d0086a8:	27a400b0 	addiu	a0,sp,176
9d0086ac:	10400062 	beqz	v0,9d008838 <__printf_core+0x518>
9d0086b0:	8fa200b8 	lw	v0,184(sp)
9d0086b4:	27a600b0 	addiu	a2,sp,176
9d0086b8:	27a50098 	addiu	a1,sp,152
9d0086bc:	24430001 	addiu	v1,v0,1
9d0086c0:	afa300b8 	sw	v1,184(sp)
9d0086c4:	80470000 	lb	a3,0(v0)
9d0086c8:	0f40314d 	jal	9d00c534 <__fmt_a>
9d0086cc:	02402025 	move	a0,s2
9d0086d0:	02028021 	addu	s0,s0,v0
9d0086d4:	02708021 	addu	s0,s3,s0
9d0086d8:	0213982a 	slt	s3,s0,s3
9d0086dc:	12600077 	beqz	s3,9d0088bc <__printf_core+0x59c>
9d0086e0:	3c02a000 	lui	v0,0xa000
9d0086e4:	2403004f 	li	v1,79
9d0086e8:	ac430160 	sw	v1,352(v0)
9d0086ec:	2413ffff 	li	s3,-1
9d0086f0:	8fbf00e4 	lw	ra,228(sp)
9d0086f4:	02601025 	move	v0,s3
9d0086f8:	8fb500e0 	lw	s5,224(sp)
9d0086fc:	8fb400dc 	lw	s4,220(sp)
9d008700:	8fb300d8 	lw	s3,216(sp)
9d008704:	8fb200d4 	lw	s2,212(sp)
9d008708:	8fb100d0 	lw	s1,208(sp)
9d00870c:	8fb000cc 	lw	s0,204(sp)
9d008710:	03e00008 	jr	ra
9d008714:	27bd00e8 	addiu	sp,sp,232
9d008718:	02203825 	move	a3,s1
9d00871c:	24060001 	li	a2,1
9d008720:	0f4025e8 	jal	9d0097a0 <__pop_int>
9d008724:	27a400b0 	addiu	a0,sp,176
9d008728:	10400043 	beqz	v0,9d008838 <__printf_core+0x518>
9d00872c:	8fa200b8 	lw	v0,184(sp)
9d008730:	27a600b0 	addiu	a2,sp,176
9d008734:	27a50098 	addiu	a1,sp,152
9d008738:	24420001 	addiu	v0,v0,1
9d00873c:	02402025 	move	a0,s2
9d008740:	0f4026fb 	jal	9d009bec <__fmt_d>
9d008744:	afa200b8 	sw	v0,184(sp)
9d008748:	1000ffe2 	b	9d0086d4 <__printf_core+0x3b4>
9d00874c:	02028021 	addu	s0,s0,v0
9d008750:	02203825 	move	a3,s1
9d008754:	00003025 	move	a2,zero
9d008758:	0f4025e8 	jal	9d0097a0 <__pop_int>
9d00875c:	27a400b0 	addiu	a0,sp,176
9d008760:	10400035 	beqz	v0,9d008838 <__printf_core+0x518>
9d008764:	8fa200b8 	lw	v0,184(sp)
9d008768:	27a600b0 	addiu	a2,sp,176
9d00876c:	27a50098 	addiu	a1,sp,152
9d008770:	24420001 	addiu	v0,v0,1
9d008774:	02402025 	move	a0,s2
9d008778:	0f40314b 	jal	9d00c52c <__fmt_o>
9d00877c:	afa200b8 	sw	v0,184(sp)
9d008780:	1000ffd4 	b	9d0086d4 <__printf_core+0x3b4>
9d008784:	02028021 	addu	s0,s0,v0
9d008788:	02203825 	move	a3,s1
9d00878c:	00003025 	move	a2,zero
9d008790:	0f4025e8 	jal	9d0097a0 <__pop_int>
9d008794:	27a400b0 	addiu	a0,sp,176
9d008798:	10400027 	beqz	v0,9d008838 <__printf_core+0x518>
9d00879c:	8fa200b8 	lw	v0,184(sp)
9d0087a0:	24430001 	addiu	v1,v0,1
9d0087a4:	afa300b8 	sw	v1,184(sp)
9d0087a8:	80470000 	lb	a3,0(v0)
9d0087ac:	27a600b0 	addiu	a2,sp,176
9d0087b0:	27a50098 	addiu	a1,sp,152
9d0087b4:	0f40314d 	jal	9d00c534 <__fmt_a>
9d0087b8:	02402025 	move	a0,s2
9d0087bc:	1000ffc5 	b	9d0086d4 <__printf_core+0x3b4>
9d0087c0:	02028021 	addu	s0,s0,v0
9d0087c4:	02203825 	move	a3,s1
9d0087c8:	00003025 	move	a2,zero
9d0087cc:	240500f0 	li	a1,240
9d0087d0:	0f4025e8 	jal	9d0097a0 <__pop_int>
9d0087d4:	27a400b0 	addiu	a0,sp,176
9d0087d8:	10400017 	beqz	v0,9d008838 <__printf_core+0x518>
9d0087dc:	8fa200b8 	lw	v0,184(sp)
9d0087e0:	8fa300b4 	lw	v1,180(sp)
9d0087e4:	24420001 	addiu	v0,v0,1
9d0087e8:	afa200b8 	sw	v0,184(sp)
9d0087ec:	8fa200b0 	lw	v0,176(sp)
9d0087f0:	00431025 	or	v0,v0,v1
9d0087f4:	1440ffed 	bnez	v0,9d0087ac <__printf_core+0x48c>
9d0087f8:	24070078 	li	a3,120
9d0087fc:	0f403007 	jal	9d00c01c <strlen>
9d008800:	268474bc 	addiu	a0,s4,29884
9d008804:	8fa30098 	lw	v1,152(sp)
9d008808:	8fa700a0 	lw	a3,160(sp)
9d00880c:	00403025 	move	a2,v0
9d008810:	afa30010 	sw	v1,16(sp)
9d008814:	268574bc 	addiu	a1,s4,29884
9d008818:	0f402965 	jal	9d00a594 <__pad>
9d00881c:	02402025 	move	a0,s2
9d008820:	1000ffac 	b	9d0086d4 <__printf_core+0x3b4>
9d008824:	02028021 	addu	s0,s0,v0
9d008828:	02203825 	move	a3,s1
9d00882c:	02703021 	addu	a2,s3,s0
9d008830:	0f4029e5 	jal	9d00a794 <__pop_ptr>
9d008834:	27a400b0 	addiu	a0,sp,176
9d008838:	8fa200b8 	lw	v0,184(sp)
9d00883c:	24420001 	addiu	v0,v0,1
9d008840:	1000ffa4 	b	9d0086d4 <__printf_core+0x3b4>
9d008844:	afa200b8 	sw	v0,184(sp)
9d008848:	24020080 	li	v0,128
9d00884c:	14a2fffa 	bne	a1,v0,9d008838 <__printf_core+0x518>
9d008850:	8fa200b8 	lw	v0,184(sp)
9d008854:	24070001 	li	a3,1
9d008858:	27a600b0 	addiu	a2,sp,176
9d00885c:	24420001 	addiu	v0,v0,1
9d008860:	afa200b8 	sw	v0,184(sp)
9d008864:	8e220000 	lw	v0,0(s1)
9d008868:	24430004 	addiu	v1,v0,4
9d00886c:	8c420000 	lw	v0,0(v0)
9d008870:	ae230000 	sw	v1,0(s1)
9d008874:	a3a200b0 	sb	v0,176(sp)
9d008878:	27a50098 	addiu	a1,sp,152
9d00887c:	0f40314f 	jal	9d00c53c <__fmt_s>
9d008880:	02402025 	move	a0,s2
9d008884:	1000ff93 	b	9d0086d4 <__printf_core+0x3b4>
9d008888:	02028021 	addu	s0,s0,v0
9d00888c:	24020080 	li	v0,128
9d008890:	14a2ffe9 	bne	a1,v0,9d008838 <__printf_core+0x518>
9d008894:	8fa200b8 	lw	v0,184(sp)
9d008898:	8fa700a0 	lw	a3,160(sp)
9d00889c:	24420001 	addiu	v0,v0,1
9d0088a0:	afa200b8 	sw	v0,184(sp)
9d0088a4:	8fa20098 	lw	v0,152(sp)
9d0088a8:	afa20010 	sw	v0,16(sp)
9d0088ac:	3c059d00 	lui	a1,0x9d00
9d0088b0:	24060001 	li	a2,1
9d0088b4:	1000ffd8 	b	9d008818 <__printf_core+0x4f8>
9d0088b8:	24a574c4 	addiu	a1,a1,29892
9d0088bc:	1000fea5 	b	9d008354 <__printf_core+0x34>
9d0088c0:	02009825 	move	s3,s0

Disassembly of section .text:

9d0088c4 <__udivdi3>:
9d0088c4:	00c04025 	move	t0,a2
9d0088c8:	00e01825 	move	v1,a3
9d0088cc:	00805025 	move	t2,a0
9d0088d0:	14e00098 	bnez	a3,9d008b34 <__udivdi3+0x270>
9d0088d4:	00a01025 	move	v0,a1
9d0088d8:	00a6302b 	sltu	a2,a1,a2
9d0088dc:	10c00035 	beqz	a2,9d0089b4 <__udivdi3+0xf0>
9d0088e0:	00000000 	nop
9d0088e4:	71052820 	clz	a1,t0
9d0088e8:	10a00006 	beqz	a1,9d008904 <__udivdi3+0x40>
9d0088ec:	00052023 	negu	a0,a1
9d0088f0:	008a2006 	srlv	a0,t2,a0
9d0088f4:	00a21004 	sllv	v0,v0,a1
9d0088f8:	00a84004 	sllv	t0,t0,a1
9d0088fc:	00821025 	or	v0,a0,v0
9d008900:	00aa5004 	sllv	t2,t2,a1
9d008904:	00083402 	srl	a2,t0,0x10
9d008908:	0046001b 	divu	zero,v0,a2
9d00890c:	00c001f4 	teq	a2,zero,0x7
9d008910:	3105ffff 	andi	a1,t0,0xffff
9d008914:	000a2402 	srl	a0,t2,0x10
9d008918:	00003812 	mflo	a3
9d00891c:	00001010 	mfhi	v0
9d008920:	00021400 	sll	v0,v0,0x10
9d008924:	00442025 	or	a0,v0,a0
9d008928:	70a74802 	mul	t1,a1,a3
9d00892c:	0089582b 	sltu	t3,a0,t1
9d008930:	1160000a 	beqz	t3,9d00895c <__udivdi3+0x98>
9d008934:	00e01025 	move	v0,a3
9d008938:	00882021 	addu	a0,a0,t0
9d00893c:	0088582b 	sltu	t3,a0,t0
9d008940:	15600006 	bnez	t3,9d00895c <__udivdi3+0x98>
9d008944:	24e2ffff 	addiu	v0,a3,-1
9d008948:	0089582b 	sltu	t3,a0,t1
9d00894c:	51600004 	beqzl	t3,9d008960 <__udivdi3+0x9c>
9d008950:	00892023 	subu	a0,a0,t1
9d008954:	24e2fffe 	addiu	v0,a3,-2
9d008958:	00882021 	addu	a0,a0,t0
9d00895c:	00892023 	subu	a0,a0,t1
9d008960:	0086001b 	divu	zero,a0,a2
9d008964:	00c001f4 	teq	a2,zero,0x7
9d008968:	00003010 	mfhi	a2
9d00896c:	00063400 	sll	a2,a2,0x10
9d008970:	00002012 	mflo	a0
9d008974:	70a43802 	mul	a3,a1,a0
9d008978:	3145ffff 	andi	a1,t2,0xffff
9d00897c:	00c52825 	or	a1,a2,a1
9d008980:	00a7482b 	sltu	t1,a1,a3
9d008984:	11200008 	beqz	t1,9d0089a8 <__udivdi3+0xe4>
9d008988:	00803025 	move	a2,a0
9d00898c:	01052821 	addu	a1,t0,a1
9d008990:	00a8402b 	sltu	t0,a1,t0
9d008994:	15000004 	bnez	t0,9d0089a8 <__udivdi3+0xe4>
9d008998:	2486ffff 	addiu	a2,a0,-1
9d00899c:	00a7282b 	sltu	a1,a1,a3
9d0089a0:	54a00001 	bnezl	a1,9d0089a8 <__udivdi3+0xe4>
9d0089a4:	2486fffe 	addiu	a2,a0,-2
9d0089a8:	00021400 	sll	v0,v0,0x10
9d0089ac:	03e00008 	jr	ra
9d0089b0:	00461025 	or	v0,v0,a2
9d0089b4:	15000004 	bnez	t0,9d0089c8 <__udivdi3+0x104>
9d0089b8:	24020001 	li	v0,1
9d0089bc:	0048001b 	divu	zero,v0,t0
9d0089c0:	010001f4 	teq	t0,zero,0x7
9d0089c4:	00004012 	mflo	t0
9d0089c8:	710b5820 	clz	t3,t0
9d0089cc:	15600023 	bnez	t3,9d008a5c <__udivdi3+0x198>
9d0089d0:	24070020 	li	a3,32
9d0089d4:	00a82823 	subu	a1,a1,t0
9d0089d8:	24030001 	li	v1,1
9d0089dc:	00083402 	srl	a2,t0,0x10
9d0089e0:	00a6001b 	divu	zero,a1,a2
9d0089e4:	00c001f4 	teq	a2,zero,0x7
9d0089e8:	3107ffff 	andi	a3,t0,0xffff
9d0089ec:	000a2402 	srl	a0,t2,0x10
9d0089f0:	00002812 	mflo	a1
9d0089f4:	00001010 	mfhi	v0
9d0089f8:	00021400 	sll	v0,v0,0x10
9d0089fc:	00442025 	or	a0,v0,a0
9d008a00:	70e54802 	mul	t1,a3,a1
9d008a04:	0089582b 	sltu	t3,a0,t1
9d008a08:	1160000a 	beqz	t3,9d008a34 <__udivdi3+0x170>
9d008a0c:	00a01025 	move	v0,a1
9d008a10:	00882021 	addu	a0,a0,t0
9d008a14:	0088582b 	sltu	t3,a0,t0
9d008a18:	15600006 	bnez	t3,9d008a34 <__udivdi3+0x170>
9d008a1c:	24a2ffff 	addiu	v0,a1,-1
9d008a20:	0089582b 	sltu	t3,a0,t1
9d008a24:	51600004 	beqzl	t3,9d008a38 <__udivdi3+0x174>
9d008a28:	00892023 	subu	a0,a0,t1
9d008a2c:	24a2fffe 	addiu	v0,a1,-2
9d008a30:	00882021 	addu	a0,a0,t0
9d008a34:	00892023 	subu	a0,a0,t1
9d008a38:	0086001b 	divu	zero,a0,a2
9d008a3c:	00c001f4 	teq	a2,zero,0x7
9d008a40:	314affff 	andi	t2,t2,0xffff
9d008a44:	00002810 	mfhi	a1
9d008a48:	00052c00 	sll	a1,a1,0x10
9d008a4c:	00aa2825 	or	a1,a1,t2
9d008a50:	00002012 	mflo	a0
9d008a54:	1000ffca 	b	9d008980 <__udivdi3+0xbc>
9d008a58:	70e43802 	mul	a3,a3,a0
9d008a5c:	00eb3823 	subu	a3,a3,t3
9d008a60:	01684004 	sllv	t0,t0,t3
9d008a64:	00e44806 	srlv	t1,a0,a3
9d008a68:	00083402 	srl	a2,t0,0x10
9d008a6c:	00e53806 	srlv	a3,a1,a3
9d008a70:	00e6001b 	divu	zero,a3,a2
9d008a74:	00c001f4 	teq	a2,zero,0x7
9d008a78:	01651004 	sllv	v0,a1,t3
9d008a7c:	01224825 	or	t1,t1,v0
9d008a80:	3102ffff 	andi	v0,t0,0xffff
9d008a84:	00091c02 	srl	v1,t1,0x10
9d008a88:	00002812 	mflo	a1
9d008a8c:	00003810 	mfhi	a3
9d008a90:	00073c00 	sll	a3,a3,0x10
9d008a94:	00e33825 	or	a3,a3,v1
9d008a98:	70455002 	mul	t2,v0,a1
9d008a9c:	00ea602b 	sltu	t4,a3,t2
9d008aa0:	1180000a 	beqz	t4,9d008acc <__udivdi3+0x208>
9d008aa4:	00a01825 	move	v1,a1
9d008aa8:	00e83821 	addu	a3,a3,t0
9d008aac:	00e8602b 	sltu	t4,a3,t0
9d008ab0:	15800006 	bnez	t4,9d008acc <__udivdi3+0x208>
9d008ab4:	24a3ffff 	addiu	v1,a1,-1
9d008ab8:	00ea602b 	sltu	t4,a3,t2
9d008abc:	51800004 	beqzl	t4,9d008ad0 <__udivdi3+0x20c>
9d008ac0:	00ea3823 	subu	a3,a3,t2
9d008ac4:	24a3fffe 	addiu	v1,a1,-2
9d008ac8:	00e83821 	addu	a3,a3,t0
9d008acc:	00ea3823 	subu	a3,a3,t2
9d008ad0:	00e6001b 	divu	zero,a3,a2
9d008ad4:	00c001f4 	teq	a2,zero,0x7
9d008ad8:	3125ffff 	andi	a1,t1,0xffff
9d008adc:	00003012 	mflo	a2
9d008ae0:	00003810 	mfhi	a3
9d008ae4:	00073c00 	sll	a3,a3,0x10
9d008ae8:	00e52825 	or	a1,a3,a1
9d008aec:	70461002 	mul	v0,v0,a2
9d008af0:	00a2482b 	sltu	t1,a1,v0
9d008af4:	1120000a 	beqz	t1,9d008b20 <__udivdi3+0x25c>
9d008af8:	00c03825 	move	a3,a2
9d008afc:	00a82821 	addu	a1,a1,t0
9d008b00:	00a8482b 	sltu	t1,a1,t0
9d008b04:	15200006 	bnez	t1,9d008b20 <__udivdi3+0x25c>
9d008b08:	24c7ffff 	addiu	a3,a2,-1
9d008b0c:	00a2482b 	sltu	t1,a1,v0
9d008b10:	51200004 	beqzl	t1,9d008b24 <__udivdi3+0x260>
9d008b14:	00031c00 	sll	v1,v1,0x10
9d008b18:	24c7fffe 	addiu	a3,a2,-2
9d008b1c:	00a82821 	addu	a1,a1,t0
9d008b20:	00031c00 	sll	v1,v1,0x10
9d008b24:	01645004 	sllv	t2,a0,t3
9d008b28:	00a22823 	subu	a1,a1,v0
9d008b2c:	1000ffab 	b	9d0089dc <__udivdi3+0x118>
9d008b30:	00671825 	or	v1,v1,a3
9d008b34:	00a7402b 	sltu	t0,a1,a3
9d008b38:	00001825 	move	v1,zero
9d008b3c:	1500004e 	bnez	t0,9d008c78 <__udivdi3+0x3b4>
9d008b40:	00001025 	move	v0,zero
9d008b44:	70ea5020 	clz	t2,a3
9d008b48:	15400007 	bnez	t2,9d008b68 <__udivdi3+0x2a4>
9d008b4c:	24090020 	li	t1,32
9d008b50:	00e5282b 	sltu	a1,a3,a1
9d008b54:	14a00048 	bnez	a1,9d008c78 <__udivdi3+0x3b4>
9d008b58:	24020001 	li	v0,1
9d008b5c:	0086102b 	sltu	v0,a0,a2
9d008b60:	03e00008 	jr	ra
9d008b64:	38420001 	xori	v0,v0,0x1
9d008b68:	012a4823 	subu	t1,t1,t2
9d008b6c:	01261006 	srlv	v0,a2,t1
9d008b70:	01473804 	sllv	a3,a3,t2
9d008b74:	00473825 	or	a3,v0,a3
9d008b78:	01451804 	sllv	v1,a1,t2
9d008b7c:	00074402 	srl	t0,a3,0x10
9d008b80:	01252806 	srlv	a1,a1,t1
9d008b84:	00a8001b 	divu	zero,a1,t0
9d008b88:	010001f4 	teq	t0,zero,0x7
9d008b8c:	30ebffff 	andi	t3,a3,0xffff
9d008b90:	01241006 	srlv	v0,a0,t1
9d008b94:	00431025 	or	v0,v0,v1
9d008b98:	00021c02 	srl	v1,v0,0x10
9d008b9c:	00002812 	mflo	a1
9d008ba0:	00004810 	mfhi	t1
9d008ba4:	00094c00 	sll	t1,t1,0x10
9d008ba8:	01234825 	or	t1,t1,v1
9d008bac:	71656002 	mul	t4,t3,a1
9d008bb0:	012c682b 	sltu	t5,t1,t4
9d008bb4:	11a0000a 	beqz	t5,9d008be0 <__udivdi3+0x31c>
9d008bb8:	00a01825 	move	v1,a1
9d008bbc:	01274821 	addu	t1,t1,a3
9d008bc0:	0127682b 	sltu	t5,t1,a3
9d008bc4:	15a00006 	bnez	t5,9d008be0 <__udivdi3+0x31c>
9d008bc8:	24a3ffff 	addiu	v1,a1,-1
9d008bcc:	012c682b 	sltu	t5,t1,t4
9d008bd0:	51a00004 	beqzl	t5,9d008be4 <__udivdi3+0x320>
9d008bd4:	012c4823 	subu	t1,t1,t4
9d008bd8:	24a3fffe 	addiu	v1,a1,-2
9d008bdc:	01274821 	addu	t1,t1,a3
9d008be0:	012c4823 	subu	t1,t1,t4
9d008be4:	0128001b 	divu	zero,t1,t0
9d008be8:	010001f4 	teq	t0,zero,0x7
9d008bec:	3045ffff 	andi	a1,v0,0xffff
9d008bf0:	00004012 	mflo	t0
9d008bf4:	00004810 	mfhi	t1
9d008bf8:	00094c00 	sll	t1,t1,0x10
9d008bfc:	01252825 	or	a1,t1,a1
9d008c00:	71685802 	mul	t3,t3,t0
9d008c04:	00ab102b 	sltu	v0,a1,t3
9d008c08:	1040000a 	beqz	v0,9d008c34 <__udivdi3+0x370>
9d008c0c:	01004825 	move	t1,t0
9d008c10:	00a72821 	addu	a1,a1,a3
9d008c14:	00a7102b 	sltu	v0,a1,a3
9d008c18:	14400006 	bnez	v0,9d008c34 <__udivdi3+0x370>
9d008c1c:	2509ffff 	addiu	t1,t0,-1
9d008c20:	00ab102b 	sltu	v0,a1,t3
9d008c24:	10400004 	beqz	v0,9d008c38 <__udivdi3+0x374>
9d008c28:	00031400 	sll	v0,v1,0x10
9d008c2c:	2509fffe 	addiu	t1,t0,-2
9d008c30:	00a72821 	addu	a1,a1,a3
9d008c34:	00031400 	sll	v0,v1,0x10
9d008c38:	01463004 	sllv	a2,a2,t2
9d008c3c:	00491025 	or	v0,v0,t1
9d008c40:	00c20019 	multu	a2,v0
9d008c44:	00ab2823 	subu	a1,a1,t3
9d008c48:	00003810 	mfhi	a3
9d008c4c:	00a7182b 	sltu	v1,a1,a3
9d008c50:	14600007 	bnez	v1,9d008c70 <__udivdi3+0x3ac>
9d008c54:	00003012 	mflo	a2
9d008c58:	14a70007 	bne	a1,a3,9d008c78 <__udivdi3+0x3b4>
9d008c5c:	00001825 	move	v1,zero
9d008c60:	01442004 	sllv	a0,a0,t2
9d008c64:	0086202b 	sltu	a0,a0,a2
9d008c68:	10800003 	beqz	a0,9d008c78 <__udivdi3+0x3b4>
9d008c6c:	00000000 	nop
9d008c70:	2442ffff 	addiu	v0,v0,-1
9d008c74:	00001825 	move	v1,zero
9d008c78:	03e00008 	jr	ra
9d008c7c:	00000000 	nop

9d008c80 <__umoddi3>:
9d008c80:	00c04825 	move	t1,a2
9d008c84:	00801025 	move	v0,a0
9d008c88:	14e0008b 	bnez	a3,9d008eb8 <__umoddi3+0x238>
9d008c8c:	00a01825 	move	v1,a1
9d008c90:	00a6302b 	sltu	a2,a1,a2
9d008c94:	10c00033 	beqz	a2,9d008d64 <__umoddi3+0xe4>
9d008c98:	712a5020 	clz	t2,t1
9d008c9c:	11400008 	beqz	t2,9d008cc0 <__umoddi3+0x40>
9d008ca0:	00095c02 	srl	t3,t1,0x10
9d008ca4:	01451804 	sllv	v1,a1,t2
9d008ca8:	000a2823 	negu	a1,t2
9d008cac:	00a42806 	srlv	a1,a0,a1
9d008cb0:	01494804 	sllv	t1,t1,t2
9d008cb4:	00a31825 	or	v1,a1,v1
9d008cb8:	01441004 	sllv	v0,a0,t2
9d008cbc:	00095c02 	srl	t3,t1,0x10
9d008cc0:	006b001b 	divu	zero,v1,t3
9d008cc4:	016001f4 	teq	t3,zero,0x7
9d008cc8:	3124ffff 	andi	a0,t1,0xffff
9d008ccc:	00001812 	mflo	v1
9d008cd0:	00002810 	mfhi	a1
9d008cd4:	70643002 	mul	a2,v1,a0
9d008cd8:	00051c00 	sll	v1,a1,0x10
9d008cdc:	00022c02 	srl	a1,v0,0x10
9d008ce0:	00651825 	or	v1,v1,a1
9d008ce4:	0066282b 	sltu	a1,v1,a2
9d008ce8:	50a00008 	beqzl	a1,9d008d0c <__umoddi3+0x8c>
9d008cec:	00661823 	subu	v1,v1,a2
9d008cf0:	00691821 	addu	v1,v1,t1
9d008cf4:	0069282b 	sltu	a1,v1,t1
9d008cf8:	14a00003 	bnez	a1,9d008d08 <__umoddi3+0x88>
9d008cfc:	0066282b 	sltu	a1,v1,a2
9d008d00:	54a00001 	bnezl	a1,9d008d08 <__umoddi3+0x88>
9d008d04:	00691821 	addu	v1,v1,t1
9d008d08:	00661823 	subu	v1,v1,a2
9d008d0c:	006b001b 	divu	zero,v1,t3
9d008d10:	016001f4 	teq	t3,zero,0x7
9d008d14:	3042ffff 	andi	v0,v0,0xffff
9d008d18:	00003010 	mfhi	a2
9d008d1c:	00001812 	mflo	v1
9d008d20:	70645802 	mul	t3,v1,a0
9d008d24:	00061c00 	sll	v1,a2,0x10
9d008d28:	00621025 	or	v0,v1,v0
9d008d2c:	004b182b 	sltu	v1,v0,t3
9d008d30:	50600009 	beqzl	v1,9d008d58 <__umoddi3+0xd8>
9d008d34:	004b1023 	subu	v0,v0,t3
9d008d38:	00491021 	addu	v0,v0,t1
9d008d3c:	0049182b 	sltu	v1,v0,t1
9d008d40:	54600005 	bnezl	v1,9d008d58 <__umoddi3+0xd8>
9d008d44:	004b1023 	subu	v0,v0,t3
9d008d48:	004b182b 	sltu	v1,v0,t3
9d008d4c:	54600001 	bnezl	v1,9d008d54 <__umoddi3+0xd4>
9d008d50:	00491021 	addu	v0,v0,t1
9d008d54:	004b1023 	subu	v0,v0,t3
9d008d58:	01421006 	srlv	v0,v0,t2
9d008d5c:	03e00008 	jr	ra
9d008d60:	00001825 	move	v1,zero
9d008d64:	15200004 	bnez	t1,9d008d78 <__umoddi3+0xf8>
9d008d68:	24030001 	li	v1,1
9d008d6c:	0069001b 	divu	zero,v1,t1
9d008d70:	012001f4 	teq	t1,zero,0x7
9d008d74:	00004812 	mflo	t1
9d008d78:	712a5020 	clz	t2,t1
9d008d7c:	1540001f 	bnez	t2,9d008dfc <__umoddi3+0x17c>
9d008d80:	24070020 	li	a3,32
9d008d84:	00a92823 	subu	a1,a1,t1
9d008d88:	00095c02 	srl	t3,t1,0x10
9d008d8c:	00ab001b 	divu	zero,a1,t3
9d008d90:	016001f4 	teq	t3,zero,0x7
9d008d94:	3124ffff 	andi	a0,t1,0xffff
9d008d98:	00002812 	mflo	a1
9d008d9c:	00001810 	mfhi	v1
9d008da0:	70a43002 	mul	a2,a1,a0
9d008da4:	00032c00 	sll	a1,v1,0x10
9d008da8:	00021c02 	srl	v1,v0,0x10
9d008dac:	00a32825 	or	a1,a1,v1
9d008db0:	00a6182b 	sltu	v1,a1,a2
9d008db4:	50600008 	beqzl	v1,9d008dd8 <__umoddi3+0x158>
9d008db8:	00a63023 	subu	a2,a1,a2
9d008dbc:	00a92821 	addu	a1,a1,t1
9d008dc0:	00a9182b 	sltu	v1,a1,t1
9d008dc4:	14600003 	bnez	v1,9d008dd4 <__umoddi3+0x154>
9d008dc8:	00a6182b 	sltu	v1,a1,a2
9d008dcc:	54600001 	bnezl	v1,9d008dd4 <__umoddi3+0x154>
9d008dd0:	00a92821 	addu	a1,a1,t1
9d008dd4:	00a63023 	subu	a2,a1,a2
9d008dd8:	00cb001b 	divu	zero,a2,t3
9d008ddc:	016001f4 	teq	t3,zero,0x7
9d008de0:	3042ffff 	andi	v0,v0,0xffff
9d008de4:	00002810 	mfhi	a1
9d008de8:	00003012 	mflo	a2
9d008dec:	70c45802 	mul	t3,a2,a0
9d008df0:	00053400 	sll	a2,a1,0x10
9d008df4:	1000ffcd 	b	9d008d2c <__umoddi3+0xac>
9d008df8:	00c21025 	or	v0,a2,v0
9d008dfc:	00ea3823 	subu	a3,a3,t2
9d008e00:	01494804 	sllv	t1,t1,t2
9d008e04:	00e41806 	srlv	v1,a0,a3
9d008e08:	00093402 	srl	a2,t1,0x10
9d008e0c:	00e53806 	srlv	a3,a1,a3
9d008e10:	00e6001b 	divu	zero,a3,a2
9d008e14:	00c001f4 	teq	a2,zero,0x7
9d008e18:	01451004 	sllv	v0,a1,t2
9d008e1c:	3128ffff 	andi	t0,t1,0xffff
9d008e20:	00621825 	or	v1,v1,v0
9d008e24:	00032c02 	srl	a1,v1,0x10
9d008e28:	00003812 	mflo	a3
9d008e2c:	00006010 	mfhi	t4
9d008e30:	70e81002 	mul	v0,a3,t0
9d008e34:	000c3c00 	sll	a3,t4,0x10
9d008e38:	00e53825 	or	a3,a3,a1
9d008e3c:	00e2282b 	sltu	a1,a3,v0
9d008e40:	50a00008 	beqzl	a1,9d008e64 <__umoddi3+0x1e4>
9d008e44:	00e23823 	subu	a3,a3,v0
9d008e48:	00e93821 	addu	a3,a3,t1
9d008e4c:	00e9282b 	sltu	a1,a3,t1
9d008e50:	14a00003 	bnez	a1,9d008e60 <__umoddi3+0x1e0>
9d008e54:	00e2282b 	sltu	a1,a3,v0
9d008e58:	54a00001 	bnezl	a1,9d008e60 <__umoddi3+0x1e0>
9d008e5c:	00e93821 	addu	a3,a3,t1
9d008e60:	00e23823 	subu	a3,a3,v0
9d008e64:	00e6001b 	divu	zero,a3,a2
9d008e68:	00c001f4 	teq	a2,zero,0x7
9d008e6c:	3065ffff 	andi	a1,v1,0xffff
9d008e70:	00003012 	mflo	a2
9d008e74:	00003810 	mfhi	a3
9d008e78:	00073c00 	sll	a3,a3,0x10
9d008e7c:	00e52825 	or	a1,a3,a1
9d008e80:	70c83002 	mul	a2,a2,t0
9d008e84:	00a6102b 	sltu	v0,a1,a2
9d008e88:	10400009 	beqz	v0,9d008eb0 <__umoddi3+0x230>
9d008e8c:	01441004 	sllv	v0,a0,t2
9d008e90:	00a92821 	addu	a1,a1,t1
9d008e94:	00a9102b 	sltu	v0,a1,t1
9d008e98:	14400005 	bnez	v0,9d008eb0 <__umoddi3+0x230>
9d008e9c:	01441004 	sllv	v0,a0,t2
9d008ea0:	00a6102b 	sltu	v0,a1,a2
9d008ea4:	54400001 	bnezl	v0,9d008eac <__umoddi3+0x22c>
9d008ea8:	00a92821 	addu	a1,a1,t1
9d008eac:	01441004 	sllv	v0,a0,t2
9d008eb0:	1000ffb5 	b	9d008d88 <__umoddi3+0x108>
9d008eb4:	00a62823 	subu	a1,a1,a2
9d008eb8:	00a7402b 	sltu	t0,a1,a3
9d008ebc:	1500005c 	bnez	t0,9d009030 <__umoddi3+0x3b0>
9d008ec0:	70ee7020 	clz	t6,a3
9d008ec4:	15c0000a 	bnez	t6,9d008ef0 <__umoddi3+0x270>
9d008ec8:	00e5402b 	sltu	t0,a3,a1
9d008ecc:	15000003 	bnez	t0,9d008edc <__umoddi3+0x25c>
9d008ed0:	0086402b 	sltu	t0,a0,a2
9d008ed4:	15000056 	bnez	t0,9d009030 <__umoddi3+0x3b0>
9d008ed8:	00000000 	nop
9d008edc:	00861023 	subu	v0,a0,a2
9d008ee0:	00a72823 	subu	a1,a1,a3
9d008ee4:	0082182b 	sltu	v1,a0,v0
9d008ee8:	03e00008 	jr	ra
9d008eec:	00a31823 	subu	v1,a1,v1
9d008ef0:	240b0020 	li	t3,32
9d008ef4:	016e5823 	subu	t3,t3,t6
9d008ef8:	01666006 	srlv	t4,a2,t3
9d008efc:	01c73804 	sllv	a3,a3,t6
9d008f00:	01873825 	or	a3,t4,a3
9d008f04:	01c54004 	sllv	t0,a1,t6
9d008f08:	00074c02 	srl	t1,a3,0x10
9d008f0c:	01652806 	srlv	a1,a1,t3
9d008f10:	00a9001b 	divu	zero,a1,t1
9d008f14:	012001f4 	teq	t1,zero,0x7
9d008f18:	01641006 	srlv	v0,a0,t3
9d008f1c:	00481025 	or	v0,v0,t0
9d008f20:	30e8ffff 	andi	t0,a3,0xffff
9d008f24:	00026402 	srl	t4,v0,0x10
9d008f28:	00002812 	mflo	a1
9d008f2c:	00005010 	mfhi	t2
9d008f30:	000a5400 	sll	t2,t2,0x10
9d008f34:	014c5025 	or	t2,t2,t4
9d008f38:	71051802 	mul	v1,t0,a1
9d008f3c:	0143602b 	sltu	t4,t2,v1
9d008f40:	1180000a 	beqz	t4,9d008f6c <__umoddi3+0x2ec>
9d008f44:	00a06825 	move	t5,a1
9d008f48:	01475021 	addu	t2,t2,a3
9d008f4c:	0147602b 	sltu	t4,t2,a3
9d008f50:	15800006 	bnez	t4,9d008f6c <__umoddi3+0x2ec>
9d008f54:	24adffff 	addiu	t5,a1,-1
9d008f58:	0143602b 	sltu	t4,t2,v1
9d008f5c:	51800004 	beqzl	t4,9d008f70 <__umoddi3+0x2f0>
9d008f60:	01435023 	subu	t2,t2,v1
9d008f64:	24adfffe 	addiu	t5,a1,-2
9d008f68:	01475021 	addu	t2,t2,a3
9d008f6c:	01435023 	subu	t2,t2,v1
9d008f70:	0149001b 	divu	zero,t2,t1
9d008f74:	012001f4 	teq	t1,zero,0x7
9d008f78:	00004812 	mflo	t1
9d008f7c:	00005010 	mfhi	t2
9d008f80:	000a5400 	sll	t2,t2,0x10
9d008f84:	71092802 	mul	a1,t0,t1
9d008f88:	3048ffff 	andi	t0,v0,0xffff
9d008f8c:	01484025 	or	t0,t2,t0
9d008f90:	0105102b 	sltu	v0,t0,a1
9d008f94:	1040000a 	beqz	v0,9d008fc0 <__umoddi3+0x340>
9d008f98:	01205025 	move	t2,t1
9d008f9c:	01074021 	addu	t0,t0,a3
9d008fa0:	0107102b 	sltu	v0,t0,a3
9d008fa4:	14400006 	bnez	v0,9d008fc0 <__umoddi3+0x340>
9d008fa8:	252affff 	addiu	t2,t1,-1
9d008fac:	0105102b 	sltu	v0,t0,a1
9d008fb0:	10400004 	beqz	v0,9d008fc4 <__umoddi3+0x344>
9d008fb4:	000d6400 	sll	t4,t5,0x10
9d008fb8:	252afffe 	addiu	t2,t1,-2
9d008fbc:	01074021 	addu	t0,t0,a3
9d008fc0:	000d6400 	sll	t4,t5,0x10
9d008fc4:	01c61004 	sllv	v0,a2,t6
9d008fc8:	018a6025 	or	t4,t4,t2
9d008fcc:	01820019 	multu	t4,v0
9d008fd0:	01054023 	subu	t0,t0,a1
9d008fd4:	01c41804 	sllv	v1,a0,t6
9d008fd8:	00006810 	mfhi	t5
9d008fdc:	010d202b 	sltu	a0,t0,t5
9d008fe0:	01a02825 	move	a1,t5
9d008fe4:	00006012 	mflo	t4
9d008fe8:	14800005 	bnez	a0,9d009000 <__umoddi3+0x380>
9d008fec:	00003012 	mflo	a2
9d008ff0:	150d0007 	bne	t0,t5,9d009010 <__umoddi3+0x390>
9d008ff4:	006c202b 	sltu	a0,v1,t4
9d008ff8:	10800006 	beqz	a0,9d009014 <__umoddi3+0x394>
9d008ffc:	00663023 	subu	a2,v1,a2
9d009000:	01823023 	subu	a2,t4,v0
9d009004:	01a73823 	subu	a3,t5,a3
9d009008:	0186602b 	sltu	t4,t4,a2
9d00900c:	00ec2823 	subu	a1,a3,t4
9d009010:	00663023 	subu	a2,v1,a2
9d009014:	0066182b 	sltu	v1,v1,a2
9d009018:	01054023 	subu	t0,t0,a1
9d00901c:	01031823 	subu	v1,t0,v1
9d009020:	01631004 	sllv	v0,v1,t3
9d009024:	01c63006 	srlv	a2,a2,t6
9d009028:	00461025 	or	v0,v0,a2
9d00902c:	01c31806 	srlv	v1,v1,t6
9d009030:	03e00008 	jr	ra
9d009034:	00000000 	nop

Disassembly of section .text:

9d009038 <get_encoder_flag>:
char rx_message[MAX_RX_MESSAGE];
volatile int pos = 0;
volatile int newPosFlag = 0;

int get_encoder_flag(){
    return newPosFlag;
9d009038:	8f828014 	lw	v0,-32748(gp)
}
9d00903c:	03e00008 	jr	ra
9d009040:	00000000 	nop

9d009044 <set_encoder_flag>:

void set_encoder_flag(int f){
    newPosFlag = f;
9d009044:	af848014 	sw	a0,-32748(gp)
}
9d009048:	03e00008 	jr	ra
9d00904c:	00000000 	nop

9d009050 <get_encoder_count>:

int get_encoder_count(){
    return pos;
9d009050:	8f828018 	lw	v0,-32744(gp)
}
9d009054:	03e00008 	jr	ra
9d009058:	00000000 	nop

9d00905c <U2ISR>:

void __ISR(_UART_2_VECTOR, IPL7SOFT) U2ISR(void) { 
9d00905c:	415de800 	rdpgpr	sp,sp
9d009060:	401a7000 	mfc0	k0,c0_epc
9d009064:	401b6000 	mfc0	k1,c0_status
9d009068:	27bdff80 	addiu	sp,sp,-128
9d00906c:	afbb007c 	sw	k1,124(sp)
9d009070:	7c1b7844 	ins	k1,zero,0x1,0xf
9d009074:	377b1c00 	ori	k1,k1,0x1c00
9d009078:	409b6000 	mtc0	k1,c0_status
9d00907c:	afbf0064 	sw	ra,100(sp)
9d009080:	afbe0060 	sw	s8,96(sp)
9d009084:	afb9005c 	sw	t9,92(sp)
9d009088:	afb80058 	sw	t8,88(sp)
9d00908c:	afb20054 	sw	s2,84(sp)
9d009090:	afb10050 	sw	s1,80(sp)
9d009094:	afb0004c 	sw	s0,76(sp)
9d009098:	afaf0048 	sw	t7,72(sp)
9d00909c:	afae0044 	sw	t6,68(sp)
9d0090a0:	afad0040 	sw	t5,64(sp)
9d0090a4:	afac003c 	sw	t4,60(sp)
9d0090a8:	afab0038 	sw	t3,56(sp)
9d0090ac:	afaa0034 	sw	t2,52(sp)
9d0090b0:	afa90030 	sw	t1,48(sp)
9d0090b4:	afa8002c 	sw	t0,44(sp)
9d0090b8:	afa70028 	sw	a3,40(sp)
9d0090bc:	afa60024 	sw	a2,36(sp)
9d0090c0:	afa50020 	sw	a1,32(sp)
9d0090c4:	afa4001c 	sw	a0,28(sp)
9d0090c8:	afa30018 	sw	v1,24(sp)
9d0090cc:	afa20014 	sw	v0,20(sp)
9d0090d0:	afa10010 	sw	at,16(sp)
9d0090d4:	00001012 	mflo	v0
9d0090d8:	afa2006c 	sw	v0,108(sp)
9d0090dc:	00001810 	mfhi	v1
9d0090e0:	afa30068 	sw	v1,104(sp)
9d0090e4:	03a0f025 	move	s8,sp
  char data = U2RXREG; // read the data
9d0090e8:	3c10bf80 	lui	s0,0xbf80
9d0090ec:	8e106230 	lw	s0,25136(s0)
9d0090f0:	7c108420 	seb	s0,s0
  if (data == '\n') {
9d0090f4:	2411000a 	li	s1,10
9d0090f8:	16110031 	bne	s0,s1,9d0091c0 <U2ISR+0x164>
9d0090fc:	00000000 	nop
    rx_message[rx_num_bytes] = '\0';
9d009100:	8f82801c 	lw	v0,-32740(gp)
9d009104:	3c04a000 	lui	a0,0xa000
9d009108:	24840010 	addiu	a0,a0,16
9d00910c:	00441021 	addu	v0,v0,a0
9d009110:	a0400000 	sb	zero,0(v0)
    sscanf(rx_message,"%d",&pos);
9d009114:	27868018 	addiu	a2,gp,-32744
9d009118:	3c059d00 	lui	a1,0x9d00
9d00911c:	0f40308b 	jal	9d00c22c <_dsscanf_dn>
9d009120:	24a57490 	addiu	a1,a1,29840
    newPosFlag = 1;
9d009124:	24100001 	li	s0,1
9d009128:	af908014 	sw	s0,-32748(gp)
    rx_num_bytes = 0;
9d00912c:	af80801c 	sw	zero,-32740(gp)
    // roll over if got more bytes than the size of the array
    if (rx_num_bytes >= MAX_RX_MESSAGE) {
      rx_num_bytes = 0;
    }
  }
  IFS1bits.U2RXIF = 0;
9d009130:	3c10bf88 	lui	s0,0xbf88
9d009134:	8e111040 	lw	s1,4160(s0)
9d009138:	7c11b584 	ins	s1,zero,0x16,0x1
9d00913c:	ae111040 	sw	s1,4160(s0)
}
9d009140:	03c0e825 	move	sp,s8
9d009144:	8fa2006c 	lw	v0,108(sp)
9d009148:	00400013 	mtlo	v0
9d00914c:	8fa30068 	lw	v1,104(sp)
9d009150:	00600011 	mthi	v1
9d009154:	8fbf0064 	lw	ra,100(sp)
9d009158:	8fbe0060 	lw	s8,96(sp)
9d00915c:	8fb9005c 	lw	t9,92(sp)
9d009160:	8fb80058 	lw	t8,88(sp)
9d009164:	8fb20054 	lw	s2,84(sp)
9d009168:	8fb10050 	lw	s1,80(sp)
9d00916c:	8fb0004c 	lw	s0,76(sp)
9d009170:	8faf0048 	lw	t7,72(sp)
9d009174:	8fae0044 	lw	t6,68(sp)
9d009178:	8fad0040 	lw	t5,64(sp)
9d00917c:	8fac003c 	lw	t4,60(sp)
9d009180:	8fab0038 	lw	t3,56(sp)
9d009184:	8faa0034 	lw	t2,52(sp)
9d009188:	8fa90030 	lw	t1,48(sp)
9d00918c:	8fa8002c 	lw	t0,44(sp)
9d009190:	8fa70028 	lw	a3,40(sp)
9d009194:	8fa60024 	lw	a2,36(sp)
9d009198:	8fa50020 	lw	a1,32(sp)
9d00919c:	8fa4001c 	lw	a0,28(sp)
9d0091a0:	8fa30018 	lw	v1,24(sp)
9d0091a4:	8fa20014 	lw	v0,20(sp)
9d0091a8:	8fa10010 	lw	at,16(sp)
9d0091ac:	8fbb007c 	lw	k1,124(sp)
9d0091b0:	27bd0080 	addiu	sp,sp,128
9d0091b4:	41dde800 	wrpgpr	sp,sp
9d0091b8:	409b6000 	mtc0	k1,c0_status
9d0091bc:	42000018 	eret
    rx_message[rx_num_bytes] = data;
9d0091c0:	8f91801c 	lw	s1,-32740(gp)
9d0091c4:	3c12a000 	lui	s2,0xa000
9d0091c8:	26520010 	addiu	s2,s2,16
9d0091cc:	02328821 	addu	s1,s1,s2
9d0091d0:	a2300000 	sb	s0,0(s1)
    ++rx_num_bytes;
9d0091d4:	8f90801c 	lw	s0,-32740(gp)
9d0091d8:	26100001 	addiu	s0,s0,1
9d0091dc:	af90801c 	sw	s0,-32740(gp)
    if (rx_num_bytes >= MAX_RX_MESSAGE) {
9d0091e0:	8f90801c 	lw	s0,-32740(gp)
9d0091e4:	2a100064 	slti	s0,s0,100
9d0091e8:	5200ffd1 	beqzl	s0,9d009130 <U2ISR+0xd4>
9d0091ec:	af80801c 	sw	zero,-32740(gp)
  IFS1bits.U2RXIF = 0;
9d0091f0:	1000ffd0 	b	9d009134 <U2ISR+0xd8>
9d0091f4:	3c10bf88 	lui	s0,0xbf88

9d0091f8 <WriteUART2>:

// Write a character array using UART2
void WriteUART2(const char * string) {
  while (*string != '\0') {
9d0091f8:	80820000 	lb	v0,0(a0)
9d0091fc:	1040000c 	beqz	v0,9d009230 <WriteUART2+0x38>
9d009200:	00000000 	nop
    while (U2STAbits.UTXBF) {
9d009204:	3c06bf80 	lui	a2,0xbf80
      ; // wait until tx buffer isn't full
    }
    U2TXREG = *string;
9d009208:	3c05bf80 	lui	a1,0xbf80
    while (U2STAbits.UTXBF) {
9d00920c:	8cc36210 	lw	v1,25104(a2)
9d009210:	7c630240 	ext	v1,v1,0x9,0x1
9d009214:	1460fffd 	bnez	v1,9d00920c <WriteUART2+0x14>
9d009218:	00000000 	nop
    U2TXREG = *string;
9d00921c:	aca26220 	sw	v0,25120(a1)
    ++string;
9d009220:	24840001 	addiu	a0,a0,1
  while (*string != '\0') {
9d009224:	80820000 	lb	v0,0(a0)
9d009228:	1440fff8 	bnez	v0,9d00920c <WriteUART2+0x14>
9d00922c:	00000000 	nop
  }
}
9d009230:	03e00008 	jr	ra
9d009234:	00000000 	nop

9d009238 <UART2_Startup>:

//  Initialize the serial port - UART2 
void UART2_Startup() {
9d009238:	27bdfff8 	addiu	sp,sp,-8
9d00923c:	afbf0004 	sw	ra,4(sp)
  // disable interrupts
  __builtin_disable_interrupts();
9d009240:	41626000 	di	v0
9d009244:	000000c0 	ehb

  // set UART2 TX and RX pins
  ANSELBCLR = 0b11;
9d009248:	3c02bf88 	lui	v0,0xbf88
9d00924c:	24030003 	li	v1,3
9d009250:	ac436104 	sw	v1,24836(v0)
  U2RXRbits.U2RXR = 0b0010; // U2RX on B1, pin 5
9d009254:	3c02bf81 	lui	v0,0xbf81
9d009258:	9043fa58 	lbu	v1,-1448(v0)
9d00925c:	24040002 	li	a0,2
9d009260:	7c831804 	ins	v1,a0,0x0,0x4
9d009264:	a043fa58 	sb	v1,-1448(v0)
  RPB0Rbits.RPB0R = 0b0010; // U2TX on B0, pin 4
9d009268:	3c02bf81 	lui	v0,0xbf81
9d00926c:	9043fb2c 	lbu	v1,-1236(v0)
9d009270:	7c831804 	ins	v1,a0,0x0,0x4
9d009274:	a043fb2c 	sb	v1,-1236(v0)

  // turn on UART2 with interrupt on RX
  U2MODEbits.BRGH = 0; // set baud to NU32_DESIRED_BAUD
9d009278:	3c02bf80 	lui	v0,0xbf80
9d00927c:	94436200 	lhu	v1,25088(v0)
9d009280:	7c0318c4 	ins	v1,zero,0x3,0x1
9d009284:	a4436200 	sh	v1,25088(v0)
  U2BRG = ((NU32DIP_SYS_FREQ / UART2_DESIRED_BAUD) / 16) - 1;
9d009288:	3c03bf80 	lui	v1,0xbf80
9d00928c:	2404000c 	li	a0,12
9d009290:	ac646240 	sw	a0,25152(v1)

  // 8 bit, no parity bit, and 1 stop bit (8N1 setup)
  U2MODEbits.PDSEL = 0;
9d009294:	94436200 	lhu	v1,25088(v0)
9d009298:	7c031044 	ins	v1,zero,0x1,0x2
9d00929c:	a4436200 	sh	v1,25088(v0)
  U2MODEbits.STSEL = 0;
9d0092a0:	94436200 	lhu	v1,25088(v0)
9d0092a4:	7c030004 	ins	v1,zero,0x0,0x1
9d0092a8:	a4436200 	sh	v1,25088(v0)

  // configure TX & RX pins as output & input pins
  U2STAbits.UTXEN = 1;
9d0092ac:	3c03bf80 	lui	v1,0xbf80
9d0092b0:	8c656210 	lw	a1,25104(v1)
9d0092b4:	24040001 	li	a0,1
9d0092b8:	7c855284 	ins	a1,a0,0xa,0x1
9d0092bc:	ac656210 	sw	a1,25104(v1)
  U2STAbits.URXEN = 1;
9d0092c0:	8c656210 	lw	a1,25104(v1)
9d0092c4:	7c856304 	ins	a1,a0,0xc,0x1
9d0092c8:	ac656210 	sw	a1,25104(v1)

  U2STAbits.URXISEL = 0; // interrupt when a char is rcvd
9d0092cc:	8c656210 	lw	a1,25104(v1)
9d0092d0:	7c053984 	ins	a1,zero,0x6,0x2
9d0092d4:	ac656210 	sw	a1,25104(v1)
  IPC9bits.U2IP = 7;
9d0092d8:	3c03bf88 	lui	v1,0xbf88
9d0092dc:	8c651120 	lw	a1,4384(v1)
9d0092e0:	24060007 	li	a2,7
9d0092e4:	7cc56284 	ins	a1,a2,0xa,0x3
9d0092e8:	ac651120 	sw	a1,4384(v1)
  IPC9bits.U2IS = 0;
9d0092ec:	8c651120 	lw	a1,4384(v1)
9d0092f0:	7c054a04 	ins	a1,zero,0x8,0x2
9d0092f4:	ac651120 	sw	a1,4384(v1)
  IFS1bits.U2RXIF = 0;
9d0092f8:	3c03bf88 	lui	v1,0xbf88
9d0092fc:	8c651040 	lw	a1,4160(v1)
9d009300:	7c05b584 	ins	a1,zero,0x16,0x1
9d009304:	ac651040 	sw	a1,4160(v1)
  IEC1bits.U2RXIE = 1;
9d009308:	3c03bf88 	lui	v1,0xbf88
9d00930c:	8c651070 	lw	a1,4208(v1)
9d009310:	7c85b584 	ins	a1,a0,0x16,0x1
9d009314:	ac651070 	sw	a1,4208(v1)

  // enable the uart
  U2MODEbits.ON = 1;
9d009318:	94436200 	lhu	v1,25088(v0)
9d00931c:	7c837bc4 	ins	v1,a0,0xf,0x1
9d009320:	a4436200 	sh	v1,25088(v0)

  __builtin_enable_interrupts();
9d009324:	41626020 	ei	v0
}
9d009328:	8fbf0004 	lw	ra,4(sp)
9d00932c:	03e00008 	jr	ra
9d009330:	27bd0008 	addiu	sp,sp,8

Disassembly of section .text.__scan_i:

9d009334 <__scan_i>:
9d009334:	27bdffb8 	addiu	sp,sp,-72
9d009338:	afb20028 	sw	s2,40(sp)
9d00933c:	8cc20010 	lw	v0,16(a2)
9d009340:	8cd20008 	lw	s2,8(a2)
9d009344:	afb50034 	sw	s5,52(sp)
9d009348:	afb40030 	sw	s4,48(sp)
9d00934c:	afb10024 	sw	s1,36(sp)
9d009350:	afbf0044 	sw	ra,68(sp)
9d009354:	afbe0040 	sw	s8,64(sp)
9d009358:	afb7003c 	sw	s7,60(sp)
9d00935c:	afb60038 	sw	s6,56(sp)
9d009360:	afb3002c 	sw	s3,44(sp)
9d009364:	afb00020 	sw	s0,32(sp)
9d009368:	0080a825 	move	s5,a0
9d00936c:	afa5004c 	sw	a1,76(sp)
9d009370:	00e0a025 	move	s4,a3
9d009374:	afa20018 	sw	v0,24(sp)
9d009378:	0f402bcc 	jal	9d00af30 <__skipws>
9d00937c:	8cd1000c 	lw	s1,12(a2)
9d009380:	16400002 	bnez	s2,9d00938c <__scan_i+0x58>
9d009384:	8fa30018 	lw	v1,24(sp)
9d009388:	2472ffff 	addiu	s2,v1,-1
9d00938c:	8e830000 	lw	v1,0(s4)
9d009390:	241e000a 	li	s8,10
9d009394:	00009825 	move	s3,zero
9d009398:	00621821 	addu	v1,v1,v0
9d00939c:	ae830000 	sw	v1,0(s4)
9d0093a0:	0000b825 	move	s7,zero
9d0093a4:	02f2102a 	slt	v0,s7,s2
9d0093a8:	10400046 	beqz	v0,9d0094c4 <__scan_i+0x190>
9d0093ac:	8fa20018 	lw	v0,24(sp)
9d0093b0:	2442ffff 	addiu	v0,v0,-1
9d0093b4:	02e2102a 	slt	v0,s7,v0
9d0093b8:	10400043 	beqz	v0,9d0094c8 <__scan_i+0x194>
9d0093bc:	02371021 	addu	v0,s1,s7
9d0093c0:	8ea2003c 	lw	v0,60(s5)
9d0093c4:	8ea4004c 	lw	a0,76(s5)
9d0093c8:	0044202b 	sltu	a0,v0,a0
9d0093cc:	1080000f 	beqz	a0,9d00940c <__scan_i+0xd8>
9d0093d0:	24440001 	addiu	a0,v0,1
9d0093d4:	aea4003c 	sw	a0,60(s5)
9d0093d8:	90500000 	lbu	s0,0(v0)
9d0093dc:	2602ffd5 	addiu	v0,s0,-43
9d0093e0:	7c020844 	ins	v0,zero,0x1,0x1
9d0093e4:	00571025 	or	v0,v0,s7
9d0093e8:	1440001d 	bnez	v0,9d009460 <__scan_i+0x12c>
9d0093ec:	00000000 	nop
9d0093f0:	a2300000 	sb	s0,0(s1)
9d0093f4:	8e820000 	lw	v0,0(s4)
9d0093f8:	24130001 	li	s3,1
9d0093fc:	24170001 	li	s7,1
9d009400:	24420001 	addiu	v0,v0,1
9d009404:	1000ffe7 	b	9d0093a4 <__scan_i+0x70>
9d009408:	ae820000 	sw	v0,0(s4)
9d00940c:	0f402b49 	jal	9d00ad24 <__shgetc>
9d009410:	02a02025 	move	a0,s5
9d009414:	00408025 	move	s0,v0
9d009418:	2402ffff 	li	v0,-1
9d00941c:	1602fff0 	bne	s0,v0,9d0093e0 <__scan_i+0xac>
9d009420:	2602ffd5 	addiu	v0,s0,-43
9d009424:	16e00028 	bnez	s7,9d0094c8 <__scan_i+0x194>
9d009428:	02371021 	addu	v0,s1,s7
9d00942c:	8fbf0044 	lw	ra,68(sp)
9d009430:	02001025 	move	v0,s0
9d009434:	8fbe0040 	lw	s8,64(sp)
9d009438:	8fb7003c 	lw	s7,60(sp)
9d00943c:	8fb60038 	lw	s6,56(sp)
9d009440:	8fb50034 	lw	s5,52(sp)
9d009444:	8fb40030 	lw	s4,48(sp)
9d009448:	8fb3002c 	lw	s3,44(sp)
9d00944c:	8fb20028 	lw	s2,40(sp)
9d009450:	8fb10024 	lw	s1,36(sp)
9d009454:	8fb00020 	lw	s0,32(sp)
9d009458:	03e00008 	jr	ra
9d00945c:	27bd0048 	addiu	sp,sp,72
9d009460:	16f30008 	bne	s7,s3,9d009484 <__scan_i+0x150>
9d009464:	0237b021 	addu	s6,s1,s7
9d009468:	2402000a 	li	v0,10
9d00946c:	17c20026 	bne	s8,v0,9d009508 <__scan_i+0x1d4>
9d009470:	26f30001 	addiu	s3,s7,1
9d009474:	3a020030 	xori	v0,s0,0x30
9d009478:	24040008 	li	a0,8
9d00947c:	0082f00a 	movz	s8,a0,v0
9d009480:	0002980b 	movn	s3,zero,v0
9d009484:	2602ffd0 	addiu	v0,s0,-48
9d009488:	2c42000a 	sltiu	v0,v0,10
9d00948c:	14400043 	bnez	v0,9d00959c <__scan_i+0x268>
9d009490:	24020010 	li	v0,16
9d009494:	57c20006 	bnel	s8,v0,9d0094b0 <__scan_i+0x17c>
9d009498:	8ea2004c 	lw	v0,76(s5)
9d00949c:	0f4030bc 	jal	9d00c2f0 <isxdigit>
9d0094a0:	02002025 	move	a0,s0
9d0094a4:	54400043 	bnezl	v0,9d0095b4 <__scan_i+0x280>
9d0094a8:	a2d00000 	sb	s0,0(s6)
9d0094ac:	8ea2004c 	lw	v0,76(s5)
9d0094b0:	10400005 	beqz	v0,9d0094c8 <__scan_i+0x194>
9d0094b4:	02371021 	addu	v0,s1,s7
9d0094b8:	8ea2003c 	lw	v0,60(s5)
9d0094bc:	2442ffff 	addiu	v0,v0,-1
9d0094c0:	aea2003c 	sw	v0,60(s5)
9d0094c4:	02371021 	addu	v0,s1,s7
9d0094c8:	a0400000 	sb	zero,0(v0)
9d0094cc:	2402000a 	li	v0,10
9d0094d0:	17c2003d 	bne	s8,v0,9d0095c8 <__scan_i+0x294>
9d0094d4:	2406000a 	li	a2,10
9d0094d8:	27a50010 	addiu	a1,sp,16
9d0094dc:	0f403029 	jal	9d00c0a4 <strtoll>
9d0094e0:	02202025 	move	a0,s1
9d0094e4:	8fa4004c 	lw	a0,76(sp)
9d0094e8:	8fb00010 	lw	s0,16(sp)
9d0094ec:	ac820000 	sw	v0,0(a0)
9d0094f0:	02118826 	xor	s1,s0,s1
9d0094f4:	2402fffe 	li	v0,-2
9d0094f8:	24100001 	li	s0,1
9d0094fc:	ac830004 	sw	v1,4(a0)
9d009500:	1000ffca 	b	9d00942c <__scan_i+0xf8>
9d009504:	0051800a 	movz	s0,v0,s1
9d009508:	24020008 	li	v0,8
9d00950c:	17c20021 	bne	s8,v0,9d009594 <__scan_i+0x260>
9d009510:	36020020 	ori	v0,s0,0x20
9d009514:	24040078 	li	a0,120
9d009518:	5444ffda 	bnel	v0,a0,9d009484 <__scan_i+0x150>
9d00951c:	00009825 	move	s3,zero
9d009520:	8ea2003c 	lw	v0,60(s5)
9d009524:	8ea4004c 	lw	a0,76(s5)
9d009528:	0044202b 	sltu	a0,v0,a0
9d00952c:	10800015 	beqz	a0,9d009584 <__scan_i+0x250>
9d009530:	00000000 	nop
9d009534:	24440001 	addiu	a0,v0,1
9d009538:	aea4003c 	sw	a0,60(s5)
9d00953c:	90420000 	lbu	v0,0(v0)
9d009540:	8ea4004c 	lw	a0,76(s5)
9d009544:	10800004 	beqz	a0,9d009558 <__scan_i+0x224>
9d009548:	00000000 	nop
9d00954c:	8ea5003c 	lw	a1,60(s5)
9d009550:	24a5ffff 	addiu	a1,a1,-1
9d009554:	aea5003c 	sw	a1,60(s5)
9d009558:	0f4030bc 	jal	9d00c2f0 <isxdigit>
9d00955c:	00402025 	move	a0,v0
9d009560:	5040ffd3 	beqzl	v0,9d0094b0 <__scan_i+0x17c>
9d009564:	8ea2004c 	lw	v0,76(s5)
9d009568:	a2d00000 	sb	s0,0(s6)
9d00956c:	8e820000 	lw	v0,0(s4)
9d009570:	0260b825 	move	s7,s3
9d009574:	241e0010 	li	s8,16
9d009578:	24420001 	addiu	v0,v0,1
9d00957c:	1000ff89 	b	9d0093a4 <__scan_i+0x70>
9d009580:	ae820000 	sw	v0,0(s4)
9d009584:	0f402b49 	jal	9d00ad24 <__shgetc>
9d009588:	02a02025 	move	a0,s5
9d00958c:	1000ffed 	b	9d009544 <__scan_i+0x210>
9d009590:	8ea4004c 	lw	a0,76(s5)
9d009594:	1000ffbb 	b	9d009484 <__scan_i+0x150>
9d009598:	00009825 	move	s3,zero
9d00959c:	24020008 	li	v0,8
9d0095a0:	17c20003 	bne	s8,v0,9d0095b0 <__scan_i+0x27c>
9d0095a4:	2a020038 	slti	v0,s0,56
9d0095a8:	2404000a 	li	a0,10
9d0095ac:	0082f00a 	movz	s8,a0,v0
9d0095b0:	a2d00000 	sb	s0,0(s6)
9d0095b4:	8e820000 	lw	v0,0(s4)
9d0095b8:	26f70001 	addiu	s7,s7,1
9d0095bc:	24420001 	addiu	v0,v0,1
9d0095c0:	1000ff78 	b	9d0093a4 <__scan_i+0x70>
9d0095c4:	ae820000 	sw	v0,0(s4)
9d0095c8:	03c03025 	move	a2,s8
9d0095cc:	27a50010 	addiu	a1,sp,16
9d0095d0:	0f40301e 	jal	9d00c078 <strtoull>
9d0095d4:	02202025 	move	a0,s1
9d0095d8:	1000ffc3 	b	9d0094e8 <__scan_i+0x1b4>
9d0095dc:	8fa4004c 	lw	a0,76(sp)

Disassembly of section .text:

9d0095e0 <NU32DIP_Startup>:
#include "nu32dip.h"

void NU32DIP_Startup() {
9d0095e0:	27bdfff8 	addiu	sp,sp,-8
9d0095e4:	afbf0004 	sw	ra,4(sp)
    __builtin_disable_interrupts(); // disable interrupts while initializing things
9d0095e8:	41626000 	di	v0
9d0095ec:	000000c0 	ehb

    // set the CP0 CONFIG register to indicate that kseg0 is cacheable (0x3)
    __builtin_mtc0(_CP0_CONFIG, _CP0_CONFIG_SELECT, 0xa4210583);
9d0095f0:	3c02a421 	lui	v0,0xa421
9d0095f4:	24420583 	addiu	v0,v0,1411
9d0095f8:	40828000 	mtc0	v0,c0_config
9d0095fc:	000000c0 	ehb

    // 0 data RAM access wait states
    BMXCONbits.BMXWSDRM = 0x0;
9d009600:	3c02bf88 	lui	v0,0xbf88
9d009604:	8c432000 	lw	v1,8192(v0)
9d009608:	7c033184 	ins	v1,zero,0x6,0x1
9d00960c:	ac432000 	sw	v1,8192(v0)

    // enable multi vector interrupts
    INTCONbits.MVEC = 0x1;
9d009610:	3c02bf88 	lui	v0,0xbf88
9d009614:	8c441000 	lw	a0,4096(v0)
9d009618:	24030001 	li	v1,1
9d00961c:	7c646304 	ins	a0,v1,0xc,0x1
9d009620:	ac441000 	sw	a0,4096(v0)

    // disable JTAG to get pins back
    DDPCONbits.JTAGEN = 0;
9d009624:	3c02bf81 	lui	v0,0xbf81
9d009628:	9444f200 	lhu	a0,-3584(v0)
9d00962c:	7c0418c4 	ins	a0,zero,0x3,0x1
9d009630:	a444f200 	sh	a0,-3584(v0)

    // do your TRIS and LAT commands here
    TRISBCLR = 0b110000; // B4 and B5 LEDs
9d009634:	3c02bf88 	lui	v0,0xbf88
9d009638:	24040030 	li	a0,48
9d00963c:	ac446114 	sw	a0,24852(v0)
    TRISASET = 0b010000; // A4 user button
9d009640:	3c02bf88 	lui	v0,0xbf88
9d009644:	24040010 	li	a0,16
9d009648:	ac446018 	sw	a0,24600(v0)
    //NU32_LED1 = 1; // LED1 is off
    NU32DIP_YELLOW = 1;
9d00964c:	3c02bf88 	lui	v0,0xbf88
9d009650:	94446130 	lhu	a0,24880(v0)
9d009654:	7c642944 	ins	a0,v1,0x5,0x1
9d009658:	a4446130 	sh	a0,24880(v0)
    //NU32_LED2 = 0; // LED2 is on
    NU32DIP_GREEN = 0;
9d00965c:	94446130 	lhu	a0,24880(v0)
9d009660:	7c042104 	ins	a0,zero,0x4,0x1
9d009664:	a4446130 	sh	a0,24880(v0)

    //UART1 pins
    U1RXRbits.U1RXR = 0b0000; // Set A2 to U1RX
9d009668:	3c02bf81 	lui	v0,0xbf81
9d00966c:	9044fa50 	lbu	a0,-1456(v0)
9d009670:	7c041804 	ins	a0,zero,0x0,0x4
9d009674:	a044fa50 	sb	a0,-1456(v0)
    RPB3Rbits.RPB3R = 0b0001; // Set B3 to U1TX
9d009678:	3c02bf81 	lui	v0,0xbf81
9d00967c:	9044fb38 	lbu	a0,-1224(v0)
9d009680:	7c641804 	ins	a0,v1,0x0,0x4
9d009684:	a044fb38 	sb	a0,-1224(v0)

    // turn on UART1 without an interrupt
    U1MODEbits.BRGH = 0; // set baud to NU32_DESIRED_BAUD
9d009688:	3c02bf80 	lui	v0,0xbf80
9d00968c:	94446000 	lhu	a0,24576(v0)
9d009690:	7c0418c4 	ins	a0,zero,0x3,0x1
9d009694:	a4446000 	sh	a0,24576(v0)
    U1BRG = ((NU32DIP_SYS_FREQ / NU32DIP_DESIRED_BAUD) / 16) - 1;
9d009698:	3c04bf80 	lui	a0,0xbf80
9d00969c:	2405000c 	li	a1,12
9d0096a0:	ac856040 	sw	a1,24640(a0)

    // 8 bit, no parity bit, and 1 stop bit (8N1 setup)
    U1MODEbits.PDSEL = 0;
9d0096a4:	94446000 	lhu	a0,24576(v0)
9d0096a8:	7c041044 	ins	a0,zero,0x1,0x2
9d0096ac:	a4446000 	sh	a0,24576(v0)
    U1MODEbits.STSEL = 0;
9d0096b0:	94446000 	lhu	a0,24576(v0)
9d0096b4:	7c040004 	ins	a0,zero,0x0,0x1
9d0096b8:	a4446000 	sh	a0,24576(v0)

    // configure TX & RX pins as output & input pins
    U1STAbits.UTXEN = 1;
9d0096bc:	3c04bf80 	lui	a0,0xbf80
9d0096c0:	8c856010 	lw	a1,24592(a0)
9d0096c4:	7c655284 	ins	a1,v1,0xa,0x1
9d0096c8:	ac856010 	sw	a1,24592(a0)
    U1STAbits.URXEN = 1;
9d0096cc:	8c856010 	lw	a1,24592(a0)
9d0096d0:	7c656304 	ins	a1,v1,0xc,0x1
9d0096d4:	ac856010 	sw	a1,24592(a0)
    // configure without hardware flow control
    U1MODEbits.UEN = 0;
9d0096d8:	94446000 	lhu	a0,24576(v0)
9d0096dc:	7c044a04 	ins	a0,zero,0x8,0x2
9d0096e0:	a4446000 	sh	a0,24576(v0)

    // enable the uart
    U1MODEbits.ON = 1;
9d0096e4:	94446000 	lhu	a0,24576(v0)
9d0096e8:	7c647bc4 	ins	a0,v1,0xf,0x1
9d0096ec:	a4446000 	sh	a0,24576(v0)

    __builtin_enable_interrupts();
9d0096f0:	41626020 	ei	v0
}
9d0096f4:	8fbf0004 	lw	ra,4(sp)
9d0096f8:	03e00008 	jr	ra
9d0096fc:	27bd0008 	addiu	sp,sp,8

9d009700 <NU32DIP_ReadUART1>:
// block other functions until you get a '\r' or '\n'
// send the pointer to your char array and the number of elements in the array

void NU32DIP_ReadUART1(char * message, int maxLength) {
    char data = 0;
    int complete = 0, num_bytes = 0;
9d009700:	00001025 	move	v0,zero
    // loop until you get a '\r' or '\n'
    while (!complete) {
        if (U1STAbits.URXDA) { // if data is available
9d009704:	3c0abf80 	lui	t2,0xbf80
            data = U1RXREG; // read the data
9d009708:	3c09bf80 	lui	t1,0xbf80
            if ((data == '\n') || (data == '\r')) {
9d00970c:	2408000a 	li	t0,10
9d009710:	2407000d 	li	a3,13
        if (U1STAbits.URXDA) { // if data is available
9d009714:	8d436010 	lw	v1,24592(t2)
9d009718:	30630001 	andi	v1,v1,0x1
9d00971c:	1060fffd 	beqz	v1,9d009714 <NU32DIP_ReadUART1+0x14>
9d009720:	00000000 	nop
            data = U1RXREG; // read the data
9d009724:	8d236030 	lw	v1,24624(t1)
9d009728:	7c031c20 	seb	v1,v1
            if ((data == '\n') || (data == '\r')) {
9d00972c:	5068000b 	beql	v1,t0,9d00975c <NU32DIP_ReadUART1+0x5c>
9d009730:	00822021 	addu	a0,a0,v0
9d009734:	10670008 	beq	v1,a3,9d009758 <NU32DIP_ReadUART1+0x58>
9d009738:	24460001 	addiu	a2,v0,1
                complete = 1;
            } else {
                message[num_bytes] = data;
                ++num_bytes;
                // roll over if the array is too small
                if (num_bytes >= maxLength) {
9d00973c:	00c5302a 	slt	a2,a2,a1
                    num_bytes = 0;
9d009740:	244b0001 	addiu	t3,v0,1
                message[num_bytes] = data;
9d009744:	00821021 	addu	v0,a0,v0
9d009748:	a0430000 	sb	v1,0(v0)
9d00974c:	01601025 	move	v0,t3
9d009750:	1000fff0 	b	9d009714 <NU32DIP_ReadUART1+0x14>
9d009754:	0006100a 	movz	v0,zero,a2
                }
            }
        }
    }
    // end the string
    message[num_bytes] = '\0';
9d009758:	00822021 	addu	a0,a0,v0
}
9d00975c:	03e00008 	jr	ra
9d009760:	a0800000 	sb	zero,0(a0)

9d009764 <NU32DIP_WriteUART1>:

// Write a character array using UART1

void NU32DIP_WriteUART1(const char * string) {
    while (*string != '\0') {
9d009764:	80820000 	lb	v0,0(a0)
9d009768:	1040000b 	beqz	v0,9d009798 <NU32DIP_WriteUART1+0x34>
9d00976c:	3c06bf80 	lui	a2,0xbf80
        while (U1STAbits.UTXBF) {
            ; // wait until tx buffer isn't full
        }
        U1TXREG = *string;
9d009770:	3c05bf80 	lui	a1,0xbf80
        while (U1STAbits.UTXBF) {
9d009774:	8cc36010 	lw	v1,24592(a2)
9d009778:	7c630240 	ext	v1,v1,0x9,0x1
9d00977c:	1460fffd 	bnez	v1,9d009774 <NU32DIP_WriteUART1+0x10>
9d009780:	00000000 	nop
        U1TXREG = *string;
9d009784:	aca26020 	sw	v0,24608(a1)
        ++string;
9d009788:	24840001 	addiu	a0,a0,1
    while (*string != '\0') {
9d00978c:	80820000 	lb	v0,0(a0)
9d009790:	1440fff8 	bnez	v0,9d009774 <NU32DIP_WriteUART1+0x10>
9d009794:	00000000 	nop
    }
}
9d009798:	03e00008 	jr	ra
9d00979c:	00000000 	nop

Disassembly of section .text.__pop_int:

9d0097a0 <__pop_int>:
9d0097a0:	24020088 	li	v0,136
9d0097a4:	10a2003f 	beq	a1,v0,9d0098a4 <__pop_int+0x104>
9d0097a8:	28a20089 	slti	v0,a1,137
9d0097ac:	1040001a 	beqz	v0,9d009818 <__pop_int+0x78>
9d0097b0:	24020081 	li	v0,129
9d0097b4:	10a20054 	beq	a1,v0,9d009908 <__pop_int+0x168>
9d0097b8:	28a20082 	slti	v0,a1,130
9d0097bc:	10400005 	beqz	v0,9d0097d4 <__pop_int+0x34>
9d0097c0:	24020080 	li	v0,128
9d0097c4:	50a20051 	beql	a1,v0,9d00990c <__pop_int+0x16c>
9d0097c8:	8ce20000 	lw	v0,0(a3)
9d0097cc:	03e00008 	jr	ra
9d0097d0:	00001025 	move	v0,zero
9d0097d4:	24020082 	li	v0,130
9d0097d8:	50a2003b 	beql	a1,v0,9d0098c8 <__pop_int+0x128>
9d0097dc:	8ce20000 	lw	v0,0(a3)
9d0097e0:	24020084 	li	v0,132
9d0097e4:	14a2fff9 	bne	a1,v0,9d0097cc <__pop_int+0x2c>
9d0097e8:	00000000 	nop
9d0097ec:	8ce20000 	lw	v0,0(a3)
9d0097f0:	24430004 	addiu	v1,v0,4
9d0097f4:	8c420000 	lw	v0,0(v0)
9d0097f8:	10c00027 	beqz	a2,9d009898 <__pop_int+0xf8>
9d0097fc:	ace30000 	sw	v1,0(a3)
9d009800:	7c021620 	seh	v0,v0
9d009804:	ac820000 	sw	v0,0(a0)
9d009808:	000217c3 	sra	v0,v0,0x1f
9d00980c:	ac820004 	sw	v0,4(a0)
9d009810:	03e00008 	jr	ra
9d009814:	24020001 	li	v0,1
9d009818:	240200a0 	li	v0,160
9d00981c:	50a20036 	beql	a1,v0,9d0098f8 <__pop_int+0x158>
9d009820:	8ce20000 	lw	v0,0(a3)
9d009824:	28a200a1 	slti	v0,a1,161
9d009828:	10400010 	beqz	v0,9d00986c <__pop_int+0xcc>
9d00982c:	24020090 	li	v0,144
9d009830:	14a2ffe6 	bne	a1,v0,9d0097cc <__pop_int+0x2c>
9d009834:	00000000 	nop
9d009838:	8ce20000 	lw	v0,0(a3)
9d00983c:	24420007 	addiu	v0,v0,7
9d009840:	7c021004 	ins	v0,zero,0x0,0x3
9d009844:	8c480000 	lw	t0,0(v0)
9d009848:	8c490004 	lw	t1,4(v0)
9d00984c:	24420008 	addiu	v0,v0,8
9d009850:	ace20000 	sw	v0,0(a3)
9d009854:	ac880000 	sw	t0,0(a0)
9d009858:	ac890004 	sw	t1,4(a0)
9d00985c:	10c00001 	beqz	a2,9d009864 <__pop_int+0xc4>
9d009860:	24020001 	li	v0,1
9d009864:	03e00008 	jr	ra
9d009868:	00000000 	nop
9d00986c:	240200c0 	li	v0,192
9d009870:	50a20005 	beql	a1,v0,9d009888 <__pop_int+0xe8>
9d009874:	8ce20000 	lw	v0,0(a3)
9d009878:	240200f0 	li	v0,240
9d00987c:	14a2ffd3 	bne	a1,v0,9d0097cc <__pop_int+0x2c>
9d009880:	00000000 	nop
9d009884:	8ce20000 	lw	v0,0(a3)
9d009888:	24430004 	addiu	v1,v0,4
9d00988c:	ace30000 	sw	v1,0(a3)
9d009890:	10000002 	b	9d00989c <__pop_int+0xfc>
9d009894:	8c420000 	lw	v0,0(v0)
9d009898:	3042ffff 	andi	v0,v0,0xffff
9d00989c:	10000020 	b	9d009920 <__pop_int+0x180>
9d0098a0:	ac820000 	sw	v0,0(a0)
9d0098a4:	8ce20000 	lw	v0,0(a3)
9d0098a8:	24430004 	addiu	v1,v0,4
9d0098ac:	8c420000 	lw	v0,0(v0)
9d0098b0:	10c00003 	beqz	a2,9d0098c0 <__pop_int+0x120>
9d0098b4:	ace30000 	sw	v1,0(a3)
9d0098b8:	1000ffd2 	b	9d009804 <__pop_int+0x64>
9d0098bc:	7c021420 	seb	v0,v0
9d0098c0:	1000fff6 	b	9d00989c <__pop_int+0xfc>
9d0098c4:	304200ff 	andi	v0,v0,0xff
9d0098c8:	24420007 	addiu	v0,v0,7
9d0098cc:	7c021004 	ins	v0,zero,0x0,0x3
9d0098d0:	8c480000 	lw	t0,0(v0)
9d0098d4:	8c490004 	lw	t1,4(v0)
9d0098d8:	24420008 	addiu	v0,v0,8
9d0098dc:	ace20000 	sw	v0,0(a3)
9d0098e0:	ac880000 	sw	t0,0(a0)
9d0098e4:	ac890004 	sw	t1,4(a0)
9d0098e8:	10c0ffde 	beqz	a2,9d009864 <__pop_int+0xc4>
9d0098ec:	24020001 	li	v0,1
9d0098f0:	03e00008 	jr	ra
9d0098f4:	00000000 	nop
9d0098f8:	24430004 	addiu	v1,v0,4
9d0098fc:	ace30000 	sw	v1,0(a3)
9d009900:	1000ffc0 	b	9d009804 <__pop_int+0x64>
9d009904:	8c420000 	lw	v0,0(v0)
9d009908:	8ce20000 	lw	v0,0(a3)
9d00990c:	24430004 	addiu	v1,v0,4
9d009910:	ace30000 	sw	v1,0(a3)
9d009914:	8c420000 	lw	v0,0(v0)
9d009918:	14c0ffbb 	bnez	a2,9d009808 <__pop_int+0x68>
9d00991c:	ac820000 	sw	v0,0(a0)
9d009920:	1000ffbb 	b	9d009810 <__pop_int+0x70>
9d009924:	ac800004 	sw	zero,4(a0)

Disassembly of section .text.__push_int:

9d009928 <__push_int>:
9d009928:	24020088 	li	v0,136
9d00992c:	50a2003c 	beql	a1,v0,9d009a20 <__push_int+0xf8>
9d009930:	8ce20000 	lw	v0,0(a3)
9d009934:	28a20089 	slti	v0,a1,137
9d009938:	10400019 	beqz	v0,9d0099a0 <__push_int+0x78>
9d00993c:	24020081 	li	v0,129
9d009940:	50a20040 	beql	a1,v0,9d009a44 <__push_int+0x11c>
9d009944:	8ce20000 	lw	v0,0(a3)
9d009948:	28a20082 	slti	v0,a1,130
9d00994c:	10400005 	beqz	v0,9d009964 <__push_int+0x3c>
9d009950:	24020080 	li	v0,128
9d009954:	50a20048 	beql	a1,v0,9d009a78 <__push_int+0x150>
9d009958:	8ce20000 	lw	v0,0(a3)
9d00995c:	03e00008 	jr	ra
9d009960:	00001025 	move	v0,zero
9d009964:	24020082 	li	v0,130
9d009968:	10a20015 	beq	a1,v0,9d0099c0 <__push_int+0x98>
9d00996c:	24020084 	li	v0,132
9d009970:	14a2fffa 	bne	a1,v0,9d00995c <__push_int+0x34>
9d009974:	00000000 	nop
9d009978:	8ce20000 	lw	v0,0(a3)
9d00997c:	8c830000 	lw	v1,0(a0)
9d009980:	24440004 	addiu	a0,v0,4
9d009984:	ace40000 	sw	a0,0(a3)
9d009988:	8c420000 	lw	v0,0(v0)
9d00998c:	a4430000 	sh	v1,0(v0)
9d009990:	10c00001 	beqz	a2,9d009998 <__push_int+0x70>
9d009994:	24020001 	li	v0,1
9d009998:	03e00008 	jr	ra
9d00999c:	00000000 	nop
9d0099a0:	240200a0 	li	v0,160
9d0099a4:	50a20018 	beql	a1,v0,9d009a08 <__push_int+0xe0>
9d0099a8:	8ce20000 	lw	v0,0(a3)
9d0099ac:	28a200a1 	slti	v0,a1,161
9d0099b0:	1040000e 	beqz	v0,9d0099ec <__push_int+0xc4>
9d0099b4:	24020090 	li	v0,144
9d0099b8:	14a2ffe8 	bne	a1,v0,9d00995c <__push_int+0x34>
9d0099bc:	00000000 	nop
9d0099c0:	8ce20000 	lw	v0,0(a3)
9d0099c4:	10c00028 	beqz	a2,9d009a68 <__push_int+0x140>
9d0099c8:	24430004 	addiu	v1,v0,4
9d0099cc:	ace30000 	sw	v1,0(a3)
9d0099d0:	8c850004 	lw	a1,4(a0)
9d0099d4:	8c840000 	lw	a0,0(a0)
9d0099d8:	8c420000 	lw	v0,0(v0)
9d0099dc:	ac440000 	sw	a0,0(v0)
9d0099e0:	ac450004 	sw	a1,4(v0)
9d0099e4:	03e00008 	jr	ra
9d0099e8:	24020001 	li	v0,1
9d0099ec:	240200c0 	li	v0,192
9d0099f0:	50a20005 	beql	a1,v0,9d009a08 <__push_int+0xe0>
9d0099f4:	8ce20000 	lw	v0,0(a3)
9d0099f8:	240200f0 	li	v0,240
9d0099fc:	14a2ffd7 	bne	a1,v0,9d00995c <__push_int+0x34>
9d009a00:	00000000 	nop
9d009a04:	8ce20000 	lw	v0,0(a3)
9d009a08:	8c830000 	lw	v1,0(a0)
9d009a0c:	24440004 	addiu	a0,v0,4
9d009a10:	ace40000 	sw	a0,0(a3)
9d009a14:	8c420000 	lw	v0,0(v0)
9d009a18:	1000fff2 	b	9d0099e4 <__push_int+0xbc>
9d009a1c:	ac430000 	sw	v1,0(v0)
9d009a20:	8c830000 	lw	v1,0(a0)
9d009a24:	24440004 	addiu	a0,v0,4
9d009a28:	ace40000 	sw	a0,0(a3)
9d009a2c:	8c420000 	lw	v0,0(v0)
9d009a30:	a0430000 	sb	v1,0(v0)
9d009a34:	10c0ffd8 	beqz	a2,9d009998 <__push_int+0x70>
9d009a38:	24020001 	li	v0,1
9d009a3c:	03e00008 	jr	ra
9d009a40:	00000000 	nop
9d009a44:	8c830000 	lw	v1,0(a0)
9d009a48:	24440004 	addiu	a0,v0,4
9d009a4c:	ace40000 	sw	a0,0(a3)
9d009a50:	8c420000 	lw	v0,0(v0)
9d009a54:	ac430000 	sw	v1,0(v0)
9d009a58:	10c0ffcf 	beqz	a2,9d009998 <__push_int+0x70>
9d009a5c:	24020001 	li	v0,1
9d009a60:	03e00008 	jr	ra
9d009a64:	00000000 	nop
9d009a68:	8c850004 	lw	a1,4(a0)
9d009a6c:	8c840000 	lw	a0,0(a0)
9d009a70:	1000ffd9 	b	9d0099d8 <__push_int+0xb0>
9d009a74:	ace30000 	sw	v1,0(a3)
9d009a78:	8c830000 	lw	v1,0(a0)
9d009a7c:	24440004 	addiu	a0,v0,4
9d009a80:	ace40000 	sw	a0,0(a3)
9d009a84:	8c420000 	lw	v0,0(v0)
9d009a88:	ac430000 	sw	v1,0(v0)
9d009a8c:	24020001 	li	v0,1
9d009a90:	03e00008 	jr	ra
9d009a94:	00000000 	nop

Disassembly of section .text._sbrk_init:

9d009a98 <_sbrk_init>:
9d009a98:	27bdffd8 	addiu	sp,sp,-40
9d009a9c:	afb40020 	sw	s4,32(sp)
9d009aa0:	3c14a000 	lui	s4,0xa000
9d009aa4:	8e820150 	lw	v0,336(s4)
9d009aa8:	afbf0024 	sw	ra,36(sp)
9d009aac:	afb3001c 	sw	s3,28(sp)
9d009ab0:	afb20018 	sw	s2,24(sp)
9d009ab4:	afb10014 	sw	s1,20(sp)
9d009ab8:	1440003a 	bnez	v0,9d009ba4 <_sbrk_init+0x10c>
9d009abc:	afb00010 	sw	s0,16(sp)
9d009ac0:	3c12a000 	lui	s2,0xa000
9d009ac4:	8e510158 	lw	s1,344(s2)
9d009ac8:	16200003 	bnez	s1,9d009ad8 <_sbrk_init+0x40>
9d009acc:	3c13a000 	lui	s3,0xa000
9d009ad0:	3c11a000 	lui	s1,0xa000
9d009ad4:	26310170 	addiu	s1,s1,368
9d009ad8:	8e700154 	lw	s0,340(s3)
9d009adc:	16000005 	bnez	s0,9d009af4 <_sbrk_init+0x5c>
9d009ae0:	3c020000 	lui	v0,0x0
9d009ae4:	3c10a000 	lui	s0,0xa000
9d009ae8:	26100170 	addiu	s0,s0,368
9d009aec:	24420000 	addiu	v0,v0,0
9d009af0:	02028021 	addu	s0,s0,v0
9d009af4:	00111f82 	srl	v1,s1,0x1e
9d009af8:	24020002 	li	v0,2
9d009afc:	50620001 	beql	v1,v0,9d009b04 <_sbrk_init+0x6c>
9d009b00:	7e31e000 	ext	s1,s1,0x0,0x1d
9d009b04:	00101f82 	srl	v1,s0,0x1e
9d009b08:	24020002 	li	v0,2
9d009b0c:	50620001 	beql	v1,v0,9d009b14 <_sbrk_init+0x7c>
9d009b10:	7e10e000 	ext	s0,s0,0x0,0x1d
9d009b14:	0f403076 	jal	9d00c1d8 <_stub_sbd_memlayout>
9d009b18:	00000000 	nop
9d009b1c:	8c430000 	lw	v1,0(v0)
9d009b20:	8c420004 	lw	v0,4(v0)
9d009b24:	0223202b 	sltu	a0,s1,v1
9d009b28:	14800004 	bnez	a0,9d009b3c <_sbrk_init+0xa4>
9d009b2c:	00621021 	addu	v0,v1,v0
9d009b30:	0222202b 	sltu	a0,s1,v0
9d009b34:	54800029 	bnezl	a0,9d009bdc <_sbrk_init+0x144>
9d009b38:	0211182b 	sltu	v1,s0,s1
9d009b3c:	3c04a000 	lui	a0,0xa000
9d009b40:	24840074 	addiu	a0,a0,116
9d009b44:	7c84e000 	ext	a0,a0,0x0,0x1d
9d009b48:	0064202b 	sltu	a0,v1,a0
9d009b4c:	14800015 	bnez	a0,9d009ba4 <_sbrk_init+0x10c>
9d009b50:	0203202b 	sltu	a0,s0,v1
9d009b54:	14800004 	bnez	a0,9d009b68 <_sbrk_init+0xd0>
9d009b58:	0062202b 	sltu	a0,v1,v0
9d009b5c:	0202202b 	sltu	a0,s0,v0
9d009b60:	14800018 	bnez	a0,9d009bc4 <_sbrk_init+0x12c>
9d009b64:	0062202b 	sltu	a0,v1,v0
9d009b68:	1080000f 	beqz	a0,9d009ba8 <_sbrk_init+0x110>
9d009b6c:	8fbf0024 	lw	ra,36(sp)
9d009b70:	3c04a000 	lui	a0,0xa000
9d009b74:	24840074 	addiu	a0,a0,116
9d009b78:	00042742 	srl	a0,a0,0x1d
9d009b7c:	24050005 	li	a1,5
9d009b80:	14850012 	bne	a0,a1,9d009bcc <_sbrk_init+0x134>
9d009b84:	24050004 	li	a1,4
9d009b88:	3c04a000 	lui	a0,0xa000
9d009b8c:	00641825 	or	v1,v1,a0
9d009b90:	00441025 	or	v0,v0,a0
9d009b94:	ae430158 	sw	v1,344(s2)
9d009b98:	ae620154 	sw	v0,340(s3)
9d009b9c:	8e420158 	lw	v0,344(s2)
9d009ba0:	ae820150 	sw	v0,336(s4)
9d009ba4:	8fbf0024 	lw	ra,36(sp)
9d009ba8:	8fb40020 	lw	s4,32(sp)
9d009bac:	8fb3001c 	lw	s3,28(sp)
9d009bb0:	8fb20018 	lw	s2,24(sp)
9d009bb4:	8fb10014 	lw	s1,20(sp)
9d009bb8:	8fb00010 	lw	s0,16(sp)
9d009bbc:	03e00008 	jr	ra
9d009bc0:	27bd0028 	addiu	sp,sp,40
9d009bc4:	1000ffea 	b	9d009b70 <_sbrk_init+0xd8>
9d009bc8:	02001025 	move	v0,s0
9d009bcc:	1085ffef 	beq	a0,a1,9d009b8c <_sbrk_init+0xf4>
9d009bd0:	3c048000 	lui	a0,0x8000
9d009bd4:	1000fff1 	b	9d009b9c <_sbrk_init+0x104>
9d009bd8:	ae420158 	sw	v0,344(s2)
9d009bdc:	1460ffe4 	bnez	v1,9d009b70 <_sbrk_init+0xd8>
9d009be0:	02201825 	move	v1,s1
9d009be4:	1000ffde 	b	9d009b60 <_sbrk_init+0xc8>
9d009be8:	0202202b 	sltu	a0,s0,v0

Disassembly of section .text.__fmt_d:

9d009bec <__fmt_d>:
9d009bec:	27bdffc0 	addiu	sp,sp,-64
9d009bf0:	afb1002c 	sw	s1,44(sp)
9d009bf4:	00808825 	move	s1,a0
9d009bf8:	00c02025 	move	a0,a2
9d009bfc:	8c870004 	lw	a3,4(a0)
9d009c00:	8ca20000 	lw	v0,0(a1)
9d009c04:	afb40038 	sw	s4,56(sp)
9d009c08:	0007a7c2 	srl	s4,a3,0x1f
9d009c0c:	afb30034 	sw	s3,52(sp)
9d009c10:	afb20030 	sw	s2,48(sp)
9d009c14:	afb00028 	sw	s0,40(sp)
9d009c18:	afbf003c 	sw	ra,60(sp)
9d009c1c:	00a08025 	move	s0,a1
9d009c20:	8ca30004 	lw	v1,4(a1)
9d009c24:	8cb20008 	lw	s2,8(a1)
9d009c28:	afa20020 	sw	v0,32(sp)
9d009c2c:	8cb3000c 	lw	s3,12(a1)
9d009c30:	1280003e 	beqz	s4,9d009d2c <__fmt_d+0x140>
9d009c34:	8cc60000 	lw	a2,0(a2)
9d009c38:	00063023 	negu	a2,a2
9d009c3c:	0006202b 	sltu	a0,zero,a2
9d009c40:	00073823 	negu	a3,a3
9d009c44:	04600008 	bltz	v1,9d009c68 <__fmt_d+0x7c>
9d009c48:	00e43823 	subu	a3,a3,a0
9d009c4c:	7c020844 	ins	v0,zero,0x1,0x1
9d009c50:	16800005 	bnez	s4,9d009c68 <__fmt_d+0x7c>
9d009c54:	afa20020 	sw	v0,32(sp)
9d009c58:	8fa20020 	lw	v0,32(sp)
9d009c5c:	30430004 	andi	v1,v0,0x4
9d009c60:	1060002a 	beqz	v1,9d009d0c <__fmt_d+0x120>
9d009c64:	7c4200c0 	ext	v0,v0,0x3,0x1
9d009c68:	2642ffff 	addiu	v0,s2,-1
9d009c6c:	27a30020 	addiu	v1,sp,32
9d009c70:	afa30018 	sw	v1,24(sp)
9d009c74:	2403000a 	li	v1,10
9d009c78:	afa30014 	sw	v1,20(sp)
9d009c7c:	afa20010 	sw	v0,16(sp)
9d009c80:	0f40279f 	jal	9d009e7c <__cvt_u>
9d009c84:	02002025 	move	a0,s0
9d009c88:	16800006 	bnez	s4,9d009ca4 <__fmt_d+0xb8>
9d009c8c:	2403002d 	li	v1,45
9d009c90:	8fa30020 	lw	v1,32(sp)
9d009c94:	30640004 	andi	a0,v1,0x4
9d009c98:	1080001e 	beqz	a0,9d009d14 <__fmt_d+0x128>
9d009c9c:	30630008 	andi	v1,v1,0x8
9d009ca0:	2403002b 	li	v1,43
9d009ca4:	2442ffff 	addiu	v0,v0,-1
9d009ca8:	02622021 	addu	a0,s3,v0
9d009cac:	a0830000 	sb	v1,0(a0)
9d009cb0:	8e060010 	lw	a2,16(s0)
9d009cb4:	8fa30020 	lw	v1,32(sp)
9d009cb8:	02403825 	move	a3,s2
9d009cbc:	24c6ffff 	addiu	a2,a2,-1
9d009cc0:	afa30010 	sw	v1,16(sp)
9d009cc4:	00c23023 	subu	a2,a2,v0
9d009cc8:	02622821 	addu	a1,s3,v0
9d009ccc:	0f402965 	jal	9d00a594 <__pad>
9d009cd0:	02202025 	move	a0,s1
9d009cd4:	8e230004 	lw	v1,4(s1)
9d009cd8:	30630100 	andi	v1,v1,0x100
9d009cdc:	10600004 	beqz	v1,9d009cf0 <__fmt_d+0x104>
9d009ce0:	8fbf003c 	lw	ra,60(sp)
9d009ce4:	8e030004 	lw	v1,4(s0)
9d009ce8:	0043202a 	slt	a0,v0,v1
9d009cec:	0064100b 	movn	v0,v1,a0
9d009cf0:	8fb40038 	lw	s4,56(sp)
9d009cf4:	8fb30034 	lw	s3,52(sp)
9d009cf8:	8fb20030 	lw	s2,48(sp)
9d009cfc:	8fb1002c 	lw	s1,44(sp)
9d009d00:	8fb00028 	lw	s0,40(sp)
9d009d04:	03e00008 	jr	ra
9d009d08:	27bd0040 	addiu	sp,sp,64
9d009d0c:	1000ffd7 	b	9d009c6c <__fmt_d+0x80>
9d009d10:	02421023 	subu	v0,s2,v0
9d009d14:	1060ffe6 	beqz	v1,9d009cb0 <__fmt_d+0xc4>
9d009d18:	24040020 	li	a0,32
9d009d1c:	2442ffff 	addiu	v0,v0,-1
9d009d20:	02621821 	addu	v1,s3,v0
9d009d24:	1000ffe2 	b	9d009cb0 <__fmt_d+0xc4>
9d009d28:	a0640000 	sb	a0,0(v1)
9d009d2c:	0463ffc8 	bgezl	v1,9d009c50 <__fmt_d+0x64>
9d009d30:	7c020844 	ins	v0,zero,0x1,0x1
9d009d34:	1000ffc9 	b	9d009c5c <__fmt_d+0x70>
9d009d38:	8fa20020 	lw	v0,32(sp)

Disassembly of section .dinit:

9d009d3c <.dinit>:
9d009d3c:	a0000004 	sb	zero,4(zero)
9d009d40:	00000070 	tge	zero,zero,0x1
9d009d44:	00000000 	nop
9d009d48:	a0000074 	sb	zero,116(zero)
9d009d4c:	00000060 	0x60
9d009d50:	00000001 	movf	zero,zero,$fcc0
9d009d54:	00000001 	movf	zero,zero,$fcc0
9d009d58:	00000003 	sra	zero,zero,0x0
	...
9d009d70:	9d00abac 	0x9d00abac
	...
9d009d80:	9d00c314 	0x9d00c314
9d009d84:	9d00b1a4 	0x9d00b1a4
	...
9d009db4:	a000015c 	sb	zero,348(zero)
9d009db8:	00000004 	sllv	zero,zero,zero
9d009dbc:	00000000 	nop
9d009dc0:	a00000d4 	sb	zero,212(zero)
9d009dc4:	00000060 	0x60
9d009dc8:	00000001 	movf	zero,zero,$fcc0
9d009dcc:	00000001 	movf	zero,zero,$fcc0
9d009dd0:	00000003 	sra	zero,zero,0x0
	...
9d009de8:	9d00abac 	0x9d00abac
	...
9d009df8:	9d00c314 	0x9d00c314
9d009dfc:	9d00b1a4 	0x9d00b1a4
	...
9d009e2c:	a0000000 	sb	zero,0(zero)
9d009e30:	00000004 	sllv	zero,zero,zero
9d009e34:	00000001 	movf	zero,zero,$fcc0
9d009e38:	00000002 	srl	zero,zero,0x0
9d009e3c:	a0000160 	sb	zero,352(zero)
9d009e40:	00000004 	sllv	zero,zero,zero
9d009e44:	00000000 	nop
9d009e48:	a0000134 	sb	zero,308(zero)
9d009e4c:	00000004 	sllv	zero,zero,zero
9d009e50:	00000001 	movf	zero,zero,$fcc0
9d009e54:	00000001 	movf	zero,zero,$fcc0
9d009e58:	a0000164 	sb	zero,356(zero)
9d009e5c:	00000004 	sllv	zero,zero,zero
9d009e60:	00000000 	nop
9d009e64:	a0000138 	sb	zero,312(zero)
9d009e68:	00000024 	and	zero,zero,zero
	...
9d009e74:	66666666 	0x66666666
9d009e78:	66666666 	0x66666666

Disassembly of section .text.__cvt_u:

9d009e7c <__cvt_u>:
9d009e7c:	8c820004 	lw	v0,4(a0)
9d009e80:	27bdffc0 	addiu	sp,sp,-64
9d009e84:	afbe0038 	sw	s8,56(sp)
9d009e88:	afb40028 	sw	s4,40(sp)
9d009e8c:	afb20020 	sw	s2,32(sp)
9d009e90:	afb1001c 	sw	s1,28(sp)
9d009e94:	afbf003c 	sw	ra,60(sp)
9d009e98:	afb70034 	sw	s7,52(sp)
9d009e9c:	afb60030 	sw	s6,48(sp)
9d009ea0:	afb5002c 	sw	s5,44(sp)
9d009ea4:	afb30024 	sw	s3,36(sp)
9d009ea8:	afb00018 	sw	s0,24(sp)
9d009eac:	00c08825 	move	s1,a2
9d009eb0:	00e09025 	move	s2,a3
9d009eb4:	8fb40054 	lw	s4,84(sp)
9d009eb8:	04410002 	bgez	v0,9d009ec4 <__cvt_u+0x48>
9d009ebc:	8fbe0058 	lw	s8,88(sp)
9d009ec0:	24020001 	li	v0,1
9d009ec4:	8c900010 	lw	s0,16(a0)
9d009ec8:	8c95000c 	lw	s5,12(a0)
9d009ecc:	8fd70000 	lw	s7,0(s8)
9d009ed0:	8fb30050 	lw	s3,80(sp)
9d009ed4:	2610ffff 	addiu	s0,s0,-1
9d009ed8:	02b01821 	addu	v1,s5,s0
9d009edc:	a0600000 	sb	zero,0(v1)
9d009ee0:	24090001 	li	t1,1
9d009ee4:	00534023 	subu	t0,v0,s3
9d009ee8:	32f70002 	andi	s7,s7,0x2
9d009eec:	0014b7c3 	sra	s6,s4,0x1f
9d009ef0:	1e000010 	bgtz	s0,9d009f34 <__cvt_u+0xb8>
9d009ef4:	02321025 	or	v0,s1,s2
9d009ef8:	5120002c 	beqzl	t1,9d009fac <__cvt_u+0x130>
9d009efc:	8fc20000 	lw	v0,0(s8)
9d009f00:	8fbf003c 	lw	ra,60(sp)
9d009f04:	02001025 	move	v0,s0
9d009f08:	8fbe0038 	lw	s8,56(sp)
9d009f0c:	8fb70034 	lw	s7,52(sp)
9d009f10:	8fb60030 	lw	s6,48(sp)
9d009f14:	8fb5002c 	lw	s5,44(sp)
9d009f18:	8fb40028 	lw	s4,40(sp)
9d009f1c:	8fb30024 	lw	s3,36(sp)
9d009f20:	8fb20020 	lw	s2,32(sp)
9d009f24:	8fb1001c 	lw	s1,28(sp)
9d009f28:	8fb00018 	lw	s0,24(sp)
9d009f2c:	03e00008 	jr	ra
9d009f30:	27bd0040 	addiu	sp,sp,64
9d009f34:	14400007 	bnez	v0,9d009f54 <__cvt_u+0xd8>
9d009f38:	01131021 	addu	v0,t0,s3
9d009f3c:	1c400006 	bgtz	v0,9d009f58 <__cvt_u+0xdc>
9d009f40:	02202025 	move	a0,s1
9d009f44:	1a60ffec 	blez	s3,9d009ef8 <__cvt_u+0x7c>
9d009f48:	00000000 	nop
9d009f4c:	12e0ffea 	beqz	s7,9d009ef8 <__cvt_u+0x7c>
9d009f50:	00000000 	nop
9d009f54:	02202025 	move	a0,s1
9d009f58:	02402825 	move	a1,s2
9d009f5c:	02803025 	move	a2,s4
9d009f60:	02c03825 	move	a3,s6
9d009f64:	afa80014 	sw	t0,20(sp)
9d009f68:	0f402320 	jal	9d008c80 <__umoddi3>
9d009f6c:	2610ffff 	addiu	s0,s0,-1
9d009f70:	afa20010 	sw	v0,16(sp)
9d009f74:	02b01821 	addu	v1,s5,s0
9d009f78:	24420030 	addiu	v0,v0,48
9d009f7c:	02202025 	move	a0,s1
9d009f80:	02402825 	move	a1,s2
9d009f84:	a0620000 	sb	v0,0(v1)
9d009f88:	02803025 	move	a2,s4
9d009f8c:	0f402231 	jal	9d0088c4 <__udivdi3>
9d009f90:	02c03825 	move	a3,s6
9d009f94:	2673ffff 	addiu	s3,s3,-1
9d009f98:	00408825 	move	s1,v0
9d009f9c:	00609025 	move	s2,v1
9d009fa0:	8fa80014 	lw	t0,20(sp)
9d009fa4:	1000ffd2 	b	9d009ef0 <__cvt_u+0x74>
9d009fa8:	8fa90010 	lw	t1,16(sp)
9d009fac:	7c022104 	ins	v0,zero,0x4,0x1
9d009fb0:	1000ffd3 	b	9d009f00 <__cvt_u+0x84>
9d009fb4:	afc20000 	sw	v0,0(s8)

Disassembly of section .text.__read_int:

9d009fb8 <__read_int>:
9d009fb8:	27bdffd0 	addiu	sp,sp,-48
9d009fbc:	afb50028 	sw	s5,40(sp)
9d009fc0:	8cb50008 	lw	s5,8(a1)
9d009fc4:	afb40024 	sw	s4,36(sp)
9d009fc8:	afb30020 	sw	s3,32(sp)
9d009fcc:	afb2001c 	sw	s2,28(sp)
9d009fd0:	afb10018 	sw	s1,24(sp)
9d009fd4:	afbf002c 	sw	ra,44(sp)
9d009fd8:	afb00014 	sw	s0,20(sp)
9d009fdc:	00808825 	move	s1,a0
9d009fe0:	00c09025 	move	s2,a2
9d009fe4:	8cb40010 	lw	s4,16(a1)
9d009fe8:	0f402bcc 	jal	9d00af30 <__skipws>
9d009fec:	8cb3000c 	lw	s3,12(a1)
9d009ff0:	52a00001 	beqzl	s5,9d009ff8 <__read_int+0x40>
9d009ff4:	2695ffff 	addiu	s5,s4,-1
9d009ff8:	8e430000 	lw	v1,0(s2)
9d009ffc:	00008025 	move	s0,zero
9d00a000:	00621821 	addu	v1,v1,v0
9d00a004:	ae430000 	sw	v1,0(s2)
9d00a008:	0215102a 	slt	v0,s0,s5
9d00a00c:	1040001d 	beqz	v0,9d00a084 <__read_int+0xcc>
9d00a010:	2682ffff 	addiu	v0,s4,-1
9d00a014:	0202102a 	slt	v0,s0,v0
9d00a018:	5040001b 	beqzl	v0,9d00a088 <__read_int+0xd0>
9d00a01c:	02708021 	addu	s0,s3,s0
9d00a020:	8e22003c 	lw	v0,60(s1)
9d00a024:	8e23004c 	lw	v1,76(s1)
9d00a028:	0043182b 	sltu	v1,v0,v1
9d00a02c:	1060000e 	beqz	v1,9d00a068 <__read_int+0xb0>
9d00a030:	24430001 	addiu	v1,v0,1
9d00a034:	ae23003c 	sw	v1,60(s1)
9d00a038:	90420000 	lbu	v0,0(v0)
9d00a03c:	2443ffd5 	addiu	v1,v0,-43
9d00a040:	7c030844 	ins	v1,zero,0x1,0x1
9d00a044:	00701825 	or	v1,v1,s0
9d00a048:	1460001a 	bnez	v1,9d00a0b4 <__read_int+0xfc>
9d00a04c:	2443ffd0 	addiu	v1,v0,-48
9d00a050:	a2620000 	sb	v0,0(s3)
9d00a054:	8e420000 	lw	v0,0(s2)
9d00a058:	24100001 	li	s0,1
9d00a05c:	24420001 	addiu	v0,v0,1
9d00a060:	1000ffe9 	b	9d00a008 <__read_int+0x50>
9d00a064:	ae420000 	sw	v0,0(s2)
9d00a068:	0f402b49 	jal	9d00ad24 <__shgetc>
9d00a06c:	02202025 	move	a0,s1
9d00a070:	2403ffff 	li	v1,-1
9d00a074:	5443fff2 	bnel	v0,v1,9d00a040 <__read_int+0x88>
9d00a078:	2443ffd5 	addiu	v1,v0,-43
9d00a07c:	12000005 	beqz	s0,9d00a094 <__read_int+0xdc>
9d00a080:	8fbf002c 	lw	ra,44(sp)
9d00a084:	02708021 	addu	s0,s3,s0
9d00a088:	a2000000 	sb	zero,0(s0)
9d00a08c:	00001025 	move	v0,zero
9d00a090:	8fbf002c 	lw	ra,44(sp)
9d00a094:	8fb50028 	lw	s5,40(sp)
9d00a098:	8fb40024 	lw	s4,36(sp)
9d00a09c:	8fb30020 	lw	s3,32(sp)
9d00a0a0:	8fb2001c 	lw	s2,28(sp)
9d00a0a4:	8fb10018 	lw	s1,24(sp)
9d00a0a8:	8fb00014 	lw	s0,20(sp)
9d00a0ac:	03e00008 	jr	ra
9d00a0b0:	27bd0030 	addiu	sp,sp,48
9d00a0b4:	2c63000a 	sltiu	v1,v1,10
9d00a0b8:	54600008 	bnezl	v1,9d00a0dc <__read_int+0x124>
9d00a0bc:	02701821 	addu	v1,s3,s0
9d00a0c0:	8e22004c 	lw	v0,76(s1)
9d00a0c4:	5040fff0 	beqzl	v0,9d00a088 <__read_int+0xd0>
9d00a0c8:	02708021 	addu	s0,s3,s0
9d00a0cc:	8e22003c 	lw	v0,60(s1)
9d00a0d0:	2442ffff 	addiu	v0,v0,-1
9d00a0d4:	1000ffeb 	b	9d00a084 <__read_int+0xcc>
9d00a0d8:	ae22003c 	sw	v0,60(s1)
9d00a0dc:	a0620000 	sb	v0,0(v1)
9d00a0e0:	8e420000 	lw	v0,0(s2)
9d00a0e4:	26100001 	addiu	s0,s0,1
9d00a0e8:	24420001 	addiu	v0,v0,1
9d00a0ec:	1000ffc6 	b	9d00a008 <__read_int+0x50>
9d00a0f0:	ae420000 	sw	v0,0(s2)

Disassembly of section .text:

9d00a0f4 <main>:
#include "encoder.h"


#define BUF_SIZE 200
int main()
{
9d00a0f4:	27bdfec8 	addiu	sp,sp,-312
9d00a0f8:	afbf0134 	sw	ra,308(sp)
9d00a0fc:	afb70130 	sw	s7,304(sp)
9d00a100:	afb6012c 	sw	s6,300(sp)
9d00a104:	afb50128 	sw	s5,296(sp)
9d00a108:	afb40124 	sw	s4,292(sp)
9d00a10c:	afb30120 	sw	s3,288(sp)
9d00a110:	afb2011c 	sw	s2,284(sp)
9d00a114:	afb10118 	sw	s1,280(sp)
    char buffer[BUF_SIZE];
    NU32DIP_Startup(); // cache on, min flash wait, interrupts on, LED/button init, UART init
9d00a118:	0f402578 	jal	9d0095e0 <NU32DIP_Startup>
9d00a11c:	afb00114 	sw	s0,276(sp)
    NU32DIP_GREEN = 1;  // turn off the LEDs
9d00a120:	3c02bf88 	lui	v0,0xbf88
9d00a124:	94436130 	lhu	v1,24880(v0)
9d00a128:	24040001 	li	a0,1
9d00a12c:	7c832104 	ins	v1,a0,0x4,0x1
9d00a130:	a4436130 	sh	v1,24880(v0)
    NU32DIP_YELLOW = 1;
9d00a134:	94436130 	lhu	v1,24880(v0)
9d00a138:	7c832944 	ins	v1,a0,0x5,0x1
9d00a13c:	a4436130 	sh	v1,24880(v0)
    __builtin_disable_interrupts();
9d00a140:	41626000 	di	v0
9d00a144:	000000c0 	ehb
    UART2_Startup();
9d00a148:	0f40248e 	jal	9d009238 <UART2_Startup>
9d00a14c:	00000000 	nop
    __builtin_enable_interrupts();
9d00a150:	41626020 	ei	v0
    while (1)
    {
        NU32DIP_ReadUART1(buffer, BUF_SIZE); // we expect the next character to be a menu command
        NU32DIP_YELLOW = 1;                    // clear the error LED
9d00a154:	3c10bf88 	lui	s0,0xbf88
        
        }
        break;
        case 'e': // reset encoder count
        {
            WriteUART2("b");
9d00a158:	3c139d00 	lui	s3,0x9d00
9d00a15c:	267374a0 	addiu	s3,s3,29856
            NU32DIP_WriteUART1("Encoder count reset\r\n");
9d00a160:	3c129d00 	lui	s2,0x9d00
9d00a164:	265274a4 	addiu	s2,s2,29860
            WriteUART2("a");
9d00a168:	3c119d00 	lui	s1,0x9d00
9d00a16c:	26317494 	addiu	s1,s1,29844
            sprintf(m, "%d\r\n", p);
9d00a170:	3c149d00 	lui	s4,0x9d00
        NU32DIP_YELLOW = 1;                    // clear the error LED
9d00a174:	24170001 	li	s7,1
        switch (buffer[0])
9d00a178:	24160065 	li	s6,101
9d00a17c:	24150071 	li	s5,113
        NU32DIP_ReadUART1(buffer, BUF_SIZE); // we expect the next character to be a menu command
9d00a180:	240500c8 	li	a1,200
9d00a184:	0f4025c0 	jal	9d009700 <NU32DIP_ReadUART1>
9d00a188:	27a40010 	addiu	a0,sp,16
        NU32DIP_YELLOW = 1;                    // clear the error LED
9d00a18c:	96026130 	lhu	v0,24880(s0)
9d00a190:	7ee22944 	ins	v0,s7,0x5,0x1
9d00a194:	a6026130 	sh	v0,24880(s0)
        switch (buffer[0])
9d00a198:	83a20010 	lb	v0,16(sp)
9d00a19c:	10560017 	beq	v0,s6,9d00a1fc <main+0x108>
9d00a1a0:	00000000 	nop
9d00a1a4:	1055fff6 	beq	v0,s5,9d00a180 <main+0x8c>
9d00a1a8:	24030063 	li	v1,99
9d00a1ac:	14430019 	bne	v0,v1,9d00a214 <main+0x120>
9d00a1b0:	00000000 	nop
            WriteUART2("a");
9d00a1b4:	0f40247e 	jal	9d0091f8 <WriteUART2>
9d00a1b8:	02202025 	move	a0,s1
            while(!get_encoder_flag()){}
9d00a1bc:	0f40240e 	jal	9d009038 <get_encoder_flag>
9d00a1c0:	00000000 	nop
9d00a1c4:	1040fffd 	beqz	v0,9d00a1bc <main+0xc8>
9d00a1c8:	00000000 	nop
            set_encoder_flag(0);
9d00a1cc:	0f402411 	jal	9d009044 <set_encoder_flag>
9d00a1d0:	00002025 	move	a0,zero
            int p = get_encoder_count();
9d00a1d4:	0f402414 	jal	9d009050 <get_encoder_count>
9d00a1d8:	24170001 	li	s7,1
            sprintf(m, "%d\r\n", p);
9d00a1dc:	00403025 	move	a2,v0
9d00a1e0:	26857498 	addiu	a1,s4,29848
9d00a1e4:	0f403081 	jal	9d00c204 <_dsprintf_dn>
9d00a1e8:	27a400d8 	addiu	a0,sp,216
            NU32DIP_WriteUART1(m);
9d00a1ec:	0f4025d9 	jal	9d009764 <NU32DIP_WriteUART1>
9d00a1f0:	27a400d8 	addiu	a0,sp,216
        break;
9d00a1f4:	1000ffe1 	b	9d00a17c <main+0x88>
9d00a1f8:	24160065 	li	s6,101
            WriteUART2("b");
9d00a1fc:	0f40247e 	jal	9d0091f8 <WriteUART2>
9d00a200:	02602025 	move	a0,s3
            NU32DIP_WriteUART1("Encoder count reset\r\n");
9d00a204:	0f4025d9 	jal	9d009764 <NU32DIP_WriteUART1>
9d00a208:	02402025 	move	a0,s2
            break;
9d00a20c:	1000ffda 	b	9d00a178 <main+0x84>
9d00a210:	24170001 	li	s7,1
            // handle q for quit. Later you may want to return to IDLE mode here.
            break;
        }
        default:
        {
            NU32DIP_YELLOW = 0; // turn on LED2 to indicate an error
9d00a214:	96026130 	lhu	v0,24880(s0)
9d00a218:	7c022944 	ins	v0,zero,0x5,0x1
9d00a21c:	a6026130 	sh	v0,24880(s0)
            break;
9d00a220:	1000ffd5 	b	9d00a178 <main+0x84>
9d00a224:	24170001 	li	s7,1

Disassembly of section .text.read:

9d00a228 <read>:
9d00a228:	50a0004a 	beqzl	a1,9d00a354 <read+0x12c>
9d00a22c:	00002025 	move	a0,zero
9d00a230:	50c00048 	beqzl	a2,9d00a354 <read+0x12c>
9d00a234:	00002025 	move	a0,zero
9d00a238:	27bdffe0 	addiu	sp,sp,-32
9d00a23c:	afb10014 	sw	s1,20(sp)
9d00a240:	afbf001c 	sw	ra,28(sp)
9d00a244:	afb20018 	sw	s2,24(sp)
9d00a248:	afb00010 	sw	s0,16(sp)
9d00a24c:	1480000b 	bnez	a0,9d00a27c <read+0x54>
9d00a250:	00c08825 	move	s1,a2
9d00a254:	3c020000 	lui	v0,0x0
9d00a258:	24420000 	addiu	v0,v0,0
9d00a25c:	1040000f 	beqz	v0,9d00a29c <read+0x74>
9d00a260:	00a08025 	move	s0,a1
9d00a264:	00a69021 	addu	s2,a1,a2
9d00a268:	0c000000 	jal	90000000 <_bmxdudba_address+0x8fff0000>
9d00a26c:	24040001 	li	a0,1
9d00a270:	26100001 	addiu	s0,s0,1
9d00a274:	1650fffc 	bne	s2,s0,9d00a268 <read+0x40>
9d00a278:	a202ffff 	sb	v0,-1(s0)
9d00a27c:	02202025 	move	a0,s1
9d00a280:	8fbf001c 	lw	ra,28(sp)
9d00a284:	00801025 	move	v0,a0
9d00a288:	8fb20018 	lw	s2,24(sp)
9d00a28c:	8fb10014 	lw	s1,20(sp)
9d00a290:	8fb00010 	lw	s0,16(sp)
9d00a294:	03e00008 	jr	ra
9d00a298:	27bd0020 	addiu	sp,sp,32
9d00a29c:	3c03bf80 	lui	v1,0xbf80
9d00a2a0:	24626010 	addiu	v0,v1,24592
9d00a2a4:	1040fff6 	beqz	v0,9d00a280 <read+0x58>
9d00a2a8:	3c03a000 	lui	v1,0xa000
9d00a2ac:	8c640000 	lw	a0,0(v1)
9d00a2b0:	24030002 	li	v1,2
9d00a2b4:	1083001d 	beq	a0,v1,9d00a32c <read+0x104>
9d00a2b8:	3c03bf80 	lui	v1,0xbf80
9d00a2bc:	3c03bf80 	lui	v1,0xbf80
9d00a2c0:	8c646000 	lw	a0,24576(v1)
9d00a2c4:	3c03bf80 	lui	v1,0xbf80
9d00a2c8:	24636030 	addiu	v1,v1,24624
9d00a2cc:	30848000 	andi	a0,a0,0x8000
9d00a2d0:	14800003 	bnez	a0,9d00a2e0 <read+0xb8>
9d00a2d4:	3c04bf80 	lui	a0,0xbf80
9d00a2d8:	34058000 	li	a1,0x8000
9d00a2dc:	ac856008 	sw	a1,24584(a0)
9d00a2e0:	02202025 	move	a0,s1
9d00a2e4:	240500a1 	li	a1,161
9d00a2e8:	8c460000 	lw	a2,0(v0)
9d00a2ec:	30c60001 	andi	a2,a2,0x1
9d00a2f0:	14c00003 	bnez	a2,9d00a300 <read+0xd8>
9d00a2f4:	24a5ffff 	addiu	a1,a1,-1
9d00a2f8:	14a0fffb 	bnez	a1,9d00a2e8 <read+0xc0>
9d00a2fc:	00000000 	nop
9d00a300:	8c450000 	lw	a1,0(v0)
9d00a304:	30a50001 	andi	a1,a1,0x1
9d00a308:	54a0ffdc 	bnezl	a1,9d00a27c <read+0x54>
9d00a30c:	02248823 	subu	s1,s1,a0
9d00a310:	8c650000 	lw	a1,0(v1)
9d00a314:	26100001 	addiu	s0,s0,1
9d00a318:	2484ffff 	addiu	a0,a0,-1
9d00a31c:	1480fff1 	bnez	a0,9d00a2e4 <read+0xbc>
9d00a320:	a205ffff 	sb	a1,-1(s0)
9d00a324:	1000ffd5 	b	9d00a27c <read+0x54>
9d00a328:	02248823 	subu	s1,s1,a0
9d00a32c:	24636240 	addiu	v1,v1,25152
9d00a330:	5060ffe3 	beqzl	v1,9d00a2c0 <read+0x98>
9d00a334:	3c03bf80 	lui	v1,0xbf80
9d00a338:	3c02bf80 	lui	v0,0xbf80
9d00a33c:	8c446200 	lw	a0,25088(v0)
9d00a340:	3c03bf80 	lui	v1,0xbf80
9d00a344:	3c02bf80 	lui	v0,0xbf80
9d00a348:	24636230 	addiu	v1,v1,25136
9d00a34c:	1000ffdf 	b	9d00a2cc <read+0xa4>
9d00a350:	24426210 	addiu	v0,v0,25104
9d00a354:	03e00008 	jr	ra
9d00a358:	00801025 	move	v0,a0

Disassembly of section .text._mon_putc:

9d00a35c <_mon_putc>:
9d00a35c:	3c02a000 	lui	v0,0xa000
9d00a360:	8c430000 	lw	v1,0(v0)
9d00a364:	14600013 	bnez	v1,9d00a3b4 <_mon_putc+0x58>
9d00a368:	00803025 	move	a2,a0
9d00a36c:	3c020000 	lui	v0,0x0
9d00a370:	27bdffe8 	addiu	sp,sp,-24
9d00a374:	24420000 	addiu	v0,v0,0
9d00a378:	10400006 	beqz	v0,9d00a394 <_mon_putc+0x38>
9d00a37c:	afbf0014 	sw	ra,20(sp)
9d00a380:	0c000000 	jal	90000000 <_bmxdudba_address+0x8fff0000>
9d00a384:	00000000 	nop
9d00a388:	8fbf0014 	lw	ra,20(sp)
9d00a38c:	03e00008 	jr	ra
9d00a390:	27bd0018 	addiu	sp,sp,24
9d00a394:	3c020000 	lui	v0,0x0
9d00a398:	24420000 	addiu	v0,v0,0
9d00a39c:	10400025 	beqz	v0,9d00a434 <_mon_putc+0xd8>
9d00a3a0:	3c05bf80 	lui	a1,0xbf80
9d00a3a4:	0c000000 	jal	90000000 <_bmxdudba_address+0x8fff0000>
9d00a3a8:	00000000 	nop
9d00a3ac:	1000fff7 	b	9d00a38c <_mon_putc+0x30>
9d00a3b0:	8fbf0014 	lw	ra,20(sp)
9d00a3b4:	3c02bf80 	lui	v0,0xbf80
9d00a3b8:	24426010 	addiu	v0,v0,24592
9d00a3bc:	1040002f 	beqz	v0,9d00a47c <_mon_putc+0x120>
9d00a3c0:	00000000 	nop
9d00a3c4:	24040001 	li	a0,1
9d00a3c8:	14640012 	bne	v1,a0,9d00a414 <_mon_putc+0xb8>
9d00a3cc:	3c03bf80 	lui	v1,0xbf80
9d00a3d0:	3c03bf80 	lui	v1,0xbf80
9d00a3d4:	3c04bf80 	lui	a0,0xbf80
9d00a3d8:	3c05bf80 	lui	a1,0xbf80
9d00a3dc:	24636020 	addiu	v1,v1,24608
9d00a3e0:	24846018 	addiu	a0,a0,24600
9d00a3e4:	24a56008 	addiu	a1,a1,24584
9d00a3e8:	34078000 	li	a3,0x8000
9d00a3ec:	aca70000 	sw	a3,0(a1)
9d00a3f0:	24050400 	li	a1,1024
9d00a3f4:	ac850000 	sw	a1,0(a0)
9d00a3f8:	8c440000 	lw	a0,0(v0)
9d00a3fc:	30840100 	andi	a0,a0,0x100
9d00a400:	1080fffd 	beqz	a0,9d00a3f8 <_mon_putc+0x9c>
9d00a404:	00000000 	nop
9d00a408:	ac660000 	sw	a2,0(v1)
9d00a40c:	03e00008 	jr	ra
9d00a410:	00000000 	nop
9d00a414:	3c04bf80 	lui	a0,0xbf80
9d00a418:	3c05bf80 	lui	a1,0xbf80
9d00a41c:	3c02bf80 	lui	v0,0xbf80
9d00a420:	24636220 	addiu	v1,v1,25120
9d00a424:	24846218 	addiu	a0,a0,25112
9d00a428:	24a56208 	addiu	a1,a1,25096
9d00a42c:	1000ffee 	b	9d00a3e8 <_mon_putc+0x8c>
9d00a430:	24426210 	addiu	v0,v0,25104
9d00a434:	24a56208 	addiu	a1,a1,25096
9d00a438:	3c04bf80 	lui	a0,0xbf80
9d00a43c:	34078000 	li	a3,0x8000
9d00a440:	aca70000 	sw	a3,0(a1)
9d00a444:	3c03bf80 	lui	v1,0xbf80
9d00a448:	24846218 	addiu	a0,a0,25112
9d00a44c:	3c02bf80 	lui	v0,0xbf80
9d00a450:	24050400 	li	a1,1024
9d00a454:	24636220 	addiu	v1,v1,25120
9d00a458:	24426210 	addiu	v0,v0,25104
9d00a45c:	ac850000 	sw	a1,0(a0)
9d00a460:	8c440000 	lw	a0,0(v0)
9d00a464:	30840100 	andi	a0,a0,0x100
9d00a468:	1080fffd 	beqz	a0,9d00a460 <_mon_putc+0x104>
9d00a46c:	00000000 	nop
9d00a470:	ac660000 	sw	a2,0(v1)
9d00a474:	1000ffc5 	b	9d00a38c <_mon_putc+0x30>
9d00a478:	8fbf0014 	lw	ra,20(sp)
9d00a47c:	03e00008 	jr	ra
9d00a480:	00000000 	nop

Disassembly of section .rodata:

9d00a484 <table-0xc>:
9d00a484:	04020100 	bltzl	zero,9d00a888 <_general_exception_context+0x10>
9d00a488:	05060307 	0x5060307
9d00a48c:	00000000 	nop

9d00a490 <table>:
9d00a490:	ffffffff ffffffff ffffffff ffffffff     ................
9d00a4a0:	ffffffff ffffffff ffffffff ffffffff     ................
9d00a4b0:	ffffffff ffffffff ffffffff ffffffff     ................
9d00a4c0:	020100ff 06050403 ff090807 ffffffff     ................
9d00a4d0:	0b0affff 0f0e0d0c 13121110 17161514     ................
9d00a4e0:	1b1a1918 1f1e1d1c 23222120 ffffffff     ........ !"#....
9d00a4f0:	0b0affff 0f0e0d0c 13121110 17161514     ................
9d00a500:	1b1a1918 1f1e1d1c 23222120 ffffffff     ........ !"#....
9d00a510:	ffffffff ffffffff ffffffff ffffffff     ................
9d00a520:	ffffffff ffffffff ffffffff ffffffff     ................
9d00a530:	ffffffff ffffffff ffffffff ffffffff     ................
9d00a540:	ffffffff ffffffff ffffffff ffffffff     ................
9d00a550:	ffffffff ffffffff ffffffff ffffffff     ................
9d00a560:	ffffffff ffffffff ffffffff ffffffff     ................
9d00a570:	ffffffff ffffffff ffffffff ffffffff     ................
9d00a580:	ffffffff ffffffff ffffffff ffffffff     ................
9d00a590:	000000ff                                ....

Disassembly of section .text.__pad:

9d00a594 <__pad>:
9d00a594:	27bdffc0 	addiu	sp,sp,-64
9d00a598:	afb3002c 	sw	s3,44(sp)
9d00a59c:	8fb30050 	lw	s3,80(sp)
9d00a5a0:	afb60038 	sw	s6,56(sp)
9d00a5a4:	afb40030 	sw	s4,48(sp)
9d00a5a8:	32730001 	andi	s3,s3,0x1
9d00a5ac:	afb20028 	sw	s2,40(sp)
9d00a5b0:	afb10024 	sw	s1,36(sp)
9d00a5b4:	afb00020 	sw	s0,32(sp)
9d00a5b8:	afbf003c 	sw	ra,60(sp)
9d00a5bc:	afb50034 	sw	s5,52(sp)
9d00a5c0:	00809025 	move	s2,a0
9d00a5c4:	00a0b025 	move	s6,a1
9d00a5c8:	00c08025 	move	s0,a2
9d00a5cc:	00e08825 	move	s1,a3
9d00a5d0:	16600003 	bnez	s3,9d00a5e0 <__pad+0x4c>
9d00a5d4:	00c7a02b 	sltu	s4,a2,a3
9d00a5d8:	56800013 	bnezl	s4,9d00a628 <__pad+0x94>
9d00a5dc:	0230a023 	subu	s4,s1,s0
9d00a5e0:	02003025 	move	a2,s0
9d00a5e4:	02c02825 	move	a1,s6
9d00a5e8:	0f402cb3 	jal	9d00b2cc <__out>
9d00a5ec:	02402025 	move	a0,s2
9d00a5f0:	1680000d 	bnez	s4,9d00a628 <__pad+0x94>
9d00a5f4:	0230a023 	subu	s4,s1,s0
9d00a5f8:	02008825 	move	s1,s0
9d00a5fc:	8fbf003c 	lw	ra,60(sp)
9d00a600:	02201025 	move	v0,s1
9d00a604:	8fb60038 	lw	s6,56(sp)
9d00a608:	8fb50034 	lw	s5,52(sp)
9d00a60c:	8fb40030 	lw	s4,48(sp)
9d00a610:	8fb3002c 	lw	s3,44(sp)
9d00a614:	8fb20028 	lw	s2,40(sp)
9d00a618:	8fb10024 	lw	s1,36(sp)
9d00a61c:	8fb00020 	lw	s0,32(sp)
9d00a620:	03e00008 	jr	ra
9d00a624:	27bd0040 	addiu	sp,sp,64
9d00a628:	2e860011 	sltiu	a2,s4,17
9d00a62c:	24020010 	li	v0,16
9d00a630:	0286100b 	movn	v0,s4,a2
9d00a634:	00403025 	move	a2,v0
9d00a638:	24050020 	li	a1,32
9d00a63c:	27a40010 	addiu	a0,sp,16
9d00a640:	0f40309f 	jal	9d00c27c <memset>
9d00a644:	0280a825 	move	s5,s4
9d00a648:	2ea20010 	sltiu	v0,s5,16
9d00a64c:	1040000b 	beqz	v0,9d00a67c <__pad+0xe8>
9d00a650:	3286000f 	andi	a2,s4,0xf
9d00a654:	27a50010 	addiu	a1,sp,16
9d00a658:	0f402cb3 	jal	9d00b2cc <__out>
9d00a65c:	02402025 	move	a0,s2
9d00a660:	1660ffe6 	bnez	s3,9d00a5fc <__pad+0x68>
9d00a664:	02003025 	move	a2,s0
9d00a668:	02c02825 	move	a1,s6
9d00a66c:	0f402cb3 	jal	9d00b2cc <__out>
9d00a670:	02402025 	move	a0,s2
9d00a674:	1000ffe2 	b	9d00a600 <__pad+0x6c>
9d00a678:	8fbf003c 	lw	ra,60(sp)
9d00a67c:	24060010 	li	a2,16
9d00a680:	27a50010 	addiu	a1,sp,16
9d00a684:	0f402cb3 	jal	9d00b2cc <__out>
9d00a688:	02402025 	move	a0,s2
9d00a68c:	1000ffee 	b	9d00a648 <__pad+0xb4>
9d00a690:	26b5fff0 	addiu	s5,s5,-16

Disassembly of section .text.dptofp:

9d00a694 <__truncdfsf2>:
9d00a694:	00053ac0 00045d42 00eb3825 000432c0     .:..B]..%8...2..
9d00a6a4:	3c018000 00e13825 3c018000 00a14824     ...<%8.....<$H..
9d00a6b4:	00054040 00084542 2508fc80 250bffff     @@..BE.....%...%
9d00a6c4:	2d6100fe 10200012 00000000              ..a-.. .....

9d00a6d0 <Hlab1>:
9d00a6d0:	10c00002 	beqz	a2,9d00a6dc <i45>
9d00a6d4:	00000000 	nop
9d00a6d8:	34e70001 	ori	a3,a3,0x1

9d00a6dc <i45>:
9d00a6dc:	24e70080 	addiu	a3,a3,128
9d00a6e0:	2ceb0080 	sltiu	t3,a3,128
9d00a6e4:	010b4021 	addu	t0,t0,t3
9d00a6e8:	00075a02 	srl	t3,a3,0x8
9d00a6ec:	316b0001 	andi	t3,t3,0x1
9d00a6f0:	00eb3823 	subu	a3,a3,t3
9d00a6f4:	00073840 	sll	a3,a3,0x1
9d00a6f8:	00073a42 	srl	a3,a3,0x9
9d00a6fc:	00085dc0 	sll	t3,t0,0x17
9d00a700:	00eb3825 	or	a3,a3,t3
9d00a704:	00e91025 	or	v0,a3,t1

9d00a708 <H999>:
9d00a708:	03e00008 	jr	ra
9d00a70c:	00000000 	nop
9d00a710:	00000000 	nop

9d00a714 <Hspec>:
9d00a714:	2401047f 	li	at,1151
9d00a718:	15010007 	bne	t0,at,9d00a738 <i46>
9d00a71c:	00000000 	nop
9d00a720:	00075840 	sll	t3,a3,0x1
9d00a724:	01665825 	or	t3,t3,a2
9d00a728:	11600003 	beqz	t3,9d00a738 <i46>
9d00a72c:	00000000 	nop
9d00a730:	1000fff5 	b	9d00a708 <H999>
9d00a734:	3c02ffc0 	lui	v0,0xffc0

9d00a738 <i46>:
9d00a738:	290100ff 	slti	at,t0,255
9d00a73c:	14200004 	bnez	at,9d00a750 <i48>
9d00a740:	00000000 	nop
9d00a744:	3c017f80 	lui	at,0x7f80
9d00a748:	1000ffef 	b	9d00a708 <H999>
9d00a74c:	01211025 	or	v0,t1,at

9d00a750 <i48>:
9d00a750:	240a0001 	li	t2,1
9d00a754:	01485023 	subu	t2,t2,t0
9d00a758:	2d410020 	sltiu	at,t2,32
9d00a75c:	14200003 	bnez	at,9d00a76c <i49>
9d00a760:	00000000 	nop
9d00a764:	1000ffe8 	b	9d00a708 <H999>
9d00a768:	00091025 	or	v0,zero,t1

9d00a76c <i49>:
9d00a76c:	240c0020 	li	t4,32
9d00a770:	018a6023 	subu	t4,t4,t2
9d00a774:	01875804 	sllv	t3,a3,t4
9d00a778:	00cb3025 	or	a2,a2,t3
9d00a77c:	01473806 	srlv	a3,a3,t2
9d00a780:	24080000 	li	t0,0
9d00a784:	3c018000 	lui	at,0x8000
9d00a788:	1000ffd1 	b	9d00a6d0 <Hlab1>
9d00a78c:	00e13825 	or	a3,a3,at
9d00a790:	00000000 	nop

Disassembly of section .text.__pop_ptr:

9d00a794 <__pop_ptr>:
9d00a794:	24020084 	li	v0,132
9d00a798:	50a20022 	beql	a1,v0,9d00a824 <__pop_ptr+0x90>
9d00a79c:	8ce20000 	lw	v0,0(a3)
9d00a7a0:	28a20085 	slti	v0,a1,133
9d00a7a4:	10400010 	beqz	v0,9d00a7e8 <__pop_ptr+0x54>
9d00a7a8:	24020081 	li	v0,129
9d00a7ac:	50a20008 	beql	a1,v0,9d00a7d0 <__pop_ptr+0x3c>
9d00a7b0:	8ce20000 	lw	v0,0(a3)
9d00a7b4:	24020082 	li	v0,130
9d00a7b8:	50a20027 	beql	a1,v0,9d00a858 <__pop_ptr+0xc4>
9d00a7bc:	8ce20000 	lw	v0,0(a3)
9d00a7c0:	24020080 	li	v0,128
9d00a7c4:	14a20010 	bne	a1,v0,9d00a808 <__pop_ptr+0x74>
9d00a7c8:	00000000 	nop
9d00a7cc:	8ce20000 	lw	v0,0(a3)
9d00a7d0:	24430004 	addiu	v1,v0,4
9d00a7d4:	ace30000 	sw	v1,0(a3)
9d00a7d8:	8c420000 	lw	v0,0(v0)
9d00a7dc:	ac820000 	sw	v0,0(a0)
9d00a7e0:	10000015 	b	9d00a838 <__pop_ptr+0xa4>
9d00a7e4:	ac460000 	sw	a2,0(v0)
9d00a7e8:	24020090 	li	v0,144
9d00a7ec:	50a2001a 	beql	a1,v0,9d00a858 <__pop_ptr+0xc4>
9d00a7f0:	8ce20000 	lw	v0,0(a3)
9d00a7f4:	28a20091 	slti	v0,a1,145
9d00a7f8:	10400005 	beqz	v0,9d00a810 <__pop_ptr+0x7c>
9d00a7fc:	24020088 	li	v0,136
9d00a800:	50a2000f 	beql	a1,v0,9d00a840 <__pop_ptr+0xac>
9d00a804:	8ce20000 	lw	v0,0(a3)
9d00a808:	03e00008 	jr	ra
9d00a80c:	00001025 	move	v0,zero
9d00a810:	240200a0 	li	v0,160
9d00a814:	50a2ffee 	beql	a1,v0,9d00a7d0 <__pop_ptr+0x3c>
9d00a818:	8ce20000 	lw	v0,0(a3)
9d00a81c:	1000ffe9 	b	9d00a7c4 <__pop_ptr+0x30>
9d00a820:	240200c0 	li	v0,192
9d00a824:	24430004 	addiu	v1,v0,4
9d00a828:	ace30000 	sw	v1,0(a3)
9d00a82c:	8c420000 	lw	v0,0(v0)
9d00a830:	ac820000 	sw	v0,0(a0)
9d00a834:	a4460000 	sh	a2,0(v0)
9d00a838:	03e00008 	jr	ra
9d00a83c:	24020001 	li	v0,1
9d00a840:	24430004 	addiu	v1,v0,4
9d00a844:	ace30000 	sw	v1,0(a3)
9d00a848:	8c420000 	lw	v0,0(v0)
9d00a84c:	ac820000 	sw	v0,0(a0)
9d00a850:	1000fff9 	b	9d00a838 <__pop_ptr+0xa4>
9d00a854:	a0460000 	sb	a2,0(v0)
9d00a858:	24430004 	addiu	v1,v0,4
9d00a85c:	ace30000 	sw	v1,0(a3)
9d00a860:	8c420000 	lw	v0,0(v0)
9d00a864:	ac820000 	sw	v0,0(a0)
9d00a868:	ac460000 	sw	a2,0(v0)
9d00a86c:	000637c3 	sra	a2,a2,0x1f
9d00a870:	1000fff1 	b	9d00a838 <__pop_ptr+0xa4>
9d00a874:	ac460004 	sw	a2,4(v0)

Disassembly of section .text.general_exception:

9d00a878 <_general_exception_context>:
9d00a878:	27bdffa8 	addiu	sp,sp,-88
9d00a87c:	afa10004 	sw	at,4(sp)
9d00a880:	afa20008 	sw	v0,8(sp)
9d00a884:	afa3000c 	sw	v1,12(sp)
9d00a888:	afa40010 	sw	a0,16(sp)
9d00a88c:	afa50014 	sw	a1,20(sp)
9d00a890:	afa60018 	sw	a2,24(sp)
9d00a894:	afa7001c 	sw	a3,28(sp)
9d00a898:	afa80020 	sw	t0,32(sp)
9d00a89c:	afa90024 	sw	t1,36(sp)
9d00a8a0:	afaa0028 	sw	t2,40(sp)
9d00a8a4:	afab002c 	sw	t3,44(sp)
9d00a8a8:	afac0030 	sw	t4,48(sp)
9d00a8ac:	afad0034 	sw	t5,52(sp)
9d00a8b0:	afae0038 	sw	t6,56(sp)
9d00a8b4:	afaf003c 	sw	t7,60(sp)
9d00a8b8:	afb80040 	sw	t8,64(sp)
9d00a8bc:	afb90044 	sw	t9,68(sp)
9d00a8c0:	afbf0048 	sw	ra,72(sp)
9d00a8c4:	00004012 	mflo	t0
9d00a8c8:	afa8004c 	sw	t0,76(sp)
9d00a8cc:	00004010 	mfhi	t0
9d00a8d0:	afa80050 	sw	t0,80(sp)
9d00a8d4:	3c1a9d01 	lui	k0,0x9d01
9d00a8d8:	275abc1c 	addiu	k0,k0,-17380
9d00a8dc:	00000000 	nop
9d00a8e0:	40046800 	mfc0	a0,c0_cause
9d00a8e4:	40056000 	mfc0	a1,c0_status
9d00a8e8:	0340f809 	jalr	k0
9d00a8ec:	00000000 	nop
9d00a8f0:	8fa80050 	lw	t0,80(sp)
9d00a8f4:	01000011 	mthi	t0
9d00a8f8:	8fa8004c 	lw	t0,76(sp)
9d00a8fc:	01000013 	mtlo	t0
9d00a900:	8fa10004 	lw	at,4(sp)
9d00a904:	8fa20008 	lw	v0,8(sp)
9d00a908:	8fa3000c 	lw	v1,12(sp)
9d00a90c:	8fa40010 	lw	a0,16(sp)
9d00a910:	8fa50014 	lw	a1,20(sp)
9d00a914:	8fa60018 	lw	a2,24(sp)
9d00a918:	8fa7001c 	lw	a3,28(sp)
9d00a91c:	8fa80020 	lw	t0,32(sp)
9d00a920:	8fa90024 	lw	t1,36(sp)
9d00a924:	8faa0028 	lw	t2,40(sp)
9d00a928:	8fab002c 	lw	t3,44(sp)
9d00a92c:	8fac0030 	lw	t4,48(sp)
9d00a930:	8fad0034 	lw	t5,52(sp)
9d00a934:	8fae0038 	lw	t6,56(sp)
9d00a938:	8faf003c 	lw	t7,60(sp)
9d00a93c:	8fb80040 	lw	t8,64(sp)
9d00a940:	8fb90044 	lw	t9,68(sp)
9d00a944:	8fbf0048 	lw	ra,72(sp)
9d00a948:	27bd0058 	addiu	sp,sp,88
9d00a94c:	000000c0 	ehb
9d00a950:	42000018 	eret

Disassembly of section .text.__stdio_read:

9d00a954 <__stdio_read>:
9d00a954:	8c83000c 	lw	v1,12(a0)
9d00a958:	27bdffd0 	addiu	sp,sp,-48
9d00a95c:	afb00020 	sw	s0,32(sp)
9d00a960:	0003102b 	sltu	v0,zero,v1
9d00a964:	00c21023 	subu	v0,a2,v0
9d00a968:	00808025 	move	s0,a0
9d00a96c:	afa20014 	sw	v0,20(sp)
9d00a970:	8c820008 	lw	v0,8(a0)
9d00a974:	8c840000 	lw	a0,0(a0)
9d00a978:	afb20028 	sw	s2,40(sp)
9d00a97c:	afb10024 	sw	s1,36(sp)
9d00a980:	00a09025 	move	s2,a1
9d00a984:	00c08825 	move	s1,a2
9d00a988:	afa50010 	sw	a1,16(sp)
9d00a98c:	24060002 	li	a2,2
9d00a990:	27a50010 	addiu	a1,sp,16
9d00a994:	afbf002c 	sw	ra,44(sp)
9d00a998:	afa20018 	sw	v0,24(sp)
9d00a99c:	0f402d9c 	jal	9d00b670 <readv>
9d00a9a0:	afa3001c 	sw	v1,28(sp)
9d00a9a4:	1c400007 	bgtz	v0,9d00a9c4 <__stdio_read+0x70>
9d00a9a8:	30430018 	andi	v1,v0,0x18
9d00a9ac:	38640008 	xori	a0,v1,0x8
9d00a9b0:	8e030004 	lw	v1,4(s0)
9d00a9b4:	00641825 	or	v1,v1,a0
9d00a9b8:	ae030004 	sw	v1,4(s0)
9d00a9bc:	10000011 	b	9d00aa04 <__stdio_read+0xb0>
9d00a9c0:	00408825 	move	s1,v0
9d00a9c4:	8fa40014 	lw	a0,20(sp)
9d00a9c8:	0082182b 	sltu	v1,a0,v0
9d00a9cc:	5060000d 	beqzl	v1,9d00aa04 <__stdio_read+0xb0>
9d00a9d0:	00408825 	move	s1,v0
9d00a9d4:	8e030008 	lw	v1,8(s0)
9d00a9d8:	00441023 	subu	v0,v0,a0
9d00a9dc:	00621021 	addu	v0,v1,v0
9d00a9e0:	ae020040 	sw	v0,64(s0)
9d00a9e4:	8e02000c 	lw	v0,12(s0)
9d00a9e8:	10400006 	beqz	v0,9d00aa04 <__stdio_read+0xb0>
9d00a9ec:	ae03003c 	sw	v1,60(s0)
9d00a9f0:	24620001 	addiu	v0,v1,1
9d00a9f4:	ae02003c 	sw	v0,60(s0)
9d00a9f8:	90620000 	lbu	v0,0(v1)
9d00a9fc:	02519021 	addu	s2,s2,s1
9d00aa00:	a242ffff 	sb	v0,-1(s2)
9d00aa04:	8fbf002c 	lw	ra,44(sp)
9d00aa08:	02201025 	move	v0,s1
9d00aa0c:	8fb20028 	lw	s2,40(sp)
9d00aa10:	8fb10024 	lw	s1,36(sp)
9d00aa14:	8fb00020 	lw	s0,32(sp)
9d00aa18:	03e00008 	jr	ra
9d00aa1c:	27bd0030 	addiu	sp,sp,48

Disassembly of section .text.__simple_search_fl:

9d00aa20 <__simple_search_fl>:
9d00aa20:	3c06a000 	lui	a2,0xa000
9d00aa24:	8cca0164 	lw	t2,356(a2)
9d00aa28:	1140002b 	beqz	t2,9d00aad8 <__simple_search_fl+0xb8>
9d00aa2c:	00001025 	move	v0,zero
9d00aa30:	01401825 	move	v1,t2
9d00aa34:	00003825 	move	a3,zero
9d00aa38:	00004025 	move	t0,zero
9d00aa3c:	8c650000 	lw	a1,0(v1)
9d00aa40:	14a40008 	bne	a1,a0,9d00aa64 <__simple_search_fl+0x44>
9d00aa44:	8c690010 	lw	t1,16(v1)
9d00aa48:	50e00002 	beqzl	a3,9d00aa54 <__simple_search_fl+0x34>
9d00aa4c:	acc90164 	sw	t1,356(a2)
9d00aa50:	ace90010 	sw	t1,16(a3)
9d00aa54:	03e00008 	jr	ra
9d00aa58:	24620010 	addiu	v0,v1,16
9d00aa5c:	1000fff7 	b	9d00aa3c <__simple_search_fl+0x1c>
9d00aa60:	01201825 	move	v1,t1
9d00aa64:	0085582b 	sltu	t3,a0,a1
9d00aa68:	11600007 	beqz	t3,9d00aa88 <__simple_search_fl+0x68>
9d00aa6c:	00000000 	nop
9d00aa70:	5040001b 	beqzl	v0,9d00aae0 <__simple_search_fl+0xc0>
9d00aa74:	00e04025 	move	t0,a3
9d00aa78:	8c4b0000 	lw	t3,0(v0)
9d00aa7c:	00ab282b 	sltu	a1,a1,t3
9d00aa80:	00e5400b 	movn	t0,a3,a1
9d00aa84:	0065100b 	movn	v0,v1,a1
9d00aa88:	1520fff4 	bnez	t1,9d00aa5c <__simple_search_fl+0x3c>
9d00aa8c:	00603825 	move	a3,v1
9d00aa90:	10400011 	beqz	v0,9d00aad8 <__simple_search_fl+0xb8>
9d00aa94:	00000000 	nop
9d00aa98:	8c430000 	lw	v1,0(v0)
9d00aa9c:	8c450010 	lw	a1,16(v0)
9d00aaa0:	00641823 	subu	v1,v1,a0
9d00aaa4:	2c690011 	sltiu	t1,v1,17
9d00aaa8:	15200007 	bnez	t1,9d00aac8 <__simple_search_fl+0xa8>
9d00aaac:	24470010 	addiu	a3,v0,16
9d00aab0:	ac440000 	sw	a0,0(v0)
9d00aab4:	2463fff0 	addiu	v1,v1,-16
9d00aab8:	00e42021 	addu	a0,a3,a0
9d00aabc:	ac850010 	sw	a1,16(a0)
9d00aac0:	ac830000 	sw	v1,0(a0)
9d00aac4:	00802825 	move	a1,a0
9d00aac8:	55420002 	bnel	t2,v0,9d00aad4 <__simple_search_fl+0xb4>
9d00aacc:	ad050010 	sw	a1,16(t0)
9d00aad0:	acc50164 	sw	a1,356(a2)
9d00aad4:	00e01025 	move	v0,a3
9d00aad8:	03e00008 	jr	ra
9d00aadc:	00000000 	nop
9d00aae0:	1000ffe9 	b	9d00aa88 <__simple_search_fl+0x68>
9d00aae4:	00601025 	move	v0,v1

Disassembly of section .text.__stdio_seek_rw:

9d00aae8 <__stdio_seek_rw>:
9d00aae8:	27bdffe0 	addiu	sp,sp,-32
9d00aaec:	24020001 	li	v0,1
9d00aaf0:	afb20018 	sw	s2,24(sp)
9d00aaf4:	afb10014 	sw	s1,20(sp)
9d00aaf8:	afb00010 	sw	s0,16(sp)
9d00aafc:	afbf001c 	sw	ra,28(sp)
9d00ab00:	00808025 	move	s0,a0
9d00ab04:	00c09025 	move	s2,a2
9d00ab08:	14c20005 	bne	a2,v0,9d00ab20 <__stdio_seek_rw+0x38>
9d00ab0c:	00a08825 	move	s1,a1
9d00ab10:	8c820040 	lw	v0,64(a0)
9d00ab14:	8c83003c 	lw	v1,60(a0)
9d00ab18:	00431023 	subu	v0,v0,v1
9d00ab1c:	00a28823 	subu	s1,a1,v0
9d00ab20:	8e020004 	lw	v0,4(s0)
9d00ab24:	30420020 	andi	v0,v0,0x20
9d00ab28:	1040000a 	beqz	v0,9d00ab54 <__stdio_seek_rw+0x6c>
9d00ab2c:	02403025 	move	a2,s2
9d00ab30:	8e020014 	lw	v0,20(s0)
9d00ab34:	8e030018 	lw	v1,24(s0)
9d00ab38:	0062102b 	sltu	v0,v1,v0
9d00ab3c:	5440000d 	bnezl	v0,9d00ab74 <__stdio_seek_rw+0x8c>
9d00ab40:	8e02002c 	lw	v0,44(s0)
9d00ab44:	ae000028 	sw	zero,40(s0)
9d00ab48:	ae000018 	sw	zero,24(s0)
9d00ab4c:	ae000014 	sw	zero,20(s0)
9d00ab50:	02403025 	move	a2,s2
9d00ab54:	02202825 	move	a1,s1
9d00ab58:	0f402f3d 	jal	9d00bcf4 <__stdio_seek_unbuffered>
9d00ab5c:	02002025 	move	a0,s0
9d00ab60:	0440000b 	bltz	v0,9d00ab90 <__stdio_seek_rw+0xa8>
9d00ab64:	00001025 	move	v0,zero
9d00ab68:	ae000040 	sw	zero,64(s0)
9d00ab6c:	10000009 	b	9d00ab94 <__stdio_seek_rw+0xac>
9d00ab70:	ae00003c 	sw	zero,60(s0)
9d00ab74:	00003025 	move	a2,zero
9d00ab78:	00002825 	move	a1,zero
9d00ab7c:	0040f809 	jalr	v0
9d00ab80:	02002025 	move	a0,s0
9d00ab84:	8e020014 	lw	v0,20(s0)
9d00ab88:	5440ffef 	bnezl	v0,9d00ab48 <__stdio_seek_rw+0x60>
9d00ab8c:	ae000028 	sw	zero,40(s0)
9d00ab90:	2402ffff 	li	v0,-1
9d00ab94:	8fbf001c 	lw	ra,28(sp)
9d00ab98:	8fb20018 	lw	s2,24(sp)
9d00ab9c:	8fb10014 	lw	s1,20(sp)
9d00aba0:	8fb00010 	lw	s0,16(sp)
9d00aba4:	03e00008 	jr	ra
9d00aba8:	27bd0020 	addiu	sp,sp,32

Disassembly of section .text.__stdio_close_rw:

9d00abac <__stdio_close_rw>:
9d00abac:	14800003 	bnez	a0,9d00abbc <__stdio_close_rw+0x10>
9d00abb0:	00001025 	move	v0,zero
9d00abb4:	03e00008 	jr	ra
9d00abb8:	00000000 	nop
9d00abbc:	8c820004 	lw	v0,4(a0)
9d00abc0:	27bdffe0 	addiu	sp,sp,-32
9d00abc4:	afb10018 	sw	s1,24(sp)
9d00abc8:	30420020 	andi	v0,v0,0x20
9d00abcc:	afb00014 	sw	s0,20(sp)
9d00abd0:	afbf001c 	sw	ra,28(sp)
9d00abd4:	00808025 	move	s0,a0
9d00abd8:	10400009 	beqz	v0,9d00ac00 <__stdio_close_rw+0x54>
9d00abdc:	00a08825 	move	s1,a1
9d00abe0:	8c820014 	lw	v0,20(a0)
9d00abe4:	8c830018 	lw	v1,24(a0)
9d00abe8:	0062102b 	sltu	v0,v1,v0
9d00abec:	54400014 	bnezl	v0,9d00ac40 <__stdio_close_rw+0x94>
9d00abf0:	8c82002c 	lw	v0,44(a0)
9d00abf4:	ae000028 	sw	zero,40(s0)
9d00abf8:	ae000018 	sw	zero,24(s0)
9d00abfc:	ae000014 	sw	zero,20(s0)
9d00ac00:	8e05003c 	lw	a1,60(s0)
9d00ac04:	8e020040 	lw	v0,64(s0)
9d00ac08:	00a2182b 	sltu	v1,a1,v0
9d00ac0c:	10600004 	beqz	v1,9d00ac20 <__stdio_close_rw+0x74>
9d00ac10:	24060001 	li	a2,1
9d00ac14:	8e040000 	lw	a0,0(s0)
9d00ac18:	0f403163 	jal	9d00c58c <lseek>
9d00ac1c:	00a22823 	subu	a1,a1,v0
9d00ac20:	ae000040 	sw	zero,64(s0)
9d00ac24:	ae00003c 	sw	zero,60(s0)
9d00ac28:	1220000b 	beqz	s1,9d00ac58 <__stdio_close_rw+0xac>
9d00ac2c:	00001025 	move	v0,zero
9d00ac30:	0f403165 	jal	9d00c594 <close>
9d00ac34:	8e040000 	lw	a0,0(s0)
9d00ac38:	10000008 	b	9d00ac5c <__stdio_close_rw+0xb0>
9d00ac3c:	8fbf001c 	lw	ra,28(sp)
9d00ac40:	00003025 	move	a2,zero
9d00ac44:	0040f809 	jalr	v0
9d00ac48:	00002825 	move	a1,zero
9d00ac4c:	8e030014 	lw	v1,20(s0)
9d00ac50:	1460ffe8 	bnez	v1,9d00abf4 <__stdio_close_rw+0x48>
9d00ac54:	2402ffff 	li	v0,-1
9d00ac58:	8fbf001c 	lw	ra,28(sp)
9d00ac5c:	8fb10018 	lw	s1,24(sp)
9d00ac60:	8fb00014 	lw	s0,20(sp)
9d00ac64:	03e00008 	jr	ra
9d00ac68:	27bd0020 	addiu	sp,sp,32

Disassembly of section .text.strtox:

9d00ac6c <strtox>:
9d00ac6c:	27bdff78 	addiu	sp,sp,-136
9d00ac70:	afb20080 	sw	s2,128(sp)
9d00ac74:	afb1007c 	sw	s1,124(sp)
9d00ac78:	afb00078 	sw	s0,120(sp)
9d00ac7c:	afbf0084 	sw	ra,132(sp)
9d00ac80:	00808025 	move	s0,a0
9d00ac84:	00a08825 	move	s1,a1
9d00ac88:	00c09025 	move	s2,a2
9d00ac8c:	afa0001c 	sw	zero,28(sp)
9d00ac90:	afa40054 	sw	a0,84(sp)
9d00ac94:	afa40020 	sw	a0,32(sp)
9d00ac98:	04800004 	bltz	a0,9d00acac <strtox+0x40>
9d00ac9c:	2402ffff 	li	v0,-1
9d00aca0:	3c027fff 	lui	v0,0x7fff
9d00aca4:	3442ffff 	ori	v0,v0,0xffff
9d00aca8:	00821021 	addu	v0,a0,v0
9d00acac:	00002825 	move	a1,zero
9d00acb0:	27a40018 	addiu	a0,sp,24
9d00acb4:	0f40304a 	jal	9d00c128 <__shlim>
9d00acb8:	afa20058 	sw	v0,88(sp)
9d00acbc:	8fa20098 	lw	v0,152(sp)
9d00acc0:	8fa3009c 	lw	v1,156(sp)
9d00acc4:	02402825 	move	a1,s2
9d00acc8:	27a40018 	addiu	a0,sp,24
9d00accc:	afa20010 	sw	v0,16(sp)
9d00acd0:	afa30014 	sw	v1,20(sp)
9d00acd4:	0f401f08 	jal	9d007c20 <__intscan>
9d00acd8:	24060001 	li	a2,1
9d00acdc:	00402025 	move	a0,v0
9d00ace0:	12200008 	beqz	s1,9d00ad04 <strtox+0x98>
9d00ace4:	00602825 	move	a1,v1
9d00ace8:	8fa20058 	lw	v0,88(sp)
9d00acec:	8fa30054 	lw	v1,84(sp)
9d00acf0:	00621823 	subu	v1,v1,v0
9d00acf4:	8fa2006c 	lw	v0,108(sp)
9d00acf8:	00621821 	addu	v1,v1,v0
9d00acfc:	02038021 	addu	s0,s0,v1
9d00ad00:	ae300000 	sw	s0,0(s1)
9d00ad04:	8fbf0084 	lw	ra,132(sp)
9d00ad08:	00801025 	move	v0,a0
9d00ad0c:	00a01825 	move	v1,a1
9d00ad10:	8fb20080 	lw	s2,128(sp)
9d00ad14:	8fb1007c 	lw	s1,124(sp)
9d00ad18:	8fb00078 	lw	s0,120(sp)
9d00ad1c:	03e00008 	jr	ra
9d00ad20:	27bd0088 	addiu	sp,sp,136

Disassembly of section .text.__shgetc:

9d00ad24 <__shgetc>:
9d00ad24:	8c820050 	lw	v0,80(a0)
9d00ad28:	27bdffe8 	addiu	sp,sp,-24
9d00ad2c:	afb00010 	sw	s0,16(sp)
9d00ad30:	afbf0014 	sw	ra,20(sp)
9d00ad34:	1040000b 	beqz	v0,9d00ad64 <__shgetc+0x40>
9d00ad38:	00808025 	move	s0,a0
9d00ad3c:	8c830054 	lw	v1,84(a0)
9d00ad40:	0062102a 	slt	v0,v1,v0
9d00ad44:	14400007 	bnez	v0,9d00ad64 <__shgetc+0x40>
9d00ad48:	00000000 	nop
9d00ad4c:	ae00004c 	sw	zero,76(s0)
9d00ad50:	2402ffff 	li	v0,-1
9d00ad54:	8fbf0014 	lw	ra,20(sp)
9d00ad58:	8fb00010 	lw	s0,16(sp)
9d00ad5c:	03e00008 	jr	ra
9d00ad60:	27bd0018 	addiu	sp,sp,24
9d00ad64:	0f402eb9 	jal	9d00bae4 <__uflow>
9d00ad68:	02002025 	move	a0,s0
9d00ad6c:	0442fff8 	bltzl	v0,9d00ad50 <__shgetc+0x2c>
9d00ad70:	ae00004c 	sw	zero,76(s0)
9d00ad74:	8e030040 	lw	v1,64(s0)
9d00ad78:	8e040050 	lw	a0,80(s0)
9d00ad7c:	8e05003c 	lw	a1,60(s0)
9d00ad80:	10800009 	beqz	a0,9d00ada8 <__shgetc+0x84>
9d00ad84:	00603025 	move	a2,v1
9d00ad88:	8e060054 	lw	a2,84(s0)
9d00ad8c:	00653823 	subu	a3,v1,a1
9d00ad90:	00862023 	subu	a0,a0,a2
9d00ad94:	00e4382a 	slt	a3,a3,a0
9d00ad98:	14e00003 	bnez	a3,9d00ada8 <__shgetc+0x84>
9d00ad9c:	00603025 	move	a2,v1
9d00ada0:	2484ffff 	addiu	a0,a0,-1
9d00ada4:	00a43021 	addu	a2,a1,a0
9d00ada8:	10600006 	beqz	v1,9d00adc4 <__shgetc+0xa0>
9d00adac:	ae06004c 	sw	a2,76(s0)
9d00adb0:	8e040054 	lw	a0,84(s0)
9d00adb4:	00651823 	subu	v1,v1,a1
9d00adb8:	24630001 	addiu	v1,v1,1
9d00adbc:	00831821 	addu	v1,a0,v1
9d00adc0:	ae030054 	sw	v1,84(s0)
9d00adc4:	90a3ffff 	lbu	v1,-1(a1)
9d00adc8:	5462ffe2 	bnel	v1,v0,9d00ad54 <__shgetc+0x30>
9d00adcc:	a0a2ffff 	sb	v0,-1(a1)
9d00add0:	1000ffe1 	b	9d00ad58 <__shgetc+0x34>
9d00add4:	8fbf0014 	lw	ra,20(sp)

Disassembly of section .text.__simple_malloc:

9d00add8 <__simple_malloc>:
9d00add8:	27bdffd8 	addiu	sp,sp,-40
9d00addc:	afb10020 	sw	s1,32(sp)
9d00ade0:	3c11a000 	lui	s1,0xa000
9d00ade4:	8e220134 	lw	v0,308(s1)
9d00ade8:	afb0001c 	sw	s0,28(sp)
9d00adec:	afbf0024 	sw	ra,36(sp)
9d00adf0:	1040000e 	beqz	v0,9d00ae2c <__simple_malloc+0x54>
9d00adf4:	00808025 	move	s0,a0
9d00adf8:	0f402f71 	jal	9d00bdc4 <_get_heap_left_space>
9d00adfc:	00000000 	nop
9d00ae00:	27a40010 	addiu	a0,sp,16
9d00ae04:	0f402fbf 	jal	9d00befc <__expand_heap>
9d00ae08:	afa20010 	sw	v0,16(sp)
9d00ae0c:	2442000f 	addiu	v0,v0,15
9d00ae10:	8fa50010 	lw	a1,16(sp)
9d00ae14:	7c021804 	ins	v0,zero,0x0,0x4
9d00ae18:	0f4030a9 	jal	9d00c2a4 <__init_search_fl>
9d00ae1c:	00402025 	move	a0,v0
9d00ae20:	1040000c 	beqz	v0,9d00ae54 <__simple_malloc+0x7c>
9d00ae24:	8fbf0024 	lw	ra,36(sp)
9d00ae28:	ae200134 	sw	zero,308(s1)
9d00ae2c:	52000001 	beqzl	s0,9d00ae34 <__simple_malloc+0x5c>
9d00ae30:	24100001 	li	s0,1
9d00ae34:	2610000f 	addiu	s0,s0,15
9d00ae38:	7c101804 	ins	s0,zero,0x0,0x4
9d00ae3c:	16000009 	bnez	s0,9d00ae64 <__simple_malloc+0x8c>
9d00ae40:	3c02a000 	lui	v0,0xa000
9d00ae44:	2403000c 	li	v1,12
9d00ae48:	ac430160 	sw	v1,352(v0)
9d00ae4c:	00001025 	move	v0,zero
9d00ae50:	8fbf0024 	lw	ra,36(sp)
9d00ae54:	8fb10020 	lw	s1,32(sp)
9d00ae58:	8fb0001c 	lw	s0,28(sp)
9d00ae5c:	03e00008 	jr	ra
9d00ae60:	27bd0028 	addiu	sp,sp,40
9d00ae64:	2e020004 	sltiu	v0,s0,4
9d00ae68:	24030004 	li	v1,4
9d00ae6c:	0062800b 	movn	s0,v1,v0
9d00ae70:	0f402a88 	jal	9d00aa20 <__simple_search_fl>
9d00ae74:	02002025 	move	a0,s0
9d00ae78:	5440fff5 	bnezl	v0,9d00ae50 <__simple_malloc+0x78>
9d00ae7c:	ac50fffc 	sw	s0,-4(v0)
9d00ae80:	1000fff4 	b	9d00ae54 <__simple_malloc+0x7c>
9d00ae84:	8fbf0024 	lw	ra,36(sp)

Disassembly of section .text.__push_float:

9d00ae88 <__push_float>:
9d00ae88:	24020081 	li	v0,129
9d00ae8c:	50a20012 	beql	a1,v0,9d00aed8 <__push_float+0x50>
9d00ae90:	8cc20000 	lw	v0,0(a2)
9d00ae94:	24020083 	li	v0,131
9d00ae98:	50a20006 	beql	a1,v0,9d00aeb4 <__push_float+0x2c>
9d00ae9c:	8cc20000 	lw	v0,0(a2)
9d00aea0:	24020080 	li	v0,128
9d00aea4:	10a20012 	beq	a1,v0,9d00aef0 <__push_float+0x68>
9d00aea8:	00001025 	move	v0,zero
9d00aeac:	03e00008 	jr	ra
9d00aeb0:	00000000 	nop
9d00aeb4:	24430004 	addiu	v1,v0,4
9d00aeb8:	acc30000 	sw	v1,0(a2)
9d00aebc:	8c850004 	lw	a1,4(a0)
9d00aec0:	8c420000 	lw	v0,0(v0)
9d00aec4:	8c840000 	lw	a0,0(a0)
9d00aec8:	ac440000 	sw	a0,0(v0)
9d00aecc:	ac450004 	sw	a1,4(v0)
9d00aed0:	03e00008 	jr	ra
9d00aed4:	24020001 	li	v0,1
9d00aed8:	24430004 	addiu	v1,v0,4
9d00aedc:	acc30000 	sw	v1,0(a2)
9d00aee0:	8c850004 	lw	a1,4(a0)
9d00aee4:	8c420000 	lw	v0,0(v0)
9d00aee8:	1000fff7 	b	9d00aec8 <__push_float+0x40>
9d00aeec:	8c840000 	lw	a0,0(a0)
9d00aef0:	8cc20000 	lw	v0,0(a2)
9d00aef4:	8c850004 	lw	a1,4(a0)
9d00aef8:	8c840000 	lw	a0,0(a0)
9d00aefc:	24430004 	addiu	v1,v0,4
9d00af00:	27bdffe8 	addiu	sp,sp,-24
9d00af04:	acc30000 	sw	v1,0(a2)
9d00af08:	afb00010 	sw	s0,16(sp)
9d00af0c:	afbf0014 	sw	ra,20(sp)
9d00af10:	0f4029a5 	jal	9d00a694 <__truncdfsf2>
9d00af14:	8c500000 	lw	s0,0(v0)
9d00af18:	8fbf0014 	lw	ra,20(sp)
9d00af1c:	ae020000 	sw	v0,0(s0)
9d00af20:	24020001 	li	v0,1
9d00af24:	8fb00010 	lw	s0,16(sp)
9d00af28:	03e00008 	jr	ra
9d00af2c:	27bd0018 	addiu	sp,sp,24

Disassembly of section .text.__skipws:

9d00af30 <__skipws>:
9d00af30:	27bdffe0 	addiu	sp,sp,-32
9d00af34:	afb10018 	sw	s1,24(sp)
9d00af38:	afb00014 	sw	s0,20(sp)
9d00af3c:	afbf001c 	sw	ra,28(sp)
9d00af40:	00808025 	move	s0,a0
9d00af44:	00008825 	move	s1,zero
9d00af48:	8e02003c 	lw	v0,60(s0)
9d00af4c:	8e03004c 	lw	v1,76(s0)
9d00af50:	0043182b 	sltu	v1,v0,v1
9d00af54:	10600017 	beqz	v1,9d00afb4 <__skipws+0x84>
9d00af58:	24430001 	addiu	v1,v0,1
9d00af5c:	ae03003c 	sw	v1,60(s0)
9d00af60:	90420000 	lbu	v0,0(v0)
9d00af64:	24030020 	li	v1,32
9d00af68:	10430010 	beq	v0,v1,9d00afac <__skipws+0x7c>
9d00af6c:	2442fff7 	addiu	v0,v0,-9
9d00af70:	2c420005 	sltiu	v0,v0,5
9d00af74:	5440fff4 	bnezl	v0,9d00af48 <__skipws+0x18>
9d00af78:	26310001 	addiu	s1,s1,1
9d00af7c:	8e02004c 	lw	v0,76(s0)
9d00af80:	10400005 	beqz	v0,9d00af98 <__skipws+0x68>
9d00af84:	8fbf001c 	lw	ra,28(sp)
9d00af88:	8e02003c 	lw	v0,60(s0)
9d00af8c:	2442ffff 	addiu	v0,v0,-1
9d00af90:	ae02003c 	sw	v0,60(s0)
9d00af94:	8fbf001c 	lw	ra,28(sp)
9d00af98:	02201025 	move	v0,s1
9d00af9c:	8fb00014 	lw	s0,20(sp)
9d00afa0:	8fb10018 	lw	s1,24(sp)
9d00afa4:	03e00008 	jr	ra
9d00afa8:	27bd0020 	addiu	sp,sp,32
9d00afac:	1000ffe6 	b	9d00af48 <__skipws+0x18>
9d00afb0:	26310001 	addiu	s1,s1,1
9d00afb4:	0f402b49 	jal	9d00ad24 <__shgetc>
9d00afb8:	02002025 	move	a0,s0
9d00afbc:	2403ffff 	li	v1,-1
9d00afc0:	1443ffe8 	bne	v0,v1,9d00af64 <__skipws+0x34>
9d00afc4:	8fbf001c 	lw	ra,28(sp)
9d00afc8:	1000fff4 	b	9d00af9c <__skipws+0x6c>
9d00afcc:	02201025 	move	v0,s1

Disassembly of section .text.__string_read:

9d00afd0 <__string_read>:
9d00afd0:	27bdffd0 	addiu	sp,sp,-48
9d00afd4:	afb00014 	sw	s0,20(sp)
9d00afd8:	8c900038 	lw	s0,56(a0)
9d00afdc:	afb2001c 	sw	s2,28(sp)
9d00afe0:	24d20100 	addiu	s2,a2,256
9d00afe4:	afb50028 	sw	s5,40(sp)
9d00afe8:	afb40024 	sw	s4,36(sp)
9d00afec:	afb30020 	sw	s3,32(sp)
9d00aff0:	00a0a825 	move	s5,a1
9d00aff4:	00809825 	move	s3,a0
9d00aff8:	00c0a025 	move	s4,a2
9d00affc:	00002825 	move	a1,zero
9d00b000:	02403025 	move	a2,s2
9d00b004:	02002025 	move	a0,s0
9d00b008:	afbf002c 	sw	ra,44(sp)
9d00b00c:	0f402f82 	jal	9d00be08 <memchr>
9d00b010:	afb10018 	sw	s1,24(sp)
9d00b014:	54400001 	bnezl	v0,9d00b01c <__string_read+0x4c>
9d00b018:	00509023 	subu	s2,v0,s0
9d00b01c:	0292882b 	sltu	s1,s4,s2
9d00b020:	0251a00a 	movz	s4,s2,s1
9d00b024:	02803025 	move	a2,s4
9d00b028:	02002825 	move	a1,s0
9d00b02c:	0f40306b 	jal	9d00c1ac <memcpy>
9d00b030:	02a02025 	move	a0,s5
9d00b034:	8fbf002c 	lw	ra,44(sp)
9d00b038:	02141021 	addu	v0,s0,s4
9d00b03c:	02128021 	addu	s0,s0,s2
9d00b040:	ae62003c 	sw	v0,60(s3)
9d00b044:	ae700040 	sw	s0,64(s3)
9d00b048:	ae700038 	sw	s0,56(s3)
9d00b04c:	02801025 	move	v0,s4
9d00b050:	8fb50028 	lw	s5,40(sp)
9d00b054:	8fb40024 	lw	s4,36(sp)
9d00b058:	8fb30020 	lw	s3,32(sp)
9d00b05c:	8fb2001c 	lw	s2,28(sp)
9d00b060:	8fb10018 	lw	s1,24(sp)
9d00b064:	8fb00014 	lw	s0,20(sp)
9d00b068:	03e00008 	jr	ra
9d00b06c:	27bd0030 	addiu	sp,sp,48

Disassembly of section .text.__stdio_close:

9d00b070 <__stdio_close>:
9d00b070:	14800003 	bnez	a0,9d00b080 <__stdio_close+0x10>
9d00b074:	00001025 	move	v0,zero
9d00b078:	03e00008 	jr	ra
9d00b07c:	00000000 	nop
9d00b080:	8c820004 	lw	v0,4(a0)
9d00b084:	27bdffe0 	addiu	sp,sp,-32
9d00b088:	afb10018 	sw	s1,24(sp)
9d00b08c:	30420020 	andi	v0,v0,0x20
9d00b090:	afb00014 	sw	s0,20(sp)
9d00b094:	afbf001c 	sw	ra,28(sp)
9d00b098:	00808025 	move	s0,a0
9d00b09c:	1440000b 	bnez	v0,9d00b0cc <__stdio_close+0x5c>
9d00b0a0:	00a08825 	move	s1,a1
9d00b0a4:	ae000028 	sw	zero,40(s0)
9d00b0a8:	ae000018 	sw	zero,24(s0)
9d00b0ac:	16200014 	bnez	s1,9d00b100 <__stdio_close+0x90>
9d00b0b0:	ae000014 	sw	zero,20(s0)
9d00b0b4:	00001025 	move	v0,zero
9d00b0b8:	8fbf001c 	lw	ra,28(sp)
9d00b0bc:	8fb10018 	lw	s1,24(sp)
9d00b0c0:	8fb00014 	lw	s0,20(sp)
9d00b0c4:	03e00008 	jr	ra
9d00b0c8:	27bd0020 	addiu	sp,sp,32
9d00b0cc:	8c820014 	lw	v0,20(a0)
9d00b0d0:	8c830018 	lw	v1,24(a0)
9d00b0d4:	0062102b 	sltu	v0,v1,v0
9d00b0d8:	1040fff2 	beqz	v0,9d00b0a4 <__stdio_close+0x34>
9d00b0dc:	00003025 	move	a2,zero
9d00b0e0:	8c82002c 	lw	v0,44(a0)
9d00b0e4:	0040f809 	jalr	v0
9d00b0e8:	00002825 	move	a1,zero
9d00b0ec:	8e030014 	lw	v1,20(s0)
9d00b0f0:	1060fff1 	beqz	v1,9d00b0b8 <__stdio_close+0x48>
9d00b0f4:	2402ffff 	li	v0,-1
9d00b0f8:	1000ffeb 	b	9d00b0a8 <__stdio_close+0x38>
9d00b0fc:	ae000028 	sw	zero,40(s0)
9d00b100:	0f403165 	jal	9d00c594 <close>
9d00b104:	8e040000 	lw	a0,0(s0)
9d00b108:	1000ffec 	b	9d00b0bc <__stdio_close+0x4c>
9d00b10c:	8fbf001c 	lw	ra,28(sp)

Disassembly of section .text.__toread:

9d00b110 <__toread>:
9d00b110:	27bdffe8 	addiu	sp,sp,-24
9d00b114:	afb00010 	sw	s0,16(sp)
9d00b118:	afbf0014 	sw	ra,20(sp)
9d00b11c:	80820048 	lb	v0,72(a0)
9d00b120:	2443ffff 	addiu	v1,v0,-1
9d00b124:	00431025 	or	v0,v0,v1
9d00b128:	a0820048 	sb	v0,72(a0)
9d00b12c:	8c830018 	lw	v1,24(a0)
9d00b130:	8c820014 	lw	v0,20(a0)
9d00b134:	0062102b 	sltu	v0,v1,v0
9d00b138:	10400005 	beqz	v0,9d00b150 <__toread+0x40>
9d00b13c:	00808025 	move	s0,a0
9d00b140:	8c82002c 	lw	v0,44(a0)
9d00b144:	00003025 	move	a2,zero
9d00b148:	0040f809 	jalr	v0
9d00b14c:	00002825 	move	a1,zero
9d00b150:	8e020004 	lw	v0,4(s0)
9d00b154:	ae000028 	sw	zero,40(s0)
9d00b158:	ae000018 	sw	zero,24(s0)
9d00b15c:	30430002 	andi	v1,v0,0x2
9d00b160:	10600008 	beqz	v1,9d00b184 <__toread+0x74>
9d00b164:	ae000014 	sw	zero,20(s0)
9d00b168:	34420010 	ori	v0,v0,0x10
9d00b16c:	ae020004 	sw	v0,4(s0)
9d00b170:	2402ffff 	li	v0,-1
9d00b174:	8fbf0014 	lw	ra,20(sp)
9d00b178:	8fb00010 	lw	s0,16(sp)
9d00b17c:	03e00008 	jr	ra
9d00b180:	27bd0018 	addiu	sp,sp,24
9d00b184:	8e030008 	lw	v1,8(s0)
9d00b188:	8e04000c 	lw	a0,12(s0)
9d00b18c:	7c4200c0 	ext	v0,v0,0x3,0x1
9d00b190:	00021023 	negu	v0,v0
9d00b194:	00641821 	addu	v1,v1,a0
9d00b198:	ae030040 	sw	v1,64(s0)
9d00b19c:	1000fff5 	b	9d00b174 <__toread+0x64>
9d00b1a0:	ae03003c 	sw	v1,60(s0)

Disassembly of section .text.__stdio_seek:

9d00b1a4 <__stdio_seek>:
9d00b1a4:	8c820004 	lw	v0,4(a0)
9d00b1a8:	27bdffe0 	addiu	sp,sp,-32
9d00b1ac:	afb20018 	sw	s2,24(sp)
9d00b1b0:	30420020 	andi	v0,v0,0x20
9d00b1b4:	afb10014 	sw	s1,20(sp)
9d00b1b8:	afb00010 	sw	s0,16(sp)
9d00b1bc:	afbf001c 	sw	ra,28(sp)
9d00b1c0:	00808025 	move	s0,a0
9d00b1c4:	00a08825 	move	s1,a1
9d00b1c8:	10400009 	beqz	v0,9d00b1f0 <__stdio_seek+0x4c>
9d00b1cc:	00c09025 	move	s2,a2
9d00b1d0:	8c820014 	lw	v0,20(a0)
9d00b1d4:	8c830018 	lw	v1,24(a0)
9d00b1d8:	0062102b 	sltu	v0,v1,v0
9d00b1dc:	5440000a 	bnezl	v0,9d00b208 <__stdio_seek+0x64>
9d00b1e0:	8c82002c 	lw	v0,44(a0)
9d00b1e4:	ae000028 	sw	zero,40(s0)
9d00b1e8:	ae000018 	sw	zero,24(s0)
9d00b1ec:	ae000014 	sw	zero,20(s0)
9d00b1f0:	02403025 	move	a2,s2
9d00b1f4:	02202825 	move	a1,s1
9d00b1f8:	0f402f3d 	jal	9d00bcf4 <__stdio_seek_unbuffered>
9d00b1fc:	02002025 	move	a0,s0
9d00b200:	10000008 	b	9d00b224 <__stdio_seek+0x80>
9d00b204:	8fbf001c 	lw	ra,28(sp)
9d00b208:	00003025 	move	a2,zero
9d00b20c:	0040f809 	jalr	v0
9d00b210:	00002825 	move	a1,zero
9d00b214:	8e030014 	lw	v1,20(s0)
9d00b218:	1460fff2 	bnez	v1,9d00b1e4 <__stdio_seek+0x40>
9d00b21c:	2402ffff 	li	v0,-1
9d00b220:	8fbf001c 	lw	ra,28(sp)
9d00b224:	8fb20018 	lw	s2,24(sp)
9d00b228:	8fb10014 	lw	s1,20(sp)
9d00b22c:	8fb00010 	lw	s0,16(sp)
9d00b230:	03e00008 	jr	ra
9d00b234:	27bd0020 	addiu	sp,sp,32

Disassembly of section .text.__overflow:

9d00b238 <__overflow>:
9d00b238:	8c820028 	lw	v0,40(a0)
9d00b23c:	27bdffe0 	addiu	sp,sp,-32
9d00b240:	afb00018 	sw	s0,24(sp)
9d00b244:	afbf001c 	sw	ra,28(sp)
9d00b248:	00808025 	move	s0,a0
9d00b24c:	10400010 	beqz	v0,9d00b290 <__overflow+0x58>
9d00b250:	a3a50010 	sb	a1,16(sp)
9d00b254:	8e030014 	lw	v1,20(s0)
9d00b258:	8e020028 	lw	v0,40(s0)
9d00b25c:	0062102b 	sltu	v0,v1,v0
9d00b260:	14400014 	bnez	v0,9d00b2b4 <__overflow+0x7c>
9d00b264:	93a20010 	lbu	v0,16(sp)
9d00b268:	8e02002c 	lw	v0,44(s0)
9d00b26c:	24060001 	li	a2,1
9d00b270:	27a50010 	addiu	a1,sp,16
9d00b274:	0040f809 	jalr	v0
9d00b278:	02002025 	move	a0,s0
9d00b27c:	24030001 	li	v1,1
9d00b280:	14430007 	bne	v0,v1,9d00b2a0 <__overflow+0x68>
9d00b284:	93a20010 	lbu	v0,16(sp)
9d00b288:	10000007 	b	9d00b2a8 <__overflow+0x70>
9d00b28c:	8fbf001c 	lw	ra,28(sp)
9d00b290:	0f402f60 	jal	9d00bd80 <__towrite>
9d00b294:	00000000 	nop
9d00b298:	5040ffef 	beqzl	v0,9d00b258 <__overflow+0x20>
9d00b29c:	8e030014 	lw	v1,20(s0)
9d00b2a0:	2402ffff 	li	v0,-1
9d00b2a4:	8fbf001c 	lw	ra,28(sp)
9d00b2a8:	8fb00018 	lw	s0,24(sp)
9d00b2ac:	03e00008 	jr	ra
9d00b2b0:	27bd0020 	addiu	sp,sp,32
9d00b2b4:	82040034 	lb	a0,52(s0)
9d00b2b8:	1044ffeb 	beq	v0,a0,9d00b268 <__overflow+0x30>
9d00b2bc:	24640001 	addiu	a0,v1,1
9d00b2c0:	ae040014 	sw	a0,20(s0)
9d00b2c4:	1000fff7 	b	9d00b2a4 <__overflow+0x6c>
9d00b2c8:	a0620000 	sb	v0,0(v1)

Disassembly of section .text.__out:

9d00b2cc <__out>:
9d00b2cc:	8c820004 	lw	v0,4(a0)
9d00b2d0:	27bdffe0 	addiu	sp,sp,-32
9d00b2d4:	afbf001c 	sw	ra,28(sp)
9d00b2d8:	30470100 	andi	a3,v0,0x100
9d00b2dc:	afb10018 	sw	s1,24(sp)
9d00b2e0:	10e00017 	beqz	a3,9d00b340 <__out+0x74>
9d00b2e4:	afb00014 	sw	s0,20(sp)
9d00b2e8:	8c820010 	lw	v0,16(a0)
9d00b2ec:	00c01825 	move	v1,a2
9d00b2f0:	00c2882b 	sltu	s1,a2,v0
9d00b2f4:	0051180a 	movz	v1,v0,s1
9d00b2f8:	1060000c 	beqz	v1,9d00b32c <__out+0x60>
9d00b2fc:	00608825 	move	s1,v1
9d00b300:	00808025 	move	s0,a0
9d00b304:	8c840014 	lw	a0,20(a0)
9d00b308:	0f40306b 	jal	9d00c1ac <memcpy>
9d00b30c:	00603025 	move	a2,v1
9d00b310:	8e020014 	lw	v0,20(s0)
9d00b314:	8e030010 	lw	v1,16(s0)
9d00b318:	00511021 	addu	v0,v0,s1
9d00b31c:	00718823 	subu	s1,v1,s1
9d00b320:	ae020014 	sw	v0,20(s0)
9d00b324:	ae110010 	sw	s1,16(s0)
9d00b328:	a0400000 	sb	zero,0(v0)
9d00b32c:	8fbf001c 	lw	ra,28(sp)
9d00b330:	8fb10018 	lw	s1,24(sp)
9d00b334:	8fb00014 	lw	s0,20(sp)
9d00b338:	03e00008 	jr	ra
9d00b33c:	27bd0020 	addiu	sp,sp,32
9d00b340:	30420010 	andi	v0,v0,0x10
9d00b344:	5440fffa 	bnezl	v0,9d00b330 <__out+0x64>
9d00b348:	8fbf001c 	lw	ra,28(sp)
9d00b34c:	0f402ffa 	jal	9d00bfe8 <__fwrite>
9d00b350:	00000000 	nop
9d00b354:	1000fff6 	b	9d00b330 <__out+0x64>
9d00b358:	8fbf001c 	lw	ra,28(sp)

Disassembly of section .text._sbrk:

9d00b35c <_sbrk>:
9d00b35c:	27bdffe0 	addiu	sp,sp,-32
9d00b360:	afb00014 	sw	s0,20(sp)
9d00b364:	3c10a000 	lui	s0,0xa000
9d00b368:	8e020150 	lw	v0,336(s0)
9d00b36c:	afb10018 	sw	s1,24(sp)
9d00b370:	afbf001c 	sw	ra,28(sp)
9d00b374:	10400008 	beqz	v0,9d00b398 <_sbrk+0x3c>
9d00b378:	00808825 	move	s1,a0
9d00b37c:	06200011 	bltz	s1,9d00b3c4 <_sbrk+0x68>
9d00b380:	8e020150 	lw	v0,336(s0)
9d00b384:	3c03a000 	lui	v1,0xa000
9d00b388:	8c630154 	lw	v1,340(v1)
9d00b38c:	00621823 	subu	v1,v1,v0
9d00b390:	10000011 	b	9d00b3d8 <_sbrk+0x7c>
9d00b394:	0071182b 	sltu	v1,v1,s1
9d00b398:	0f4026a6 	jal	9d009a98 <_sbrk_init>
9d00b39c:	00000000 	nop
9d00b3a0:	8e020150 	lw	v0,336(s0)
9d00b3a4:	1440fff5 	bnez	v0,9d00b37c <_sbrk+0x20>
9d00b3a8:	00000000 	nop
9d00b3ac:	2402ffff 	li	v0,-1
9d00b3b0:	8fbf001c 	lw	ra,28(sp)
9d00b3b4:	8fb10018 	lw	s1,24(sp)
9d00b3b8:	8fb00014 	lw	s0,20(sp)
9d00b3bc:	03e00008 	jr	ra
9d00b3c0:	27bd0020 	addiu	sp,sp,32
9d00b3c4:	3c03a000 	lui	v1,0xa000
9d00b3c8:	8c630158 	lw	v1,344(v1)
9d00b3cc:	00112023 	negu	a0,s1
9d00b3d0:	00431823 	subu	v1,v0,v1
9d00b3d4:	0064182b 	sltu	v1,v1,a0
9d00b3d8:	1460fff4 	bnez	v1,9d00b3ac <_sbrk+0x50>
9d00b3dc:	00518821 	addu	s1,v0,s1
9d00b3e0:	1000fff3 	b	9d00b3b0 <_sbrk+0x54>
9d00b3e4:	ae110150 	sw	s1,336(s0)

Disassembly of section .text.__fopen_rw:

9d00b3e8 <__fopen_rw>:
9d00b3e8:	27bdffe8 	addiu	sp,sp,-24
9d00b3ec:	afb00010 	sw	s0,16(sp)
9d00b3f0:	afbf0014 	sw	ra,20(sp)
9d00b3f4:	0f402b76 	jal	9d00add8 <__simple_malloc>
9d00b3f8:	24040468 	li	a0,1128
9d00b3fc:	10400017 	beqz	v0,9d00b45c <__fopen_rw+0x74>
9d00b400:	00408025 	move	s0,v0
9d00b404:	24060060 	li	a2,96
9d00b408:	00002825 	move	a1,zero
9d00b40c:	0f40309f 	jal	9d00c27c <memset>
9d00b410:	00402025 	move	a0,v0
9d00b414:	3c029d01 	lui	v0,0x9d01
9d00b418:	2442c314 	addiu	v0,v0,-15596
9d00b41c:	ae02002c 	sw	v0,44(s0)
9d00b420:	3c029d01 	lui	v0,0x9d01
9d00b424:	2442aae8 	addiu	v0,v0,-21784
9d00b428:	ae020030 	sw	v0,48(s0)
9d00b42c:	3c029d01 	lui	v0,0x9d01
9d00b430:	2442abac 	addiu	v0,v0,-21588
9d00b434:	ae02001c 	sw	v0,28(s0)
9d00b438:	3c029d01 	lui	v0,0x9d01
9d00b43c:	2442a954 	addiu	v0,v0,-22188
9d00b440:	ae020044 	sw	v0,68(s0)
9d00b444:	2402ffff 	li	v0,-1
9d00b448:	a2020034 	sb	v0,52(s0)
9d00b44c:	26020068 	addiu	v0,s0,104
9d00b450:	ae020008 	sw	v0,8(s0)
9d00b454:	24020400 	li	v0,1024
9d00b458:	ae02000c 	sw	v0,12(s0)
9d00b45c:	8fbf0014 	lw	ra,20(sp)
9d00b460:	02001025 	move	v0,s0
9d00b464:	8fb00010 	lw	s0,16(sp)
9d00b468:	03e00008 	jr	ra
9d00b46c:	27bd0018 	addiu	sp,sp,24

Disassembly of section .text.write:

9d00b470 <write>:
9d00b470:	27bdffe0 	addiu	sp,sp,-32
9d00b474:	afb10014 	sw	s1,20(sp)
9d00b478:	afbf001c 	sw	ra,28(sp)
9d00b47c:	afb20018 	sw	s2,24(sp)
9d00b480:	afb00010 	sw	s0,16(sp)
9d00b484:	10a0000d 	beqz	a1,9d00b4bc <write+0x4c>
9d00b488:	00008825 	move	s1,zero
9d00b48c:	50c0000c 	beqzl	a2,9d00b4c0 <write+0x50>
9d00b490:	8fbf001c 	lw	ra,28(sp)
9d00b494:	2c840003 	sltiu	a0,a0,3
9d00b498:	10800008 	beqz	a0,9d00b4bc <write+0x4c>
9d00b49c:	00c08825 	move	s1,a2
9d00b4a0:	3c020000 	lui	v0,0x0
9d00b4a4:	24420000 	addiu	v0,v0,0
9d00b4a8:	1040000b 	beqz	v0,9d00b4d8 <write+0x68>
9d00b4ac:	00a08025 	move	s0,a1
9d00b4b0:	00c02825 	move	a1,a2
9d00b4b4:	0c000000 	jal	90000000 <_bmxdudba_address+0x8fff0000>
9d00b4b8:	02002025 	move	a0,s0
9d00b4bc:	8fbf001c 	lw	ra,28(sp)
9d00b4c0:	02201025 	move	v0,s1
9d00b4c4:	8fb20018 	lw	s2,24(sp)
9d00b4c8:	8fb10014 	lw	s1,20(sp)
9d00b4cc:	8fb00010 	lw	s0,16(sp)
9d00b4d0:	03e00008 	jr	ra
9d00b4d4:	27bd0020 	addiu	sp,sp,32
9d00b4d8:	00a69021 	addu	s2,a1,a2
9d00b4dc:	82040000 	lb	a0,0(s0)
9d00b4e0:	0f4028d7 	jal	9d00a35c <_mon_putc>
9d00b4e4:	26100001 	addiu	s0,s0,1
9d00b4e8:	1650fffc 	bne	s2,s0,9d00b4dc <write+0x6c>
9d00b4ec:	8fbf001c 	lw	ra,28(sp)
9d00b4f0:	1000fff4 	b	9d00b4c4 <write+0x54>
9d00b4f4:	02201025 	move	v0,s1

Disassembly of section .text.__vsnprintf:

9d00b4f8 <__vsnprintf>:
9d00b4f8:	27bdffc8 	addiu	sp,sp,-56
9d00b4fc:	2403ffff 	li	v1,-1
9d00b500:	afa30010 	sw	v1,16(sp)
9d00b504:	24030102 	li	v1,258
9d00b508:	00a01025 	move	v0,a1
9d00b50c:	afbf0034 	sw	ra,52(sp)
9d00b510:	00c02825 	move	a1,a2
9d00b514:	afa30014 	sw	v1,20(sp)
9d00b518:	14800002 	bnez	a0,9d00b524 <__vsnprintf+0x2c>
9d00b51c:	00e03025 	move	a2,a3
9d00b520:	27a4002c 	addiu	a0,sp,44
9d00b524:	afa40018 	sw	a0,24(sp)
9d00b528:	afa2001c 	sw	v0,28(sp)
9d00b52c:	10400002 	beqz	v0,9d00b538 <__vsnprintf+0x40>
9d00b530:	00001825 	move	v1,zero
9d00b534:	2443ffff 	addiu	v1,v0,-1
9d00b538:	04410008 	bgez	v0,9d00b55c <__vsnprintf+0x64>
9d00b53c:	afa30020 	sw	v1,32(sp)
9d00b540:	3c02a000 	lui	v0,0xa000
9d00b544:	2403004f 	li	v1,79
9d00b548:	ac430160 	sw	v1,352(v0)
9d00b54c:	2402ffff 	li	v0,-1
9d00b550:	8fbf0034 	lw	ra,52(sp)
9d00b554:	03e00008 	jr	ra
9d00b558:	27bd0038 	addiu	sp,sp,56
9d00b55c:	afa40028 	sw	a0,40(sp)
9d00b560:	afa40024 	sw	a0,36(sp)
9d00b564:	a0800000 	sb	zero,0(a0)
9d00b568:	0f402fb0 	jal	9d00bec0 <__vfprintf>
9d00b56c:	27a40010 	addiu	a0,sp,16
9d00b570:	1000fff8 	b	9d00b554 <__vsnprintf+0x5c>
9d00b574:	8fbf0034 	lw	ra,52(sp)

Disassembly of section .text:

9d00b578 <__dinit_copy_emb>:
9d00b578:	03e00008 	jr	ra
9d00b57c:	00000000 	nop

9d00b580 <__pic32_data_init>:
9d00b580:	03e01825 	move	v1,ra

9d00b584 <_dinit_init>:
9d00b584:	3c049d01 	lui	a0,0x9d01
9d00b588:	24849d3c 	addiu	a0,a0,-25284
9d00b58c:	10800016 	beqz	a0,9d00b5e8 <_dinit_init+0x64>
9d00b590:	00000000 	nop
9d00b594:	8c850000 	lw	a1,0(a0)
9d00b598:	10a00013 	beqz	a1,9d00b5e8 <_dinit_init+0x64>
9d00b59c:	24840004 	addiu	a0,a0,4
9d00b5a0:	8c860000 	lw	a2,0(a0)
9d00b5a4:	24840004 	addiu	a0,a0,4
9d00b5a8:	848b0000 	lh	t3,0(a0)
9d00b5ac:	24840004 	addiu	a0,a0,4
9d00b5b0:	3c0c9d01 	lui	t4,0x9d01
9d00b5b4:	258cc4f0 	addiu	t4,t4,-15120
9d00b5b8:	000b5880 	sll	t3,t3,0x2
9d00b5bc:	016c6021 	addu	t4,t3,t4
9d00b5c0:	8d8c0000 	lw	t4,0(t4)
9d00b5c4:	0180f809 	jalr	t4
9d00b5c8:	00000000 	nop
9d00b5cc:	00402025 	move	a0,v0
9d00b5d0:	24840003 	addiu	a0,a0,3
9d00b5d4:	2406fffc 	li	a2,-4
9d00b5d8:	00c42024 	and	a0,a2,a0
9d00b5dc:	8c850000 	lw	a1,0(a0)
9d00b5e0:	14a0ffec 	bnez	a1,9d00b594 <_dinit_init+0x10>
9d00b5e4:	00000000 	nop
9d00b5e8:	0060f825 	move	ra,v1
9d00b5ec:	03e00008 	jr	ra
9d00b5f0:	00000000 	nop

Disassembly of section .text.atoi:

9d00b5f4 <atoi>:
9d00b5f4:	24050020 	li	a1,32
9d00b5f8:	80820000 	lb	v0,0(a0)
9d00b5fc:	1045000d 	beq	v0,a1,9d00b634 <atoi+0x40>
9d00b600:	2443fff7 	addiu	v1,v0,-9
9d00b604:	2c630005 	sltiu	v1,v1,5
9d00b608:	1460000a 	bnez	v1,9d00b634 <atoi+0x40>
9d00b60c:	2403002b 	li	v1,43
9d00b610:	1043000a 	beq	v0,v1,9d00b63c <atoi+0x48>
9d00b614:	2403002d 	li	v1,45
9d00b618:	14430003 	bne	v0,v1,9d00b628 <atoi+0x34>
9d00b61c:	00002825 	move	a1,zero
9d00b620:	24050001 	li	a1,1
9d00b624:	24840001 	addiu	a0,a0,1
9d00b628:	00001025 	move	v0,zero
9d00b62c:	10000007 	b	9d00b64c <atoi+0x58>
9d00b630:	2407000a 	li	a3,10
9d00b634:	1000fff0 	b	9d00b5f8 <atoi+0x4>
9d00b638:	24840001 	addiu	a0,a0,1
9d00b63c:	1000fff9 	b	9d00b624 <atoi+0x30>
9d00b640:	00002825 	move	a1,zero
9d00b644:	24840001 	addiu	a0,a0,1
9d00b648:	00431023 	subu	v0,v0,v1
9d00b64c:	80830000 	lb	v1,0(a0)
9d00b650:	2463ffd0 	addiu	v1,v1,-48
9d00b654:	2c66000a 	sltiu	a2,v1,10
9d00b658:	54c0fffa 	bnezl	a2,9d00b644 <atoi+0x50>
9d00b65c:	70471002 	mul	v0,v0,a3
9d00b660:	50a00001 	beqzl	a1,9d00b668 <atoi+0x74>
9d00b664:	00021023 	negu	v0,v0
9d00b668:	03e00008 	jr	ra
9d00b66c:	00000000 	nop

Disassembly of section .text.__readv:

9d00b670 <readv>:
9d00b670:	27bdffd8 	addiu	sp,sp,-40
9d00b674:	afb40020 	sw	s4,32(sp)
9d00b678:	afb3001c 	sw	s3,28(sp)
9d00b67c:	afb20018 	sw	s2,24(sp)
9d00b680:	afb10014 	sw	s1,20(sp)
9d00b684:	afb00010 	sw	s0,16(sp)
9d00b688:	afbf0024 	sw	ra,36(sp)
9d00b68c:	0080a025 	move	s4,a0
9d00b690:	00c09825 	move	s3,a2
9d00b694:	00a08025 	move	s0,a1
9d00b698:	00008825 	move	s1,zero
9d00b69c:	00009025 	move	s2,zero
9d00b6a0:	0253102a 	slt	v0,s2,s3
9d00b6a4:	14400009 	bnez	v0,9d00b6cc <readv+0x5c>
9d00b6a8:	8fbf0024 	lw	ra,36(sp)
9d00b6ac:	02201025 	move	v0,s1
9d00b6b0:	8fb40020 	lw	s4,32(sp)
9d00b6b4:	8fb3001c 	lw	s3,28(sp)
9d00b6b8:	8fb20018 	lw	s2,24(sp)
9d00b6bc:	8fb10014 	lw	s1,20(sp)
9d00b6c0:	8fb00010 	lw	s0,16(sp)
9d00b6c4:	03e00008 	jr	ra
9d00b6c8:	27bd0028 	addiu	sp,sp,40
9d00b6cc:	8e060004 	lw	a2,4(s0)
9d00b6d0:	8e050000 	lw	a1,0(s0)
9d00b6d4:	02802025 	move	a0,s4
9d00b6d8:	0f40288a 	jal	9d00a228 <read>
9d00b6dc:	26520001 	addiu	s2,s2,1
9d00b6e0:	02228821 	addu	s1,s1,v0
9d00b6e4:	1000ffee 	b	9d00b6a0 <readv+0x30>
9d00b6e8:	26100008 	addiu	s0,s0,8

Disassembly of section .text.__scan_d:

9d00b6ec <__scan_d>:
9d00b6ec:	27bdffd8 	addiu	sp,sp,-40
9d00b6f0:	afb10020 	sw	s1,32(sp)
9d00b6f4:	afb0001c 	sw	s0,28(sp)
9d00b6f8:	00a08825 	move	s1,a1
9d00b6fc:	8cd0000c 	lw	s0,12(a2)
9d00b700:	00c02825 	move	a1,a2
9d00b704:	afbf0024 	sw	ra,36(sp)
9d00b708:	0f4027ee 	jal	9d009fb8 <__read_int>
9d00b70c:	00e03025 	move	a2,a3
9d00b710:	2403ffff 	li	v1,-1
9d00b714:	1043000c 	beq	v0,v1,9d00b748 <__scan_d+0x5c>
9d00b718:	02002025 	move	a0,s0
9d00b71c:	2406000a 	li	a2,10
9d00b720:	0f403029 	jal	9d00c0a4 <strtoll>
9d00b724:	27a50010 	addiu	a1,sp,16
9d00b728:	ae220000 	sw	v0,0(s1)
9d00b72c:	8fa20010 	lw	v0,16(sp)
9d00b730:	ae230004 	sw	v1,4(s1)
9d00b734:	2404fffe 	li	a0,-2
9d00b738:	00501026 	xor	v0,v0,s0
9d00b73c:	24030001 	li	v1,1
9d00b740:	0082180a 	movz	v1,a0,v0
9d00b744:	00601025 	move	v0,v1
9d00b748:	8fbf0024 	lw	ra,36(sp)
9d00b74c:	8fb10020 	lw	s1,32(sp)
9d00b750:	8fb0001c 	lw	s0,28(sp)
9d00b754:	03e00008 	jr	ra
9d00b758:	27bd0028 	addiu	sp,sp,40

Disassembly of section .text.__consumews:

9d00b75c <__consumews>:
9d00b75c:	8ca20000 	lw	v0,0(a1)
9d00b760:	24030020 	li	v1,32
9d00b764:	80420000 	lb	v0,0(v0)
9d00b768:	10430004 	beq	v0,v1,9d00b77c <__consumews+0x20>
9d00b76c:	2442fff7 	addiu	v0,v0,-9
9d00b770:	2c430005 	sltiu	v1,v0,5
9d00b774:	10600013 	beqz	v1,9d00b7c4 <__consumews+0x68>
9d00b778:	00001025 	move	v0,zero
9d00b77c:	27bdffe8 	addiu	sp,sp,-24
9d00b780:	afb00010 	sw	s0,16(sp)
9d00b784:	afbf0014 	sw	ra,20(sp)
9d00b788:	0f402bcc 	jal	9d00af30 <__skipws>
9d00b78c:	00a08025 	move	s0,a1
9d00b790:	24040020 	li	a0,32
9d00b794:	8e030000 	lw	v1,0(s0)
9d00b798:	24650001 	addiu	a1,v1,1
9d00b79c:	ae050000 	sw	a1,0(s0)
9d00b7a0:	80630001 	lb	v1,1(v1)
9d00b7a4:	1064fffb 	beq	v1,a0,9d00b794 <__consumews+0x38>
9d00b7a8:	2463fff7 	addiu	v1,v1,-9
9d00b7ac:	2c630005 	sltiu	v1,v1,5
9d00b7b0:	1460fff8 	bnez	v1,9d00b794 <__consumews+0x38>
9d00b7b4:	8fbf0014 	lw	ra,20(sp)
9d00b7b8:	8fb00010 	lw	s0,16(sp)
9d00b7bc:	03e00008 	jr	ra
9d00b7c0:	27bd0018 	addiu	sp,sp,24
9d00b7c4:	03e00008 	jr	ra
9d00b7c8:	00000000 	nop

Disassembly of section .text.__putc:

9d00b7cc <__putc>:
9d00b7cc:	8ca20004 	lw	v0,4(a1)
9d00b7d0:	27bdffe8 	addiu	sp,sp,-24
9d00b7d4:	30420020 	andi	v0,v0,0x20
9d00b7d8:	14400006 	bnez	v0,9d00b7f4 <__putc+0x28>
9d00b7dc:	afbf0014 	sw	ra,20(sp)
9d00b7e0:	0f402e5e 	jal	9d00b978 <__putc_unbuffered>
9d00b7e4:	00000000 	nop
9d00b7e8:	8fbf0014 	lw	ra,20(sp)
9d00b7ec:	03e00008 	jr	ra
9d00b7f0:	27bd0018 	addiu	sp,sp,24
9d00b7f4:	00803025 	move	a2,a0
9d00b7f8:	308200ff 	andi	v0,a0,0xff
9d00b7fc:	80a40034 	lb	a0,52(a1)
9d00b800:	10820009 	beq	a0,v0,9d00b828 <__putc+0x5c>
9d00b804:	00a01825 	move	v1,a1
9d00b808:	8ca40014 	lw	a0,20(a1)
9d00b80c:	8ca50028 	lw	a1,40(a1)
9d00b810:	0085282b 	sltu	a1,a0,a1
9d00b814:	10a00004 	beqz	a1,9d00b828 <__putc+0x5c>
9d00b818:	24850001 	addiu	a1,a0,1
9d00b81c:	ac650014 	sw	a1,20(v1)
9d00b820:	1000fff1 	b	9d00b7e8 <__putc+0x1c>
9d00b824:	a0860000 	sb	a2,0(a0)
9d00b828:	00c02825 	move	a1,a2
9d00b82c:	0f402c8e 	jal	9d00b238 <__overflow>
9d00b830:	00602025 	move	a0,v1
9d00b834:	1000ffed 	b	9d00b7ec <__putc+0x20>
9d00b838:	8fbf0014 	lw	ra,20(sp)

Disassembly of section .text.__simple_free:

9d00b83c <__simple_free>:
9d00b83c:	10800017 	beqz	a0,9d00b89c <__simple_free+0x60>
9d00b840:	3c07a000 	lui	a3,0xa000
9d00b844:	8ce20164 	lw	v0,356(a3)
9d00b848:	2486fff0 	addiu	a2,a0,-16
9d00b84c:	10400015 	beqz	v0,9d00b8a4 <__simple_free+0x68>
9d00b850:	00e04025 	move	t0,a3
9d00b854:	8c83fff0 	lw	v1,-16(a0)
9d00b858:	8c450000 	lw	a1,0(v0)
9d00b85c:	00834821 	addu	t1,a0,v1
9d00b860:	14490007 	bne	v0,t1,9d00b880 <__simple_free+0x44>
9d00b864:	24a50010 	addiu	a1,a1,16
9d00b868:	8c420010 	lw	v0,16(v0)
9d00b86c:	00651821 	addu	v1,v1,a1
9d00b870:	ac83fff0 	sw	v1,-16(a0)
9d00b874:	ac820000 	sw	v0,0(a0)
9d00b878:	03e00008 	jr	ra
9d00b87c:	ace60164 	sw	a2,356(a3)
9d00b880:	00453821 	addu	a3,v0,a1
9d00b884:	14c70003 	bne	a2,a3,9d00b894 <__simple_free+0x58>
9d00b888:	00651821 	addu	v1,v1,a1
9d00b88c:	03e00008 	jr	ra
9d00b890:	ac430000 	sw	v1,0(v0)
9d00b894:	ac820000 	sw	v0,0(a0)
9d00b898:	ad060164 	sw	a2,356(t0)
9d00b89c:	03e00008 	jr	ra
9d00b8a0:	00000000 	nop
9d00b8a4:	1000fffc 	b	9d00b898 <__simple_free+0x5c>
9d00b8a8:	ac800000 	sw	zero,0(a0)

Disassembly of section .text.__vsscanf:

9d00b8ac <__vsscanf>:
9d00b8ac:	27bdff80 	addiu	sp,sp,-128
9d00b8b0:	afb20078 	sw	s2,120(sp)
9d00b8b4:	afb10074 	sw	s1,116(sp)
9d00b8b8:	afb00070 	sw	s0,112(sp)
9d00b8bc:	00a08825 	move	s1,a1
9d00b8c0:	00808025 	move	s0,a0
9d00b8c4:	00c09025 	move	s2,a2
9d00b8c8:	27a40010 	addiu	a0,sp,16
9d00b8cc:	24060060 	li	a2,96
9d00b8d0:	afbf007c 	sw	ra,124(sp)
9d00b8d4:	0f40309f 	jal	9d00c27c <memset>
9d00b8d8:	00002825 	move	a1,zero
9d00b8dc:	3c029d01 	lui	v0,0x9d01
9d00b8e0:	2442c400 	addiu	v0,v0,-15360
9d00b8e4:	02403025 	move	a2,s2
9d00b8e8:	02202825 	move	a1,s1
9d00b8ec:	27a40010 	addiu	a0,sp,16
9d00b8f0:	afb00018 	sw	s0,24(sp)
9d00b8f4:	afb00048 	sw	s0,72(sp)
9d00b8f8:	0f402fa1 	jal	9d00be84 <__vfscanf>
9d00b8fc:	afa20054 	sw	v0,84(sp)
9d00b900:	8fbf007c 	lw	ra,124(sp)
9d00b904:	8fb20078 	lw	s2,120(sp)
9d00b908:	8fb10074 	lw	s1,116(sp)
9d00b90c:	8fb00070 	lw	s0,112(sp)
9d00b910:	03e00008 	jr	ra
9d00b914:	27bd0080 	addiu	sp,sp,128

Disassembly of section .text.__string_out:

9d00b918 <__string_out>:
9d00b918:	8c820010 	lw	v0,16(a0)
9d00b91c:	27bdffe0 	addiu	sp,sp,-32
9d00b920:	afb10018 	sw	s1,24(sp)
9d00b924:	00c2882b 	sltu	s1,a2,v0
9d00b928:	0051300a 	movz	a2,v0,s1
9d00b92c:	afbf001c 	sw	ra,28(sp)
9d00b930:	10c0000c 	beqz	a2,9d00b964 <__string_out+0x4c>
9d00b934:	afb00014 	sw	s0,20(sp)
9d00b938:	00808025 	move	s0,a0
9d00b93c:	8c840014 	lw	a0,20(a0)
9d00b940:	0f40306b 	jal	9d00c1ac <memcpy>
9d00b944:	00c08825 	move	s1,a2
9d00b948:	8e020014 	lw	v0,20(s0)
9d00b94c:	8e060010 	lw	a2,16(s0)
9d00b950:	00511021 	addu	v0,v0,s1
9d00b954:	00d18823 	subu	s1,a2,s1
9d00b958:	ae020014 	sw	v0,20(s0)
9d00b95c:	ae110010 	sw	s1,16(s0)
9d00b960:	a0400000 	sb	zero,0(v0)
9d00b964:	8fbf001c 	lw	ra,28(sp)
9d00b968:	8fb10018 	lw	s1,24(sp)
9d00b96c:	8fb00014 	lw	s0,20(sp)
9d00b970:	03e00008 	jr	ra
9d00b974:	27bd0020 	addiu	sp,sp,32

Disassembly of section .text.__putc_unbuffered:

9d00b978 <__putc_unbuffered>:
9d00b978:	8ca20004 	lw	v0,4(a1)
9d00b97c:	27bdffe0 	addiu	sp,sp,-32
9d00b980:	308300ff 	andi	v1,a0,0xff
9d00b984:	30420100 	andi	v0,v0,0x100
9d00b988:	afbf001c 	sw	ra,28(sp)
9d00b98c:	1040000a 	beqz	v0,9d00b9b8 <__putc_unbuffered+0x40>
9d00b990:	a3a30010 	sb	v1,16(sp)
9d00b994:	8ca20014 	lw	v0,20(a1)
9d00b998:	308400ff 	andi	a0,a0,0xff
9d00b99c:	24460001 	addiu	a2,v0,1
9d00b9a0:	aca60014 	sw	a2,20(a1)
9d00b9a4:	a0430000 	sb	v1,0(v0)
9d00b9a8:	8fbf001c 	lw	ra,28(sp)
9d00b9ac:	00801025 	move	v0,a0
9d00b9b0:	03e00008 	jr	ra
9d00b9b4:	27bd0020 	addiu	sp,sp,32
9d00b9b8:	00a02025 	move	a0,a1
9d00b9bc:	24060001 	li	a2,1
9d00b9c0:	0f402ffa 	jal	9d00bfe8 <__fwrite>
9d00b9c4:	27a50010 	addiu	a1,sp,16
9d00b9c8:	1040fff7 	beqz	v0,9d00b9a8 <__putc_unbuffered+0x30>
9d00b9cc:	2404ffff 	li	a0,-1
9d00b9d0:	1000fff5 	b	9d00b9a8 <__putc_unbuffered+0x30>
9d00b9d4:	93a40010 	lbu	a0,16(sp)

Disassembly of section .text.__fopen_std:

9d00b9d8 <__fopen_std>:
9d00b9d8:	27bdffe8 	addiu	sp,sp,-24
9d00b9dc:	afb00010 	sw	s0,16(sp)
9d00b9e0:	afbf0014 	sw	ra,20(sp)
9d00b9e4:	0f402b76 	jal	9d00add8 <__simple_malloc>
9d00b9e8:	24040038 	li	a0,56
9d00b9ec:	1040000d 	beqz	v0,9d00ba24 <__fopen_std+0x4c>
9d00b9f0:	00408025 	move	s0,v0
9d00b9f4:	24060038 	li	a2,56
9d00b9f8:	00002825 	move	a1,zero
9d00b9fc:	0f40309f 	jal	9d00c27c <memset>
9d00ba00:	00402025 	move	a0,v0
9d00ba04:	3c029d01 	lui	v0,0x9d01
9d00ba08:	2442c314 	addiu	v0,v0,-15596
9d00ba0c:	ae02002c 	sw	v0,44(s0)
9d00ba10:	3c029d01 	lui	v0,0x9d01
9d00ba14:	2442b1a4 	addiu	v0,v0,-20060
9d00ba18:	ae020030 	sw	v0,48(s0)
9d00ba1c:	2402ffff 	li	v0,-1
9d00ba20:	a2020034 	sb	v0,52(s0)
9d00ba24:	8fbf0014 	lw	ra,20(sp)
9d00ba28:	02001025 	move	v0,s0
9d00ba2c:	8fb00010 	lw	s0,16(sp)
9d00ba30:	03e00008 	jr	ra
9d00ba34:	27bd0018 	addiu	sp,sp,24

Disassembly of section .text.__fmt_state:

9d00ba38 <__fmt_state>:
9d00ba38:	3c069d01 	lui	a2,0x9d01
9d00ba3c:	00001025 	move	v0,zero
9d00ba40:	24c6c4c0 	addiu	a2,a2,-15168
9d00ba44:	00021840 	sll	v1,v0,0x1
9d00ba48:	00661821 	addu	v1,v1,a2
9d00ba4c:	80670000 	lb	a3,0(v1)
9d00ba50:	54e00003 	bnezl	a3,9d00ba60 <__fmt_state+0x28>
9d00ba54:	8c850000 	lw	a1,0(a0)
9d00ba58:	03e00008 	jr	ra
9d00ba5c:	90620001 	lbu	v0,1(v1)
9d00ba60:	24420001 	addiu	v0,v0,1
9d00ba64:	80a80000 	lb	t0,0(a1)
9d00ba68:	15070004 	bne	t0,a3,9d00ba7c <__fmt_state+0x44>
9d00ba6c:	304200ff 	andi	v0,v0,0xff
9d00ba70:	90620001 	lbu	v0,1(v1)
9d00ba74:	24a50001 	addiu	a1,a1,1
9d00ba78:	ac850000 	sw	a1,0(a0)
9d00ba7c:	2c43000b 	sltiu	v1,v0,11
9d00ba80:	1460fff1 	bnez	v1,9d00ba48 <__fmt_state+0x10>
9d00ba84:	00021840 	sll	v1,v0,0x1
9d00ba88:	03e00008 	jr	ra
9d00ba8c:	00000000 	nop

Disassembly of section .text.main_entry:

9d00ba90 <_main_entry>:
9d00ba90:	3c040000 	lui	a0,0x0
9d00ba94:	27bdffe8 	addiu	sp,sp,-24
9d00ba98:	24840000 	addiu	a0,a0,0
9d00ba9c:	10800003 	beqz	a0,9d00baac <_main_entry+0x1c>
9d00baa0:	afbf0014 	sw	ra,20(sp)
9d00baa4:	0080f809 	jalr	a0
9d00baa8:	00000000 	nop
9d00baac:	30840000 	andi	a0,a0,0x0
9d00bab0:	30a50000 	andi	a1,a1,0x0
9d00bab4:	3c089d01 	lui	t0,0x9d01
9d00bab8:	2508a0f4 	addiu	t0,t0,-24332
9d00babc:	0100f809 	jalr	t0
9d00bac0:	00000000 	nop

9d00bac4 <__crt0_exit>:
9d00bac4:	3c020000 24420000 10400003 00000000     ...<..B$..@.....
9d00bad4:	0040f809 00000000 1000fff9 00000000     ..@.............

Disassembly of section .text.__uflow:

9d00bae4 <__uflow>:
9d00bae4:	27bdffe0 	addiu	sp,sp,-32
9d00bae8:	afb00018 	sw	s0,24(sp)
9d00baec:	afbf001c 	sw	ra,28(sp)
9d00baf0:	0f402c44 	jal	9d00b110 <__toread>
9d00baf4:	00808025 	move	s0,a0
9d00baf8:	50400006 	beqzl	v0,9d00bb14 <__uflow+0x30>
9d00bafc:	8e020044 	lw	v0,68(s0)
9d00bb00:	2402ffff 	li	v0,-1
9d00bb04:	8fbf001c 	lw	ra,28(sp)
9d00bb08:	8fb00018 	lw	s0,24(sp)
9d00bb0c:	03e00008 	jr	ra
9d00bb10:	27bd0020 	addiu	sp,sp,32
9d00bb14:	24060001 	li	a2,1
9d00bb18:	27a50010 	addiu	a1,sp,16
9d00bb1c:	0040f809 	jalr	v0
9d00bb20:	02002025 	move	a0,s0
9d00bb24:	24030001 	li	v1,1
9d00bb28:	1443fff5 	bne	v0,v1,9d00bb00 <__uflow+0x1c>
9d00bb2c:	93a20010 	lbu	v0,16(sp)
9d00bb30:	1000fff5 	b	9d00bb08 <__uflow+0x24>
9d00bb34:	8fbf001c 	lw	ra,28(sp)

Disassembly of section .text.__pop_float:

9d00bb38 <__pop_float>:
9d00bb38:	28a30080 	slti	v1,a1,128
9d00bb3c:	14600010 	bnez	v1,9d00bb80 <__pop_float+0x48>
9d00bb40:	00001025 	move	v0,zero
9d00bb44:	28a30082 	slti	v1,a1,130
9d00bb48:	14600003 	bnez	v1,9d00bb58 <__pop_float+0x20>
9d00bb4c:	24030083 	li	v1,131
9d00bb50:	14a3000b 	bne	a1,v1,9d00bb80 <__pop_float+0x48>
9d00bb54:	00000000 	nop
9d00bb58:	8cc20000 	lw	v0,0(a2)
9d00bb5c:	24420007 	addiu	v0,v0,7
9d00bb60:	7c021004 	ins	v0,zero,0x0,0x3
9d00bb64:	24430008 	addiu	v1,v0,8
9d00bb68:	acc30000 	sw	v1,0(a2)
9d00bb6c:	8c430004 	lw	v1,4(v0)
9d00bb70:	8c420000 	lw	v0,0(v0)
9d00bb74:	ac830004 	sw	v1,4(a0)
9d00bb78:	ac820000 	sw	v0,0(a0)
9d00bb7c:	24020001 	li	v0,1
9d00bb80:	03e00008 	jr	ra
9d00bb84:	00000000 	nop

Disassembly of section .text.__stdio_exit:

9d00bb88 <__stdio_exit>:
9d00bb88:	27bdffe8 	addiu	sp,sp,-24
9d00bb8c:	afbf0014 	sw	ra,20(sp)
9d00bb90:	0f403157 	jal	9d00c55c <__stdio_exit_ofl>
9d00bb94:	00000000 	nop
9d00bb98:	3c02a000 	lui	v0,0xa000
9d00bb9c:	8c44015c 	lw	a0,348(v0)
9d00bba0:	0f402fec 	jal	9d00bfb0 <__fclose>
9d00bba4:	00002825 	move	a1,zero
9d00bba8:	3c02a000 	lui	v0,0xa000
9d00bbac:	8c44015c 	lw	a0,348(v0)
9d00bbb0:	0f402fec 	jal	9d00bfb0 <__fclose>
9d00bbb4:	00002825 	move	a1,zero
9d00bbb8:	3c02a000 	lui	v0,0xa000
9d00bbbc:	8c44015c 	lw	a0,348(v0)
9d00bbc0:	0f402fec 	jal	9d00bfb0 <__fclose>
9d00bbc4:	00002825 	move	a1,zero
9d00bbc8:	8fbf0014 	lw	ra,20(sp)
9d00bbcc:	03e00008 	jr	ra
9d00bbd0:	27bd0018 	addiu	sp,sp,24

Disassembly of section .text._bootstrap_exception_handler:

9d00bbd4 <_bootstrap_exception_handler>:
9d00bbd4:	3c020000 	lui	v0,0x0
9d00bbd8:	24420000 	addiu	v0,v0,0
9d00bbdc:	10400005 	beqz	v0,9d00bbf4 <_bootstrap_exception_handler+0x20>
9d00bbe0:	3c020000 	lui	v0,0x0
9d00bbe4:	24420000 	addiu	v0,v0,0
9d00bbe8:	10400003 	beqz	v0,9d00bbf8 <_bootstrap_exception_handler+0x24>
9d00bbec:	3c029d01 	lui	v0,0x9d01
9d00bbf0:	7000003f 	sdbbp
9d00bbf4:	3c029d01 	lui	v0,0x9d01
9d00bbf8:	2442bd3c 	addiu	v0,v0,-17092
9d00bbfc:	10400005 	beqz	v0,9d00bc14 <_bootstrap_exception_handler+0x40>
9d00bc00:	00000000 	nop
9d00bc04:	27bdffe8 	addiu	sp,sp,-24
9d00bc08:	afbf0014 	sw	ra,20(sp)
9d00bc0c:	0040f809 	jalr	v0
9d00bc10:	00000000 	nop
9d00bc14:	1000ffff 	b	9d00bc14 <_bootstrap_exception_handler+0x40>
9d00bc18:	00000000 	nop

Disassembly of section .text._general_exception_handler:

9d00bc1c <_general_exception_handler>:
9d00bc1c:	3c020000 	lui	v0,0x0
9d00bc20:	24420000 	addiu	v0,v0,0
9d00bc24:	10400005 	beqz	v0,9d00bc3c <_general_exception_handler+0x20>
9d00bc28:	3c020000 	lui	v0,0x0
9d00bc2c:	24420000 	addiu	v0,v0,0
9d00bc30:	10400003 	beqz	v0,9d00bc40 <_general_exception_handler+0x24>
9d00bc34:	3c029d01 	lui	v0,0x9d01
9d00bc38:	7000003f 	sdbbp
9d00bc3c:	3c029d01 	lui	v0,0x9d01
9d00bc40:	2442bd3c 	addiu	v0,v0,-17092
9d00bc44:	10400005 	beqz	v0,9d00bc5c <_general_exception_handler+0x40>
9d00bc48:	00000000 	nop
9d00bc4c:	27bdffe8 	addiu	sp,sp,-24
9d00bc50:	afbf0014 	sw	ra,20(sp)
9d00bc54:	0040f809 	jalr	v0
9d00bc58:	00000000 	nop
9d00bc5c:	1000ffff 	b	9d00bc5c <_general_exception_handler+0x40>
9d00bc60:	00000000 	nop

Disassembly of section .vector_default:

9d00bc64 <_DefaultInterrupt>:
9d00bc64:	3c020000 	lui	v0,0x0
9d00bc68:	24420000 	addiu	v0,v0,0
9d00bc6c:	10400007 	beqz	v0,9d00bc8c <_DefaultInterrupt+0x28>
9d00bc70:	3c020000 	lui	v0,0x0
9d00bc74:	24420000 	addiu	v0,v0,0
9d00bc78:	50400005 	beqzl	v0,9d00bc90 <_DefaultInterrupt+0x2c>
9d00bc7c:	3c029d01 	lui	v0,0x9d01
9d00bc80:	7000003f 	sdbbp
9d00bc84:	03e00008 	jr	ra
9d00bc88:	00000000 	nop
9d00bc8c:	3c029d01 	lui	v0,0x9d01
9d00bc90:	2442bd3c 	addiu	v0,v0,-17092
9d00bc94:	10400003 	beqz	v0,9d00bca4 <_DefaultInterrupt+0x40>
9d00bc98:	00000000 	nop
9d00bc9c:	0040f809 	jalr	v0
9d00bca0:	00000000 	nop
9d00bca4:	03e00008 	jr	ra
9d00bca8:	00000000 	nop

Disassembly of section .text.__ftello_adj_rw:

9d00bcac <__ftello_adj_rw>:
9d00bcac:	8c820004 	lw	v0,4(a0)
9d00bcb0:	30460002 	andi	a2,v0,0x2
9d00bcb4:	14c00004 	bnez	a2,9d00bcc8 <__ftello_adj_rw+0x1c>
9d00bcb8:	00001825 	move	v1,zero
9d00bcbc:	8c830040 	lw	v1,64(a0)
9d00bcc0:	8c86003c 	lw	a2,60(a0)
9d00bcc4:	00661823 	subu	v1,v1,a2
9d00bcc8:	8c870014 	lw	a3,20(a0)
9d00bccc:	8c860018 	lw	a2,24(a0)
9d00bcd0:	00e62023 	subu	a0,a3,a2
9d00bcd4:	00831821 	addu	v1,a0,v1
9d00bcd8:	aca30000 	sw	v1,0(a1)
9d00bcdc:	30430040 	andi	v1,v0,0x40
9d00bce0:	10600002 	beqz	v1,9d00bcec <__ftello_adj_rw+0x40>
9d00bce4:	00001025 	move	v0,zero
9d00bce8:	00c7102b 	sltu	v0,a2,a3
9d00bcec:	03e00008 	jr	ra
9d00bcf0:	00000000 	nop

Disassembly of section .text.__stdio_seek_unbuffered:

9d00bcf4 <__stdio_seek_unbuffered>:
9d00bcf4:	27bdffe8 	addiu	sp,sp,-24
9d00bcf8:	afb00010 	sw	s0,16(sp)
9d00bcfc:	00808025 	move	s0,a0
9d00bd00:	8c840000 	lw	a0,0(a0)
9d00bd04:	afbf0014 	sw	ra,20(sp)
9d00bd08:	0f403163 	jal	9d00c58c <lseek>
9d00bd0c:	00000000 	nop
9d00bd10:	04400005 	bltz	v0,9d00bd28 <__stdio_seek_unbuffered+0x34>
9d00bd14:	2403ffff 	li	v1,-1
9d00bd18:	8e020004 	lw	v0,4(s0)
9d00bd1c:	00001825 	move	v1,zero
9d00bd20:	7c0218c4 	ins	v0,zero,0x3,0x1
9d00bd24:	ae020004 	sw	v0,4(s0)
9d00bd28:	8fbf0014 	lw	ra,20(sp)
9d00bd2c:	00601025 	move	v0,v1
9d00bd30:	8fb00010 	lw	s0,16(sp)
9d00bd34:	03e00008 	jr	ra
9d00bd38:	27bd0018 	addiu	sp,sp,24

Disassembly of section .text:

9d00bd3c <__pic32_software_reset>:
9d00bd3c:	41606000 	di
9d00bd40:	000000c0 	ehb
9d00bd44:	3c03aa99 	lui	v1,0xaa99
9d00bd48:	3c02bf81 	lui	v0,0xbf81
9d00bd4c:	24636655 	addiu	v1,v1,26197
9d00bd50:	ac40f230 	sw	zero,-3536(v0)
9d00bd54:	ac43f230 	sw	v1,-3536(v0)
9d00bd58:	3c035566 	lui	v1,0x5566
9d00bd5c:	346399aa 	ori	v1,v1,0x99aa
9d00bd60:	ac43f230 	sw	v1,-3536(v0)
9d00bd64:	3c02bf81 	lui	v0,0xbf81
9d00bd68:	24030001 	li	v1,1
9d00bd6c:	ac43f618 	sw	v1,-2536(v0)
9d00bd70:	3c02bf81 	lui	v0,0xbf81
9d00bd74:	8c42f610 	lw	v0,-2544(v0)
9d00bd78:	0b402f51 	j	9d00bd44 <__pic32_software_reset+0x8>
9d00bd7c:	00000000 	nop

Disassembly of section .text.__towrite:

9d00bd80 <__towrite>:
9d00bd80:	27bdffe8 	addiu	sp,sp,-24
9d00bd84:	afb00010 	sw	s0,16(sp)
9d00bd88:	afbf0014 	sw	ra,20(sp)
9d00bd8c:	0f402f92 	jal	9d00be48 <__towrite_rw>
9d00bd90:	00808025 	move	s0,a0
9d00bd94:	14400008 	bnez	v0,9d00bdb8 <__towrite+0x38>
9d00bd98:	8fbf0014 	lw	ra,20(sp)
9d00bd9c:	8e030008 	lw	v1,8(s0)
9d00bda0:	8e04000c 	lw	a0,12(s0)
9d00bda4:	ae030018 	sw	v1,24(s0)
9d00bda8:	ae030014 	sw	v1,20(s0)
9d00bdac:	00641821 	addu	v1,v1,a0
9d00bdb0:	ae030028 	sw	v1,40(s0)
9d00bdb4:	8fbf0014 	lw	ra,20(sp)
9d00bdb8:	8fb00010 	lw	s0,16(sp)
9d00bdbc:	03e00008 	jr	ra
9d00bdc0:	27bd0018 	addiu	sp,sp,24

Disassembly of section .text._get_heap_left_space:

9d00bdc4 <_get_heap_left_space>:
9d00bdc4:	3c02a000 	lui	v0,0xa000
9d00bdc8:	8c430150 	lw	v1,336(v0)
9d00bdcc:	27bdffe8 	addiu	sp,sp,-24
9d00bdd0:	afb00010 	sw	s0,16(sp)
9d00bdd4:	afbf0014 	sw	ra,20(sp)
9d00bdd8:	14600003 	bnez	v1,9d00bde8 <_get_heap_left_space+0x24>
9d00bddc:	00408025 	move	s0,v0
9d00bde0:	0f4026a6 	jal	9d009a98 <_sbrk_init>
9d00bde4:	00000000 	nop
9d00bde8:	3c02a000 	lui	v0,0xa000
9d00bdec:	8c430154 	lw	v1,340(v0)
9d00bdf0:	8fbf0014 	lw	ra,20(sp)
9d00bdf4:	8e020150 	lw	v0,336(s0)
9d00bdf8:	8fb00010 	lw	s0,16(sp)
9d00bdfc:	27bd0018 	addiu	sp,sp,24
9d00be00:	03e00008 	jr	ra
9d00be04:	00621023 	subu	v0,v1,v0

Disassembly of section .text.memchr:

9d00be08 <memchr>:
9d00be08:	10c0000b 	beqz	a2,9d00be38 <memchr+0x30>
9d00be0c:	30a500ff 	andi	a1,a1,0xff
9d00be10:	90820000 	lbu	v0,0(a0)
9d00be14:	1045000a 	beq	v0,a1,9d00be40 <memchr+0x38>
9d00be18:	00863021 	addu	a2,a0,a2
9d00be1c:	10000004 	b	9d00be30 <memchr+0x28>
9d00be20:	24840001 	addiu	a0,a0,1
9d00be24:	10450006 	beq	v0,a1,9d00be40 <memchr+0x38>
9d00be28:	00000000 	nop
9d00be2c:	24840001 	addiu	a0,a0,1
9d00be30:	54c4fffc 	bnel	a2,a0,9d00be24 <memchr+0x1c>
9d00be34:	90820000 	lbu	v0,0(a0)
9d00be38:	03e00008 	jr	ra
9d00be3c:	00001025 	move	v0,zero
9d00be40:	03e00008 	jr	ra
9d00be44:	00801025 	move	v0,a0

Disassembly of section .text.__towrite_rw:

9d00be48 <__towrite_rw>:
9d00be48:	80820048 	lb	v0,72(a0)
9d00be4c:	2443ffff 	addiu	v1,v0,-1
9d00be50:	00431025 	or	v0,v0,v1
9d00be54:	a0820048 	sb	v0,72(a0)
9d00be58:	8c820004 	lw	v0,4(a0)
9d00be5c:	30430004 	andi	v1,v0,0x4
9d00be60:	50600005 	beqzl	v1,9d00be78 <__towrite_rw+0x30>
9d00be64:	ac800040 	sw	zero,64(a0)
9d00be68:	34420010 	ori	v0,v0,0x10
9d00be6c:	ac820004 	sw	v0,4(a0)
9d00be70:	03e00008 	jr	ra
9d00be74:	2402ffff 	li	v0,-1
9d00be78:	ac80003c 	sw	zero,60(a0)
9d00be7c:	03e00008 	jr	ra
9d00be80:	00001025 	move	v0,zero

Disassembly of section .text.__vfscanf:

9d00be84 <__vfscanf>:
9d00be84:	27bdffe0 	addiu	sp,sp,-32
9d00be88:	afb00018 	sw	s0,24(sp)
9d00be8c:	afa60010 	sw	a2,16(sp)
9d00be90:	00808025 	move	s0,a0
9d00be94:	afbf001c 	sw	ra,28(sp)
9d00be98:	0f401d32 	jal	9d0074c8 <__scanf_core>
9d00be9c:	27a60010 	addiu	a2,sp,16
9d00bea0:	8e030004 	lw	v1,4(s0)
9d00bea4:	8fbf001c 	lw	ra,28(sp)
9d00bea8:	2404ffff 	li	a0,-1
9d00beac:	30630010 	andi	v1,v1,0x10
9d00beb0:	0083100b 	movn	v0,a0,v1
9d00beb4:	8fb00018 	lw	s0,24(sp)
9d00beb8:	03e00008 	jr	ra
9d00bebc:	27bd0020 	addiu	sp,sp,32

Disassembly of section .text.__vfprintf:

9d00bec0 <__vfprintf>:
9d00bec0:	27bdffe0 	addiu	sp,sp,-32
9d00bec4:	afb00018 	sw	s0,24(sp)
9d00bec8:	afa60010 	sw	a2,16(sp)
9d00becc:	00808025 	move	s0,a0
9d00bed0:	afbf001c 	sw	ra,28(sp)
9d00bed4:	0f4020c8 	jal	9d008320 <__printf_core>
9d00bed8:	27a60010 	addiu	a2,sp,16
9d00bedc:	8e030004 	lw	v1,4(s0)
9d00bee0:	8fbf001c 	lw	ra,28(sp)
9d00bee4:	2404ffff 	li	a0,-1
9d00bee8:	30630010 	andi	v1,v1,0x10
9d00beec:	0083100b 	movn	v0,a0,v1
9d00bef0:	8fb00018 	lw	s0,24(sp)
9d00bef4:	03e00008 	jr	ra
9d00bef8:	27bd0020 	addiu	sp,sp,32

Disassembly of section .text.__expand_heap:

9d00befc <__expand_heap>:
9d00befc:	8c840000 	lw	a0,0(a0)
9d00bf00:	04810003 	bgez	a0,9d00bf10 <__expand_heap+0x14>
9d00bf04:	00001025 	move	v0,zero
9d00bf08:	03e00008 	jr	ra
9d00bf0c:	00000000 	nop
9d00bf10:	27bdffe8 	addiu	sp,sp,-24
9d00bf14:	afbf0014 	sw	ra,20(sp)
9d00bf18:	0f402cd7 	jal	9d00b35c <_sbrk>
9d00bf1c:	00000000 	nop
9d00bf20:	2403ffff 	li	v1,-1
9d00bf24:	50430001 	beql	v0,v1,9d00bf2c <__expand_heap+0x30>
9d00bf28:	00001025 	move	v0,zero
9d00bf2c:	8fbf0014 	lw	ra,20(sp)
9d00bf30:	03e00008 	jr	ra
9d00bf34:	27bd0018 	addiu	sp,sp,24

Disassembly of section .text:

9d00bf38 <__lshrdi3>:
9d00bf38:	10c00008 	beqz	a2,9d00bf5c <__lshrdi3+0x24>
9d00bf3c:	00801025 	move	v0,a0
9d00bf40:	24030020 	li	v1,32
9d00bf44:	00661823 	subu	v1,v1,a2
9d00bf48:	1c600006 	bgtz	v1,9d00bf64 <__lshrdi3+0x2c>
9d00bf4c:	00c52006 	srlv	a0,a1,a2
9d00bf50:	00002025 	move	a0,zero
9d00bf54:	00c51006 	srlv	v0,a1,a2
9d00bf58:	00802825 	move	a1,a0
9d00bf5c:	03e00008 	jr	ra
9d00bf60:	00a01825 	move	v1,a1
9d00bf64:	00c21006 	srlv	v0,v0,a2
9d00bf68:	00652804 	sllv	a1,a1,v1
9d00bf6c:	1000fffa 	b	9d00bf58 <__lshrdi3+0x20>
9d00bf70:	00451025 	or	v0,v0,a1

9d00bf74 <__ashldi3>:
9d00bf74:	10c00008 	beqz	a2,9d00bf98 <__ashldi3+0x24>
9d00bf78:	00801025 	move	v0,a0
9d00bf7c:	24040020 	li	a0,32
9d00bf80:	00862023 	subu	a0,a0,a2
9d00bf84:	5c800006 	bgtzl	a0,9d00bfa0 <__ashldi3+0x2c>
9d00bf88:	00c21804 	sllv	v1,v0,a2
9d00bf8c:	00001825 	move	v1,zero
9d00bf90:	00c22804 	sllv	a1,v0,a2
9d00bf94:	00601025 	move	v0,v1
9d00bf98:	03e00008 	jr	ra
9d00bf9c:	00a01825 	move	v1,a1
9d00bfa0:	00c52804 	sllv	a1,a1,a2
9d00bfa4:	00821006 	srlv	v0,v0,a0
9d00bfa8:	1000fffa 	b	9d00bf94 <__ashldi3+0x20>
9d00bfac:	00a22825 	or	a1,a1,v0

Disassembly of section .text.__fclose:

9d00bfb0 <__fclose>:
9d00bfb0:	1080000b 	beqz	a0,9d00bfe0 <__fclose+0x30>
9d00bfb4:	00001025 	move	v0,zero
9d00bfb8:	8c83001c 	lw	v1,28(a0)
9d00bfbc:	10600008 	beqz	v1,9d00bfe0 <__fclose+0x30>
9d00bfc0:	00000000 	nop
9d00bfc4:	27bdffe8 	addiu	sp,sp,-24
9d00bfc8:	afbf0014 	sw	ra,20(sp)
9d00bfcc:	0060f809 	jalr	v1
9d00bfd0:	00000000 	nop
9d00bfd4:	8fbf0014 	lw	ra,20(sp)
9d00bfd8:	03e00008 	jr	ra
9d00bfdc:	27bd0018 	addiu	sp,sp,24
9d00bfe0:	03e00008 	jr	ra
9d00bfe4:	00000000 	nop

Disassembly of section .text.__fwrite:

9d00bfe8 <__fwrite>:
9d00bfe8:	8c83002c 	lw	v1,44(a0)
9d00bfec:	27bdffe8 	addiu	sp,sp,-24
9d00bff0:	10600006 	beqz	v1,9d00c00c <__fwrite+0x24>
9d00bff4:	afbf0014 	sw	ra,20(sp)
9d00bff8:	0060f809 	jalr	v1
9d00bffc:	00000000 	nop
9d00c000:	8fbf0014 	lw	ra,20(sp)
9d00c004:	03e00008 	jr	ra
9d00c008:	27bd0018 	addiu	sp,sp,24
9d00c00c:	0f402d1c 	jal	9d00b470 <write>
9d00c010:	8c840000 	lw	a0,0(a0)
9d00c014:	1000fffb 	b	9d00c004 <__fwrite+0x1c>
9d00c018:	8fbf0014 	lw	ra,20(sp)

Disassembly of section .text.strlen:

9d00c01c <strlen>:
9d00c01c:	80820000 	lb	v0,0(a0)
9d00c020:	10400008 	beqz	v0,9d00c044 <strlen+0x28>
9d00c024:	00000000 	nop
9d00c028:	00801025 	move	v0,a0
9d00c02c:	24420001 	addiu	v0,v0,1
9d00c030:	80430000 	lb	v1,0(v0)
9d00c034:	5460fffe 	bnezl	v1,9d00c030 <strlen+0x14>
9d00c038:	24420001 	addiu	v0,v0,1
9d00c03c:	03e00008 	jr	ra
9d00c040:	00441023 	subu	v0,v0,a0
9d00c044:	03e00008 	jr	ra
9d00c048:	00001025 	move	v0,zero

Disassembly of section .text.__sio_sprintf_dn:

9d00c04c <__sio_sprintf_dn>:
9d00c04c:	27bdffe8 	addiu	sp,sp,-24
9d00c050:	afbf0014 	sw	ra,20(sp)
9d00c054:	0f4026fb 	jal	9d009bec <__fmt_d>
9d00c058:	00000000 	nop
9d00c05c:	0f4025e8 	jal	9d0097a0 <__pop_int>
9d00c060:	00000000 	nop
9d00c064:	0f4029e5 	jal	9d00a794 <__pop_ptr>
9d00c068:	00000000 	nop
9d00c06c:	8fbf0014 	lw	ra,20(sp)
9d00c070:	03e00008 	jr	ra
9d00c074:	27bd0018 	addiu	sp,sp,24

Disassembly of section .text.strtoull:

9d00c078 <strtoull>:
9d00c078:	27bdffe0 	addiu	sp,sp,-32
9d00c07c:	2402ffff 	li	v0,-1
9d00c080:	2403ffff 	li	v1,-1
9d00c084:	afa20010 	sw	v0,16(sp)
9d00c088:	afa30014 	sw	v1,20(sp)
9d00c08c:	afbf001c 	sw	ra,28(sp)
9d00c090:	0f402b1b 	jal	9d00ac6c <strtox>
9d00c094:	00000000 	nop
9d00c098:	8fbf001c 	lw	ra,28(sp)
9d00c09c:	03e00008 	jr	ra
9d00c0a0:	27bd0020 	addiu	sp,sp,32

Disassembly of section .text.strtoll:

9d00c0a4 <strtoll>:
9d00c0a4:	27bdffe0 	addiu	sp,sp,-32
9d00c0a8:	00001025 	move	v0,zero
9d00c0ac:	3c038000 	lui	v1,0x8000
9d00c0b0:	afa20010 	sw	v0,16(sp)
9d00c0b4:	afa30014 	sw	v1,20(sp)
9d00c0b8:	afbf001c 	sw	ra,28(sp)
9d00c0bc:	0f402b1b 	jal	9d00ac6c <strtox>
9d00c0c0:	00000000 	nop
9d00c0c4:	8fbf001c 	lw	ra,28(sp)
9d00c0c8:	03e00008 	jr	ra
9d00c0cc:	27bd0020 	addiu	sp,sp,32

Disassembly of section .text.strtoul:

9d00c0d0 <strtoul>:
9d00c0d0:	27bdffe0 	addiu	sp,sp,-32
9d00c0d4:	2402ffff 	li	v0,-1
9d00c0d8:	00001825 	move	v1,zero
9d00c0dc:	afa20010 	sw	v0,16(sp)
9d00c0e0:	afa30014 	sw	v1,20(sp)
9d00c0e4:	afbf001c 	sw	ra,28(sp)
9d00c0e8:	0f402b1b 	jal	9d00ac6c <strtox>
9d00c0ec:	00000000 	nop
9d00c0f0:	8fbf001c 	lw	ra,28(sp)
9d00c0f4:	03e00008 	jr	ra
9d00c0f8:	27bd0020 	addiu	sp,sp,32

Disassembly of section .text.strtol:

9d00c0fc <strtol>:
9d00c0fc:	27bdffe0 	addiu	sp,sp,-32
9d00c100:	3c028000 	lui	v0,0x8000
9d00c104:	00001825 	move	v1,zero
9d00c108:	afa20010 	sw	v0,16(sp)
9d00c10c:	afa30014 	sw	v1,20(sp)
9d00c110:	afbf001c 	sw	ra,28(sp)
9d00c114:	0f402b1b 	jal	9d00ac6c <strtox>
9d00c118:	00000000 	nop
9d00c11c:	8fbf001c 	lw	ra,28(sp)
9d00c120:	03e00008 	jr	ra
9d00c124:	27bd0020 	addiu	sp,sp,32

Disassembly of section .text.__shlim:

9d00c128 <__shlim>:
9d00c128:	8c830040 	lw	v1,64(a0)
9d00c12c:	8c86003c 	lw	a2,60(a0)
9d00c130:	ac850050 	sw	a1,80(a0)
9d00c134:	00661023 	subu	v0,v1,a2
9d00c138:	10a00004 	beqz	a1,9d00c14c <__shlim+0x24>
9d00c13c:	ac820054 	sw	v0,84(a0)
9d00c140:	00a2102a 	slt	v0,a1,v0
9d00c144:	54400001 	bnezl	v0,9d00c14c <__shlim+0x24>
9d00c148:	00c51821 	addu	v1,a2,a1
9d00c14c:	03e00008 	jr	ra
9d00c150:	ac83004c 	sw	v1,76(a0)

Disassembly of section .text.__dummy:

9d00c154 <__dummy>:
9d00c154:	8c870014 	lw	a3,20(a0)
9d00c158:	8c860018 	lw	a2,24(a0)
9d00c15c:	8c830004 	lw	v1,4(a0)
9d00c160:	00e61023 	subu	v0,a3,a2
9d00c164:	30630040 	andi	v1,v1,0x40
9d00c168:	aca20000 	sw	v0,0(a1)
9d00c16c:	10600002 	beqz	v1,9d00c178 <__dummy+0x24>
9d00c170:	00001025 	move	v0,zero
9d00c174:	00c7102b 	sltu	v0,a2,a3
9d00c178:	03e00008 	jr	ra
9d00c17c:	00000000 	nop

Disassembly of section .text.__init_stdio:

9d00c180 <__init_stdio>:
9d00c180:	27bdffe8 	addiu	sp,sp,-24
9d00c184:	afbf0014 	sw	ra,20(sp)
9d00c188:	0f403161 	jal	9d00c584 <__init_stderr>
9d00c18c:	00000000 	nop
9d00c190:	0f403161 	jal	9d00c584 <__init_stderr>
9d00c194:	00000000 	nop
9d00c198:	0f403161 	jal	9d00c584 <__init_stderr>
9d00c19c:	00000000 	nop
9d00c1a0:	8fbf0014 	lw	ra,20(sp)
9d00c1a4:	03e00008 	jr	ra
9d00c1a8:	27bd0018 	addiu	sp,sp,24

Disassembly of section .text.memcpy:

9d00c1ac <memcpy>:
9d00c1ac:	10c00008 	beqz	a2,9d00c1d0 <memcpy+0x24>
9d00c1b0:	00801025 	move	v0,a0
9d00c1b4:	00863021 	addu	a2,a0,a2
9d00c1b8:	00801825 	move	v1,a0
9d00c1bc:	24a50001 	addiu	a1,a1,1
9d00c1c0:	90a7ffff 	lbu	a3,-1(a1)
9d00c1c4:	24630001 	addiu	v1,v1,1
9d00c1c8:	1466fffc 	bne	v1,a2,9d00c1bc <memcpy+0x10>
9d00c1cc:	a067ffff 	sb	a3,-1(v1)
9d00c1d0:	03e00008 	jr	ra
9d00c1d4:	00000000 	nop

Disassembly of section .text._stub_sbd_memlayout:

9d00c1d8 <_stub_sbd_memlayout>:
9d00c1d8:	3c04a000 	lui	a0,0xa000
9d00c1dc:	24820138 	addiu	v0,a0,312
9d00c1e0:	24030001 	li	v1,1
9d00c1e4:	ac430008 	sw	v1,8(v0)
9d00c1e8:	3c03a000 	lui	v1,0xa000
9d00c1ec:	24630170 	addiu	v1,v1,368
9d00c1f0:	ac830138 	sw	v1,312(a0)
9d00c1f4:	3c030000 	lui	v1,0x0
9d00c1f8:	24630000 	addiu	v1,v1,0
9d00c1fc:	03e00008 	jr	ra
9d00c200:	ac430004 	sw	v1,4(v0)

Disassembly of section .text.__wrap_sprintf:

9d00c204 <_dsprintf_dn>:
9d00c204:	27bdffe0 	addiu	sp,sp,-32
9d00c208:	afa60028 	sw	a2,40(sp)
9d00c20c:	27a60028 	addiu	a2,sp,40
9d00c210:	afbf001c 	sw	ra,28(sp)
9d00c214:	afa7002c 	sw	a3,44(sp)
9d00c218:	0f403095 	jal	9d00c254 <__vsprintf>
9d00c21c:	afa60010 	sw	a2,16(sp)
9d00c220:	8fbf001c 	lw	ra,28(sp)
9d00c224:	03e00008 	jr	ra
9d00c228:	27bd0020 	addiu	sp,sp,32

Disassembly of section .text.__wrap_sscanf:

9d00c22c <_dsscanf_dn>:
9d00c22c:	27bdffe0 	addiu	sp,sp,-32
9d00c230:	afa60028 	sw	a2,40(sp)
9d00c234:	27a60028 	addiu	a2,sp,40
9d00c238:	afbf001c 	sw	ra,28(sp)
9d00c23c:	afa7002c 	sw	a3,44(sp)
9d00c240:	0f402e2b 	jal	9d00b8ac <__vsscanf>
9d00c244:	afa60010 	sw	a2,16(sp)
9d00c248:	8fbf001c 	lw	ra,28(sp)
9d00c24c:	03e00008 	jr	ra
9d00c250:	27bd0020 	addiu	sp,sp,32

Disassembly of section .text.__vsprintf:

9d00c254 <__vsprintf>:
9d00c254:	00c03825 	move	a3,a2
9d00c258:	00a03025 	move	a2,a1
9d00c25c:	3c057fff 	lui	a1,0x7fff
9d00c260:	27bdffe8 	addiu	sp,sp,-24
9d00c264:	afbf0014 	sw	ra,20(sp)
9d00c268:	0f402d3e 	jal	9d00b4f8 <__vsnprintf>
9d00c26c:	34a5ffff 	ori	a1,a1,0xffff
9d00c270:	8fbf0014 	lw	ra,20(sp)
9d00c274:	03e00008 	jr	ra
9d00c278:	27bd0018 	addiu	sp,sp,24

Disassembly of section .text.memset:

9d00c27c <memset>:
9d00c27c:	10c00007 	beqz	a2,9d00c29c <memset+0x20>
9d00c280:	00801025 	move	v0,a0
9d00c284:	7c052c20 	seb	a1,a1
9d00c288:	00863021 	addu	a2,a0,a2
9d00c28c:	00801825 	move	v1,a0
9d00c290:	24630001 	addiu	v1,v1,1
9d00c294:	1466fffe 	bne	v1,a2,9d00c290 <memset+0x14>
9d00c298:	a065ffff 	sb	a1,-1(v1)
9d00c29c:	03e00008 	jr	ra
9d00c2a0:	00000000 	nop

Disassembly of section .text.__init_search_fl:

9d00c2a4 <__init_search_fl>:
9d00c2a4:	3c03a000 	lui	v1,0xa000
9d00c2a8:	8c660164 	lw	a2,356(v1)
9d00c2ac:	14c00005 	bnez	a2,9d00c2c4 <__init_search_fl+0x20>
9d00c2b0:	00001025 	move	v0,zero
9d00c2b4:	ac640164 	sw	a0,356(v1)
9d00c2b8:	ac800010 	sw	zero,16(a0)
9d00c2bc:	ac850000 	sw	a1,0(a0)
9d00c2c0:	24020001 	li	v0,1
9d00c2c4:	03e00008 	jr	ra
9d00c2c8:	00000000 	nop

Disassembly of section .text.__sio_sscanf_dn:

9d00c2cc <__sio_sscanf_dn>:
9d00c2cc:	27bdffe8 	addiu	sp,sp,-24
9d00c2d0:	afbf0014 	sw	ra,20(sp)
9d00c2d4:	0f402dbb 	jal	9d00b6ec <__scan_d>
9d00c2d8:	00000000 	nop
9d00c2dc:	0f4024cd 	jal	9d009334 <__scan_i>
9d00c2e0:	00000000 	nop
9d00c2e4:	8fbf0014 	lw	ra,20(sp)
9d00c2e8:	03e00008 	jr	ra
9d00c2ec:	27bd0018 	addiu	sp,sp,24

Disassembly of section .text.isxdigit:

9d00c2f0 <isxdigit>:
9d00c2f0:	2483ffd0 	addiu	v1,a0,-48
9d00c2f4:	2c63000a 	sltiu	v1,v1,10
9d00c2f8:	14600004 	bnez	v1,9d00c30c <isxdigit+0x1c>
9d00c2fc:	24020001 	li	v0,1
9d00c300:	34840020 	ori	a0,a0,0x20
9d00c304:	2482ff9f 	addiu	v0,a0,-97
9d00c308:	2c420006 	sltiu	v0,v0,6
9d00c30c:	03e00008 	jr	ra
9d00c310:	00000000 	nop

Disassembly of section .text.__fwrite_min:

9d00c314 <__stdio_write>:
9d00c314:	8c840000 	lw	a0,0(a0)
9d00c318:	27bdffe8 	addiu	sp,sp,-24
9d00c31c:	afbf0014 	sw	ra,20(sp)
9d00c320:	0f402d1c 	jal	9d00b470 <write>
9d00c324:	00000000 	nop
9d00c328:	8fbf0014 	lw	ra,20(sp)
9d00c32c:	03e00008 	jr	ra
9d00c330:	27bd0018 	addiu	sp,sp,24

Disassembly of section .text.__fseeko:

9d00c334 <__fseeko>:
9d00c334:	8c820030 	lw	v0,48(a0)
9d00c338:	27bdffe8 	addiu	sp,sp,-24
9d00c33c:	afbf0014 	sw	ra,20(sp)
9d00c340:	0040f809 	jalr	v0
9d00c344:	00000000 	nop
9d00c348:	8fbf0014 	lw	ra,20(sp)
9d00c34c:	03e00008 	jr	ra
9d00c350:	27bd0018 	addiu	sp,sp,24

Disassembly of section .text:

9d00c354 <__dinit_copy>:
9d00c354:	908c0000 	lbu	t4,0(a0)
9d00c358:	24c6ffff 	addiu	a2,a2,-1
9d00c35c:	24840001 	addiu	a0,a0,1
9d00c360:	a0ac0000 	sb	t4,0(a1)
9d00c364:	14c0fffb 	bnez	a2,9d00c354 <__dinit_copy>
9d00c368:	24a50001 	addiu	a1,a1,1
9d00c36c:	03e00008 	jr	ra
9d00c370:	00801025 	move	v0,a0

Disassembly of section .text.strtoimax:

9d00c374 <strtoimax>:
9d00c374:	27bdffe8 	addiu	sp,sp,-24
9d00c378:	afbf0014 	sw	ra,20(sp)
9d00c37c:	0f403029 	jal	9d00c0a4 <strtoll>
9d00c380:	00000000 	nop
9d00c384:	8fbf0014 	lw	ra,20(sp)
9d00c388:	03e00008 	jr	ra
9d00c38c:	27bd0018 	addiu	sp,sp,24

Disassembly of section .text.strtoumax:

9d00c390 <strtoumax>:
9d00c390:	27bdffe8 	addiu	sp,sp,-24
9d00c394:	afbf0014 	sw	ra,20(sp)
9d00c398:	0f40301e 	jal	9d00c078 <strtoull>
9d00c39c:	00000000 	nop
9d00c3a0:	8fbf0014 	lw	ra,20(sp)
9d00c3a4:	03e00008 	jr	ra
9d00c3a8:	27bd0018 	addiu	sp,sp,24

Disassembly of section .text.__isxdigit_l:

9d00c3ac <__isxdigit_l>:
9d00c3ac:	27bdffe8 	addiu	sp,sp,-24
9d00c3b0:	afbf0014 	sw	ra,20(sp)
9d00c3b4:	0f4030bc 	jal	9d00c2f0 <isxdigit>
9d00c3b8:	00000000 	nop
9d00c3bc:	8fbf0014 	lw	ra,20(sp)
9d00c3c0:	03e00008 	jr	ra
9d00c3c4:	27bd0018 	addiu	sp,sp,24

Disassembly of section .text.tolower:

9d00c3c8 <tolower>:
9d00c3c8:	2483ffbf 	addiu	v1,a0,-65
9d00c3cc:	2c63001a 	sltiu	v1,v1,26
9d00c3d0:	10600002 	beqz	v1,9d00c3dc <tolower+0x14>
9d00c3d4:	00801025 	move	v0,a0
9d00c3d8:	34820020 	ori	v0,a0,0x20
9d00c3dc:	03e00008 	jr	ra
9d00c3e0:	00000000 	nop

Disassembly of section .text.__tolower_l:

9d00c3e4 <__tolower_l>:
9d00c3e4:	27bdffe8 	addiu	sp,sp,-24
9d00c3e8:	afbf0014 	sw	ra,20(sp)
9d00c3ec:	0f4030f2 	jal	9d00c3c8 <tolower>
9d00c3f0:	00000000 	nop
9d00c3f4:	8fbf0014 	lw	ra,20(sp)
9d00c3f8:	03e00008 	jr	ra
9d00c3fc:	27bd0018 	addiu	sp,sp,24

Disassembly of section .text.do_read:

9d00c400 <do_read>:
9d00c400:	27bdffe8 	addiu	sp,sp,-24
9d00c404:	afbf0014 	sw	ra,20(sp)
9d00c408:	0f402bf4 	jal	9d00afd0 <__string_read>
9d00c40c:	00000000 	nop
9d00c410:	8fbf0014 	lw	ra,20(sp)
9d00c414:	03e00008 	jr	ra
9d00c418:	27bd0018 	addiu	sp,sp,24

Disassembly of section .text.__toread_needs_stdio_exit:

9d00c41c <__toread_needs_stdio_exit>:
9d00c41c:	27bdffe8 	addiu	sp,sp,-24
9d00c420:	afbf0014 	sw	ra,20(sp)
9d00c424:	0f402ee2 	jal	9d00bb88 <__stdio_exit>
9d00c428:	00000000 	nop
9d00c42c:	8fbf0014 	lw	ra,20(sp)
9d00c430:	03e00008 	jr	ra
9d00c434:	27bd0018 	addiu	sp,sp,24

Disassembly of section .text.putc:

9d00c438 <putc>:
9d00c438:	27bdffe8 	addiu	sp,sp,-24
9d00c43c:	afbf0014 	sw	ra,20(sp)
9d00c440:	0f402df3 	jal	9d00b7cc <__putc>
9d00c444:	00000000 	nop
9d00c448:	8fbf0014 	lw	ra,20(sp)
9d00c44c:	03e00008 	jr	ra
9d00c450:	27bd0018 	addiu	sp,sp,24

Disassembly of section .text.__fopen:

9d00c454 <__fopen>:
9d00c454:	27bdffe8 	addiu	sp,sp,-24
9d00c458:	afbf0014 	sw	ra,20(sp)
9d00c45c:	0f402cfa 	jal	9d00b3e8 <__fopen_rw>
9d00c460:	00000000 	nop
9d00c464:	8fbf0014 	lw	ra,20(sp)
9d00c468:	03e00008 	jr	ra
9d00c46c:	27bd0018 	addiu	sp,sp,24

Disassembly of section .text.__ftello_adj:

9d00c470 <__ftello_adj>:
9d00c470:	27bdffe8 	addiu	sp,sp,-24
9d00c474:	afbf0014 	sw	ra,20(sp)
9d00c478:	0f402f2b 	jal	9d00bcac <__ftello_adj_rw>
9d00c47c:	00000000 	nop
9d00c480:	8fbf0014 	lw	ra,20(sp)
9d00c484:	03e00008 	jr	ra
9d00c488:	27bd0018 	addiu	sp,sp,24

Disassembly of section .text:

9d00c4a8 <_nmi_handler>:
9d00c4a8:	401a6000 	mfc0	k0,c0_status
9d00c4ac:	3c1bffbf 	lui	k1,0xffbf
9d00c4b0:	377bffff 	ori	k1,k1,0xffff
9d00c4b4:	035bd024 	and	k0,k0,k1
9d00c4b8:	409a6000 	mtc0	k0,c0_status
9d00c4bc:	42000018 	eret

Disassembly of section .rodata:

9d00c4c0 <state_table>:
9d00c4c0:	096c0768 906a834c c07aa074 88688000     h.l.L.j.t.z...h.
9d00c4d0:	826c8400 00008100                       ..l.....

Disassembly of section .text:

9d00c4d8 <__dinit_clear>:
9d00c4d8:	24c6ffff 	addiu	a2,a2,-1
9d00c4dc:	a0a00000 	sb	zero,0(a1)
9d00c4e0:	14c0fffd 	bnez	a2,9d00c4d8 <__dinit_clear>
9d00c4e4:	24a50001 	addiu	a1,a1,1
9d00c4e8:	03e00008 	jr	ra
9d00c4ec:	00801025 	move	v0,a0

Disassembly of section .rodata:

9d00c4f0 <_dinit_func_table>:
9d00c4f0:	9d00c4d8 9d00c354 9d00b578 9d00b578     ....T...x...x...
9d00c500:	9d00b578                                x...

Disassembly of section .text.__get_stderr:

9d00c504 <__get_stderr>:
9d00c504:	3c02a000 	lui	v0,0xa000
9d00c508:	03e00008 	jr	ra
9d00c50c:	24420074 	addiu	v0,v0,116

Disassembly of section .text.__get_stdout:

9d00c510 <__get_stdout>:
9d00c510:	3c02a000 	lui	v0,0xa000
9d00c514:	03e00008 	jr	ra
9d00c518:	244200d4 	addiu	v0,v0,212

Disassembly of section .text._on_reset:

9d00c51c <_on_reset>:
9d00c51c:	03e00008 	jr	ra
9d00c520:	00000000 	nop

Disassembly of section .text._on_bootstrap:

9d00c524 <_on_bootstrap>:
9d00c524:	03e00008 	jr	ra
9d00c528:	00000000 	nop

Disassembly of section .text.__dummy_fmt3:

9d00c52c <__fmt_o>:
9d00c52c:	03e00008 	jr	ra
9d00c530:	00001025 	move	v0,zero

Disassembly of section .text.__dummy_fmt4:

9d00c534 <__fmt_a>:
9d00c534:	03e00008 	jr	ra
9d00c538:	00001025 	move	v0,zero

Disassembly of section .text.__dummy_fmts:

9d00c53c <__fmt_s>:
9d00c53c:	03e00008 	jr	ra
9d00c540:	00001025 	move	v0,zero

Disassembly of section .text.__dummy_scan:

9d00c544 <__scan_a>:
9d00c544:	03e00008 	jr	ra
9d00c548:	00001025 	move	v0,zero

Disassembly of section .text.__dummy_scan_s:

9d00c54c <__scan_s>:
9d00c54c:	03e00008 	jr	ra
9d00c550:	00001025 	move	v0,zero

Disassembly of section .text.__dummy:

9d00c554 <__dummy>:
9d00c554:	03e00008 	jr	ra
9d00c558:	00000000 	nop

9d00c55c <__stdio_exit_ofl>:
9d00c55c:	03e00008 	jr	ra
9d00c560:	00000000 	nop

Disassembly of section .text.__dummy1:

9d00c564 <__dummy1>:
9d00c564:	03e00008 	jr	ra
9d00c568:	00001025 	move	v0,zero

Disassembly of section .text.__dummy:

9d00c56c <__dummy>:
9d00c56c:	03e00008 	jr	ra
9d00c570:	00000000 	nop

9d00c574 <__dummy>:
9d00c574:	03e00008 	jr	ra
9d00c578:	00001025 	move	v0,zero

Disassembly of section .text.__dummy:

9d00c57c <__dummy>:
9d00c57c:	03e00008 	jr	ra
9d00c580:	00001025 	move	v0,zero

9d00c584 <__init_stderr>:
9d00c584:	03e00008 	jr	ra
9d00c588:	00000000 	nop

Disassembly of section .text.lseek:

9d00c58c <lseek>:
9d00c58c:	03e00008 	jr	ra
9d00c590:	00001025 	move	v0,zero

Disassembly of section .text.close:

9d00c594 <close>:
9d00c594:	03e00008 	jr	ra
9d00c598:	00001025 	move	v0,zero

Disassembly of section .text.getpagesize:

9d00c59c <getpagesize>:
9d00c59c:	03e00008 	jr	ra
9d00c5a0:	24020080 	li	v0,128
