
out.elf:     file format elf32-tradlittlemips


Disassembly of section .reset:

bd007000 <_reset>:
bd007000:	0f401c02 	jal	bd007008 <_startup>
bd007004:	00000000 	nop

bd007008 <_startup>:
bd007008:	401a6000 	mfc0	k0,c0_status
bd00700c:	7f5a04c0 	ext	k0,k0,0x13,0x1
bd007010:	13400005 	beqz	k0,bd007028 <_no_nmi>
bd007014:	00000000 	nop
bd007018:	3c1a9d01 	lui	k0,0x9d01
bd00701c:	275a0680 	addiu	k0,k0,1664
bd007020:	03400008 	jr	k0
bd007024:	00000000 	nop

bd007028 <_no_nmi>:
bd007028:	3c1da001 	lui	sp,0xa001
bd00702c:	27bdfff8 	addiu	sp,sp,-8
bd007030:	3c1ca000 	lui	gp,0xa000
bd007034:	279c7ff0 	addiu	gp,gp,32752
bd007038:	3c089d01 	lui	t0,0x9d01
bd00703c:	2508072c 	addiu	t0,t0,1836
bd007040:	0100f809 	jalr	t0
bd007044:	00000000 	nop
bd007048:	3c089d01 	lui	t0,0x9d01
bd00704c:	2508f654 	addiu	t0,t0,-2476
bd007050:	0100f809 	jalr	t0
bd007054:	00000000 	nop
bd007058:	3c090000 	lui	t1,0x0
bd00705c:	25290000 	addiu	t1,t1,0
bd007060:	11200010 	beqz	t1,bd0070a4 <_ramfunc_done>
bd007064:	00000000 	nop
bd007068:	3c090001 	lui	t1,0x1
bd00706c:	25290000 	addiu	t1,t1,0
bd007070:	3c0abf88 	lui	t2,0xbf88
bd007074:	254a2010 	addiu	t2,t2,8208
bd007078:	ad490000 	sw	t1,0(t2)
bd00707c:	3c090001 	lui	t1,0x1
bd007080:	25290000 	addiu	t1,t1,0
bd007084:	3c0abf88 	lui	t2,0xbf88
bd007088:	254a2020 	addiu	t2,t2,8224
bd00708c:	ad490000 	sw	t1,0(t2)
bd007090:	3c090001 	lui	t1,0x1
bd007094:	25290000 	addiu	t1,t1,0
bd007098:	3c0abf88 	lui	t2,0xbf88
bd00709c:	254a2030 	addiu	t2,t2,8240
bd0070a0:	ad490000 	sw	t1,0(t2)

bd0070a4 <_ramfunc_done>:
bd0070a4:	40804800 	mtc0	zero,c0_count
bd0070a8:	240affff 	li	t2,-1
bd0070ac:	408a5800 	mtc0	t2,c0_compare
bd0070b0:	3c080040 	lui	t0,0x40
bd0070b4:	400a6000 	mfc0	t2,c0_status
bd0070b8:	010a5025 	or	t2,t0,t2
bd0070bc:	408a6000 	mtc0	t2,c0_status
bd0070c0:	3c099d00 	lui	t1,0x9d00
bd0070c4:	25296000 	addiu	t1,t1,24576
bd0070c8:	000000c0 	ehb
bd0070cc:	40897801 	mtc0	t1,c0_ebase
bd0070d0:	3c090000 	lui	t1,0x0
bd0070d4:	25290001 	addiu	t1,t1,1
bd0070d8:	240a0000 	li	t2,0
bd0070dc:	7d2a4944 	ins	t2,t1,0x5,0x5
bd0070e0:	408a6001 	mtc0	t2,c0_intctl
bd0070e4:	3c090080 	lui	t1,0x80
bd0070e8:	40896800 	mtc0	t1,c0_cause
bd0070ec:	40088000 	mfc0	t0,c0_config
bd0070f0:	7d090580 	ext	t1,t0,0x16,0x1
bd0070f4:	00094c40 	sll	t1,t1,0x11
bd0070f8:	40086000 	mfc0	t0,c0_status
bd0070fc:	3c010058 	lui	at,0x58
bd007100:	01014024 	and	t0,t0,at
bd007104:	01284025 	or	t0,t1,t0
bd007108:	40886000 	mtc0	t0,c0_status
bd00710c:	000000c0 	ehb
bd007110:	3c089d01 	lui	t0,0x9d01
bd007114:	25080734 	addiu	t0,t0,1844
bd007118:	0100f809 	jalr	t0
bd00711c:	00000000 	nop
bd007120:	40086000 	mfc0	t0,c0_status
bd007124:	3c01ffbf 	lui	at,0xffbf
bd007128:	3421ffff 	ori	at,at,0xffff
bd00712c:	01014024 	and	t0,t0,at
bd007130:	40886000 	mtc0	t0,c0_status
bd007134:	30840000 	andi	a0,a0,0x0
bd007138:	30a50000 	andi	a1,a1,0x0
bd00713c:	3c089d01 	lui	t0,0x9d01
bd007140:	2508fbcc 	addiu	t0,t0,-1076
bd007144:	01000008 	jr	t0
bd007148:	00000000 	nop

Disassembly of section .bev_excpt:

bfc07380 <_bev_exception>:
bfc07380:	3c1a9d01 	lui	k0,0x9d01
bfc07384:	275afd10 	addiu	k0,k0,-752
bfc07388:	03400008 	jr	k0
bfc0738c:	00000000 	nop

Disassembly of section .app_excpt:

9d006180 <_gen_exception>:
9d006180:	3c1a9d01 	lui	k0,0x9d01
9d006184:	275ae564 	addiu	k0,k0,-6812
9d006188:	03400008 	jr	k0
9d00618c:	00000000 	nop

Disassembly of section .vector_0:

9d006200 <__vector_dispatch_0>:
9d006200:	0b403f68 	j	9d00fda0 <_DefaultInterrupt>
9d006204:	00000000 	nop

Disassembly of section .vector_1:

9d006220 <__vector_dispatch_1>:
9d006220:	0b403f68 	j	9d00fda0 <_DefaultInterrupt>
9d006224:	00000000 	nop

Disassembly of section .vector_2:

9d006240 <__vector_dispatch_2>:
9d006240:	0b403f68 	j	9d00fda0 <_DefaultInterrupt>
9d006244:	00000000 	nop

Disassembly of section .vector_3:

9d006260 <__vector_dispatch_3>:
9d006260:	0b403f68 	j	9d00fda0 <_DefaultInterrupt>
9d006264:	00000000 	nop

Disassembly of section .vector_4:

9d006280 <__vector_dispatch_4>:
9d006280:	0b403f68 	j	9d00fda0 <_DefaultInterrupt>
9d006284:	00000000 	nop

Disassembly of section .vector_5:

9d0062a0 <__vector_dispatch_5>:
9d0062a0:	0b403f68 	j	9d00fda0 <_DefaultInterrupt>
9d0062a4:	00000000 	nop

Disassembly of section .vector_6:

9d0062c0 <__vector_dispatch_6>:
9d0062c0:	0b403f68 	j	9d00fda0 <_DefaultInterrupt>
9d0062c4:	00000000 	nop

Disassembly of section .vector_7:

9d0062e0 <__vector_dispatch_7>:
9d0062e0:	0b403f68 	j	9d00fda0 <_DefaultInterrupt>
9d0062e4:	00000000 	nop

Disassembly of section .vector_8:

9d006300 <__vector_dispatch_8>:
9d006300:	0b4025ce 	j	9d009738 <Controller>
9d006304:	00000000 	nop

Disassembly of section .vector_9:

9d006320 <__vector_dispatch_9>:
9d006320:	0b403f68 	j	9d00fda0 <_DefaultInterrupt>
9d006324:	00000000 	nop

Disassembly of section .vector_10:

9d006340 <__vector_dispatch_10>:
9d006340:	0b403f68 	j	9d00fda0 <_DefaultInterrupt>
9d006344:	00000000 	nop

Disassembly of section .vector_11:

9d006360 <__vector_dispatch_11>:
9d006360:	0b403f68 	j	9d00fda0 <_DefaultInterrupt>
9d006364:	00000000 	nop

Disassembly of section .vector_12:

9d006380 <__vector_dispatch_12>:
9d006380:	0b403f68 	j	9d00fda0 <_DefaultInterrupt>
9d006384:	00000000 	nop

Disassembly of section .vector_13:

9d0063a0 <__vector_dispatch_13>:
9d0063a0:	0b403f68 	j	9d00fda0 <_DefaultInterrupt>
9d0063a4:	00000000 	nop

Disassembly of section .vector_14:

9d0063c0 <__vector_dispatch_14>:
9d0063c0:	0b403f68 	j	9d00fda0 <_DefaultInterrupt>
9d0063c4:	00000000 	nop

Disassembly of section .vector_15:

9d0063e0 <__vector_dispatch_15>:
9d0063e0:	0b403f68 	j	9d00fda0 <_DefaultInterrupt>
9d0063e4:	00000000 	nop

Disassembly of section .vector_16:

9d006400 <__vector_dispatch_16>:
9d006400:	0b403f68 	j	9d00fda0 <_DefaultInterrupt>
9d006404:	00000000 	nop

Disassembly of section .vector_17:

9d006420 <__vector_dispatch_17>:
9d006420:	0b403f68 	j	9d00fda0 <_DefaultInterrupt>
9d006424:	00000000 	nop

Disassembly of section .vector_18:

9d006440 <__vector_dispatch_18>:
9d006440:	0b403f68 	j	9d00fda0 <_DefaultInterrupt>
9d006444:	00000000 	nop

Disassembly of section .vector_19:

9d006460 <__vector_dispatch_19>:
9d006460:	0b403f68 	j	9d00fda0 <_DefaultInterrupt>
9d006464:	00000000 	nop

Disassembly of section .vector_20:

9d006480 <__vector_dispatch_20>:
9d006480:	0b403f68 	j	9d00fda0 <_DefaultInterrupt>
9d006484:	00000000 	nop

Disassembly of section .vector_21:

9d0064a0 <__vector_dispatch_21>:
9d0064a0:	0b403f68 	j	9d00fda0 <_DefaultInterrupt>
9d0064a4:	00000000 	nop

Disassembly of section .vector_22:

9d0064c0 <__vector_dispatch_22>:
9d0064c0:	0b403f68 	j	9d00fda0 <_DefaultInterrupt>
9d0064c4:	00000000 	nop

Disassembly of section .vector_23:

9d0064e0 <__vector_dispatch_23>:
9d0064e0:	0b403f68 	j	9d00fda0 <_DefaultInterrupt>
9d0064e4:	00000000 	nop

Disassembly of section .vector_24:

9d006500 <__vector_dispatch_24>:
9d006500:	0b403f68 	j	9d00fda0 <_DefaultInterrupt>
9d006504:	00000000 	nop

Disassembly of section .vector_25:

9d006520 <__vector_dispatch_25>:
9d006520:	0b403f68 	j	9d00fda0 <_DefaultInterrupt>
9d006524:	00000000 	nop

Disassembly of section .vector_26:

9d006540 <__vector_dispatch_26>:
9d006540:	0b403f68 	j	9d00fda0 <_DefaultInterrupt>
9d006544:	00000000 	nop

Disassembly of section .vector_27:

9d006560 <__vector_dispatch_27>:
9d006560:	0b403f68 	j	9d00fda0 <_DefaultInterrupt>
9d006564:	00000000 	nop

Disassembly of section .vector_28:

9d006580 <__vector_dispatch_28>:
9d006580:	0b403f68 	j	9d00fda0 <_DefaultInterrupt>
9d006584:	00000000 	nop

Disassembly of section .vector_29:

9d0065a0 <__vector_dispatch_29>:
9d0065a0:	0b403f68 	j	9d00fda0 <_DefaultInterrupt>
9d0065a4:	00000000 	nop

Disassembly of section .vector_30:

9d0065c0 <__vector_dispatch_30>:
9d0065c0:	0b403f68 	j	9d00fda0 <_DefaultInterrupt>
9d0065c4:	00000000 	nop

Disassembly of section .vector_31:

9d0065e0 <__vector_dispatch_31>:
9d0065e0:	0b403f68 	j	9d00fda0 <_DefaultInterrupt>
9d0065e4:	00000000 	nop

Disassembly of section .vector_32:

9d006600 <__vector_dispatch_32>:
9d006600:	0b403f68 	j	9d00fda0 <_DefaultInterrupt>
9d006604:	00000000 	nop

Disassembly of section .vector_33:

9d006620 <__vector_dispatch_33>:
9d006620:	0b403f68 	j	9d00fda0 <_DefaultInterrupt>
9d006624:	00000000 	nop

Disassembly of section .vector_34:

9d006640 <__vector_dispatch_34>:
9d006640:	0b403f68 	j	9d00fda0 <_DefaultInterrupt>
9d006644:	00000000 	nop

Disassembly of section .vector_35:

9d006660 <__vector_dispatch_35>:
9d006660:	0b403f68 	j	9d00fda0 <_DefaultInterrupt>
9d006664:	00000000 	nop

Disassembly of section .vector_36:

9d006680 <__vector_dispatch_36>:
9d006680:	0b403f68 	j	9d00fda0 <_DefaultInterrupt>
9d006684:	00000000 	nop

Disassembly of section .vector_37:

9d0066a0 <__vector_dispatch_37>:
9d0066a0:	0b403f68 	j	9d00fda0 <_DefaultInterrupt>
9d0066a4:	00000000 	nop

Disassembly of section .vector_38:

9d0066c0 <__vector_dispatch_38>:
9d0066c0:	0b403f68 	j	9d00fda0 <_DefaultInterrupt>
9d0066c4:	00000000 	nop

Disassembly of section .vector_39:

9d0066e0 <__vector_dispatch_39>:
9d0066e0:	0b403f68 	j	9d00fda0 <_DefaultInterrupt>
9d0066e4:	00000000 	nop

Disassembly of section .vector_40:

9d006700 <__vector_dispatch_40>:
9d006700:	0b403f68 	j	9d00fda0 <_DefaultInterrupt>
9d006704:	00000000 	nop

Disassembly of section .vector_41:

9d006720 <__vector_dispatch_41>:
9d006720:	0b403f68 	j	9d00fda0 <_DefaultInterrupt>
9d006724:	00000000 	nop

Disassembly of section .vector_42:

9d006740 <__vector_dispatch_42>:
9d006740:	0b403f68 	j	9d00fda0 <_DefaultInterrupt>
9d006744:	00000000 	nop

Disassembly of section .vector_43:

9d006760 <__vector_dispatch_43>:
9d006760:	0b403f68 	j	9d00fda0 <_DefaultInterrupt>
9d006764:	00000000 	nop

Disassembly of section .rodata:

9d007490 <.rodata>:
9d007490:	25206625 	addiu	zero,t1,26149
9d007494:	66252066 	0x66252066
9d007498:	00000000 	nop
9d00749c:	25206425 	addiu	zero,t1,25637
9d0074a0:	64252064 	0x64252064
9d0074a4:	00000a0d 	break	0x0,0x28
9d0074a8:	42c80000 	c0	0xc80000
9d0074ac:	42480000 	c0	0x480000
9d0074b0:	00000000 	nop
9d0074b4:	40590000 	cfc0	t9,c0_index
9d0074b8:	00000000 	nop
9d0074bc:	41f00000 	0x41f00000
9d0074c0:	6c696e28 	0x6c696e28
9d0074c4:	00000029 	0x29
9d0074c8:	00000025 	move	zero,zero
9d0074cc:	00666e69 	0x666e69
9d0074d0:	006e616e 	0x6e616e
9d0074d4:	69666e69 	0x69666e69
9d0074d8:	7974696e 	0x7974696e
9d0074dc:	00000000 	nop
9d0074e0:	006e616e 	0x6e616e
9d0074e4:	00000000 	nop
9d0074e8:	ffffffff 	sdc3	$31,-1(ra)
9d0074ec:	7fefffff 	0x7fefffff
9d0074f0:	00000000 	nop
9d0074f4:	00100000 	sll	zero,s0,0x0
9d0074f8:	00000000 	nop
9d0074fc:	41cdcd65 	0x41cdcd65
9d007500:	00000000 	nop
9d007504:	3ff00000 	0x3ff00000
9d007508:	00000000 	nop
9d00750c:	3fd00000 	0x3fd00000
9d007510:	00000000 	nop
9d007514:	3fe80000 	0x3fe80000
9d007518:	00000000 	nop
9d00751c:	3fe00000 	0x3fe00000
9d007520:	00000000 	nop
9d007524:	43400000 	c0	0x1400000
9d007528:	00000000 	nop
9d00752c:	fff00000 	sdc3	$16,0(ra)
9d007530:	ffffffff 	sdc3	$31,-1(ra)
9d007534:	7ff7ffff 	0x7ff7ffff
9d007538:	00000000 	nop
9d00753c:	7ff00000 	ext	s0,ra,0x0,0x1
9d007540:	00000000 	nop
9d007544:	3fb00000 	0x3fb00000
9d007548:	00000000 	nop
9d00754c:	c08ff000 	ll	t7,-4096(a0)
9d007550:	00000000 	nop
9d007554:	3ff00000 	0x3ff00000
9d007558:	00000000 	nop
9d00755c:	3fe00000 	0x3fe00000
9d007560:	30773b76 	andi	s7,v1,0x3b76
9d007564:	7fde42d1 	pick.ph	t0,s8,s8
9d007568:	00000000 	nop
9d00756c:	7fe00000 	ext	zero,ra,0x0,0x1
9d007570:	00000000 	nop
9d007574:	03600000 	0x3600000

Disassembly of section ._debug_exception:

bfc00480 <__DbgExecReturn>:
bfc00480:	409bf800 	mtc0	k1,c0_desave
bfc00484:	000000c0 	ehb
bfc00488:	3c1b9d01 	lui	k1,0x9d01
bfc0048c:	277bfe78 	addiu	k1,k1,-392
bfc00490:	13600002 	beqz	k1,bfc0049c <__DbgExecReturn+0x1c>
bfc00494:	00000000 	nop
bfc00498:	409bc000 	mtc0	k1,c0_depc
bfc0049c:	401bf800 	mfc0	k1,c0_desave
bfc004a0:	000000c0 	ehb
bfc004a4:	4200001f 	deret
bfc004a8:	00000000 	nop

Disassembly of section .text.decfloat:

9d007578 <decfloat>:
9d007578:	27bdfdb0 	addiu	sp,sp,-592
9d00757c:	afb30234 	sw	s3,564(sp)
9d007580:	afb1022c 	sw	s1,556(sp)
9d007584:	afbf024c 	sw	ra,588(sp)
9d007588:	afbe0248 	sw	s8,584(sp)
9d00758c:	afb70244 	sw	s7,580(sp)
9d007590:	afb60240 	sw	s6,576(sp)
9d007594:	afb5023c 	sw	s5,572(sp)
9d007598:	afb40238 	sw	s4,568(sp)
9d00759c:	afb20230 	sw	s2,560(sp)
9d0075a0:	afb00228 	sw	s0,552(sp)
9d0075a4:	00808825 	move	s1,a0
9d0075a8:	00a01025 	move	v0,a1
9d0075ac:	afa60258 	sw	a2,600(sp)
9d0075b0:	afa7025c 	sw	a3,604(sp)
9d0075b4:	00009825 	move	s3,zero
9d0075b8:	24030030 	li	v1,48
9d0075bc:	1043004a 	beq	v0,v1,9d0076e8 <decfloat+0x170>
9d0075c0:	2403002e 	li	v1,46
9d0075c4:	1443006b 	bne	v0,v1,9d007774 <decfloat+0x1fc>
9d0075c8:	00009025 	move	s2,zero
9d0075cc:	8e22003c 	lw	v0,60(s1)
9d0075d0:	8e23004c 	lw	v1,76(s1)
9d0075d4:	0043182b 	sltu	v1,v0,v1
9d0075d8:	10600050 	beqz	v1,9d00771c <decfloat+0x1a4>
9d0075dc:	24430001 	addiu	v1,v0,1
9d0075e0:	ae23003c 	sw	v1,60(s1)
9d0075e4:	90420000 	lbu	v0,0(v0)
9d0075e8:	00008025 	move	s0,zero
9d0075ec:	0000a025 	move	s4,zero
9d0075f0:	24030030 	li	v1,48
9d0075f4:	1043004d 	beq	v0,v1,9d00772c <decfloat+0x1b4>
9d0075f8:	24120001 	li	s2,1
9d0075fc:	afa00010 	sw	zero,16(sp)
9d007600:	0000b825 	move	s7,zero
9d007604:	0000f025 	move	s8,zero
9d007608:	00003025 	move	a2,zero
9d00760c:	0000b025 	move	s6,zero
9d007610:	0000a825 	move	s5,zero
9d007614:	2444ffd0 	addiu	a0,v0,-48
9d007618:	2c85000a 	sltiu	a1,a0,10
9d00761c:	54a00058 	bnezl	a1,9d007780 <decfloat+0x208>
9d007620:	2405002e 	li	a1,46
9d007624:	2404002e 	li	a0,46
9d007628:	10440057 	beq	v0,a0,9d007788 <decfloat+0x210>
9d00762c:	00000000 	nop
9d007630:	03d2800a 	movz	s0,s8,s2
9d007634:	00d2a00a 	movz	s4,a2,s2
9d007638:	1260030b 	beqz	s3,9d008268 <decfloat+0xcf0>
9d00763c:	34430020 	ori	v1,v0,0x20
9d007640:	24040065 	li	a0,101
9d007644:	14640325 	bne	v1,a0,9d0082dc <decfloat+0xd64>
9d007648:	8fa50264 	lw	a1,612(sp)
9d00764c:	02202025 	move	a0,s1
9d007650:	0f403261 	jal	9d00c984 <scanexp>
9d007654:	afa60210 	sw	a2,528(sp)
9d007658:	1440000e 	bnez	v0,9d007694 <decfloat+0x11c>
9d00765c:	8fa60210 	lw	a2,528(sp)
9d007660:	3c048000 	lui	a0,0x8000
9d007664:	5464000c 	bnel	v1,a0,9d007698 <decfloat+0x120>
9d007668:	02021021 	addu	v0,s0,v0
9d00766c:	8fa30264 	lw	v1,612(sp)
9d007670:	1060030a 	beqz	v1,9d00829c <decfloat+0xd24>
9d007674:	00002825 	move	a1,zero
9d007678:	8e24004c 	lw	a0,76(s1)
9d00767c:	10800005 	beqz	a0,9d007694 <decfloat+0x11c>
9d007680:	00001825 	move	v1,zero
9d007684:	8e23003c 	lw	v1,60(s1)
9d007688:	2463ffff 	addiu	v1,v1,-1
9d00768c:	ae23003c 	sw	v1,60(s1)
9d007690:	00401825 	move	v1,v0
9d007694:	02021021 	addu	v0,s0,v0
9d007698:	0050202b 	sltu	a0,v0,s0
9d00769c:	0283a021 	addu	s4,s4,v1
9d0076a0:	00408025 	move	s0,v0
9d0076a4:	0094a021 	addu	s4,a0,s4
9d0076a8:	8fa40260 	lw	a0,608(sp)
9d0076ac:	8fb10010 	lw	s1,16(sp)
9d0076b0:	0f403df0 	jal	9d00f7c0 <__floatsidf>
9d0076b4:	afa60210 	sw	a2,528(sp)
9d0076b8:	00409025 	move	s2,v0
9d0076bc:	00609825 	move	s3,v1
9d0076c0:	16200064 	bnez	s1,9d007854 <decfloat+0x2dc>
9d0076c4:	8fa60210 	lw	a2,528(sp)
9d0076c8:	00003025 	move	a2,zero
9d0076cc:	00003825 	move	a3,zero
9d0076d0:	00402025 	move	a0,v0
9d0076d4:	00602825 	move	a1,v1
9d0076d8:	0f4030ed 	jal	9d00c3b4 <__muldf3>
9d0076dc:	00000000 	nop
9d0076e0:	100002f3 	b	9d0082b0 <decfloat+0xd38>
9d0076e4:	8fbf024c 	lw	ra,588(sp)
9d0076e8:	8e22003c 	lw	v0,60(s1)
9d0076ec:	8e23004c 	lw	v1,76(s1)
9d0076f0:	0043182b 	sltu	v1,v0,v1
9d0076f4:	10600005 	beqz	v1,9d00770c <decfloat+0x194>
9d0076f8:	24430001 	addiu	v1,v0,1
9d0076fc:	ae23003c 	sw	v1,60(s1)
9d007700:	90420000 	lbu	v0,0(v0)
9d007704:	1000ffac 	b	9d0075b8 <decfloat+0x40>
9d007708:	24130001 	li	s3,1
9d00770c:	0f403a56 	jal	9d00e958 <__shgetc>
9d007710:	02202025 	move	a0,s1
9d007714:	1000ffa8 	b	9d0075b8 <decfloat+0x40>
9d007718:	24130001 	li	s3,1
9d00771c:	0f403a56 	jal	9d00e958 <__shgetc>
9d007720:	02202025 	move	a0,s1
9d007724:	1000ffb1 	b	9d0075ec <decfloat+0x74>
9d007728:	00008025 	move	s0,zero
9d00772c:	8e22003c 	lw	v0,60(s1)
9d007730:	8e23004c 	lw	v1,76(s1)
9d007734:	0043182b 	sltu	v1,v0,v1
9d007738:	1060000a 	beqz	v1,9d007764 <decfloat+0x1ec>
9d00773c:	24430001 	addiu	v1,v0,1
9d007740:	ae23003c 	sw	v1,60(s1)
9d007744:	90420000 	lbu	v0,0(v0)
9d007748:	2604ffff 	addiu	a0,s0,-1
9d00774c:	0090182b 	sltu	v1,a0,s0
9d007750:	2694ffff 	addiu	s4,s4,-1
9d007754:	00808025 	move	s0,a0
9d007758:	0074a021 	addu	s4,v1,s4
9d00775c:	1000ffa4 	b	9d0075f0 <decfloat+0x78>
9d007760:	24130001 	li	s3,1
9d007764:	0f403a56 	jal	9d00e958 <__shgetc>
9d007768:	02202025 	move	a0,s1
9d00776c:	1000fff7 	b	9d00774c <decfloat+0x1d4>
9d007770:	2604ffff 	addiu	a0,s0,-1
9d007774:	00008025 	move	s0,zero
9d007778:	1000ffa0 	b	9d0075fc <decfloat+0x84>
9d00777c:	0000a025 	move	s4,zero
9d007780:	1445000d 	bne	v0,a1,9d0077b8 <decfloat+0x240>
9d007784:	27c50001 	addiu	a1,s8,1
9d007788:	16400030 	bnez	s2,9d00784c <decfloat+0x2d4>
9d00778c:	24120001 	li	s2,1
9d007790:	03c08025 	move	s0,s8
9d007794:	00c0a025 	move	s4,a2
9d007798:	8e22003c 	lw	v0,60(s1)
9d00779c:	8e24004c 	lw	a0,76(s1)
9d0077a0:	0044202b 	sltu	a0,v0,a0
9d0077a4:	10800024 	beqz	a0,9d007838 <decfloat+0x2c0>
9d0077a8:	24440001 	addiu	a0,v0,1
9d0077ac:	ae24003c 	sw	a0,60(s1)
9d0077b0:	1000ff98 	b	9d007614 <decfloat+0x9c>
9d0077b4:	90420000 	lbu	v0,0(v0)
9d0077b8:	00be382b 	sltu	a3,a1,s8
9d0077bc:	00a0f025 	move	s8,a1
9d0077c0:	2ac5007d 	slti	a1,s6,125
9d0077c4:	10a00015 	beqz	a1,9d00781c <decfloat+0x2a4>
9d0077c8:	00e63021 	addu	a2,a3,a2
9d0077cc:	38420030 	xori	v0,v0,0x30
9d0077d0:	03c2b80b 	movn	s7,s8,v0
9d0077d4:	12a00007 	beqz	s5,9d0077f4 <decfloat+0x27c>
9d0077d8:	00161080 	sll	v0,s6,0x2
9d0077dc:	27a30010 	addiu	v1,sp,16
9d0077e0:	00622821 	addu	a1,v1,v0
9d0077e4:	8ca50000 	lw	a1,0(a1)
9d0077e8:	2407000a 	li	a3,10
9d0077ec:	70e51802 	mul	v1,a3,a1
9d0077f0:	00642021 	addu	a0,v1,a0
9d0077f4:	27a30010 	addiu	v1,sp,16
9d0077f8:	00621021 	addu	v0,v1,v0
9d0077fc:	ac440000 	sw	a0,0(v0)
9d007800:	26b50001 	addiu	s5,s5,1
9d007804:	24020009 	li	v0,9
9d007808:	16a2ffe3 	bne	s5,v0,9d007798 <decfloat+0x220>
9d00780c:	24130001 	li	s3,1
9d007810:	26d60001 	addiu	s6,s6,1
9d007814:	1000ffe0 	b	9d007798 <decfloat+0x220>
9d007818:	0000a825 	move	s5,zero
9d00781c:	24040030 	li	a0,48
9d007820:	1044ffdd 	beq	v0,a0,9d007798 <decfloat+0x220>
9d007824:	8fa20200 	lw	v0,512(sp)
9d007828:	2417045c 	li	s7,1116
9d00782c:	34420001 	ori	v0,v0,0x1
9d007830:	1000ffd9 	b	9d007798 <decfloat+0x220>
9d007834:	afa20200 	sw	v0,512(sp)
9d007838:	02202025 	move	a0,s1
9d00783c:	0f403a56 	jal	9d00e958 <__shgetc>
9d007840:	afa60210 	sw	a2,528(sp)
9d007844:	1000ff73 	b	9d007614 <decfloat+0x9c>
9d007848:	8fa60210 	lw	a2,528(sp)
9d00784c:	1000ff7a 	b	9d007638 <decfloat+0xc0>
9d007850:	2402002e 	li	v0,46
9d007854:	17d00016 	bne	s8,s0,9d0078b0 <decfloat+0x338>
9d007858:	8fa2025c 	lw	v0,604(sp)
9d00785c:	14d40015 	bne	a2,s4,9d0078b4 <decfloat+0x33c>
9d007860:	8fa3025c 	lw	v1,604(sp)
9d007864:	1e800014 	bgtz	s4,9d0078b8 <decfloat+0x340>
9d007868:	000217c2 	srl	v0,v0,0x1f
9d00786c:	16800003 	bnez	s4,9d00787c <decfloat+0x304>
9d007870:	2e02000a 	sltiu	v0,s0,10
9d007874:	1040000f 	beqz	v0,9d0078b4 <decfloat+0x33c>
9d007878:	8fa2025c 	lw	v0,604(sp)
9d00787c:	8fa20258 	lw	v0,600(sp)
9d007880:	2842001f 	slti	v0,v0,31
9d007884:	10400005 	beqz	v0,9d00789c <decfloat+0x324>
9d007888:	00000000 	nop
9d00788c:	8fa20258 	lw	v0,600(sp)
9d007890:	00511006 	srlv	v0,s1,v0
9d007894:	54400006 	bnezl	v0,9d0078b0 <decfloat+0x338>
9d007898:	8fa2025c 	lw	v0,604(sp)
9d00789c:	0f403fd1 	jal	9d00ff44 <__floatunsidf>
9d0078a0:	02202025 	move	a0,s1
9d0078a4:	02403025 	move	a2,s2
9d0078a8:	1000ff89 	b	9d0076d0 <decfloat+0x158>
9d0078ac:	02603825 	move	a3,s3
9d0078b0:	8fa3025c 	lw	v1,604(sp)
9d0078b4:	000217c2 	srl	v0,v0,0x1f
9d0078b8:	00431021 	addu	v0,v0,v1
9d0078bc:	00021043 	sra	v0,v0,0x1
9d0078c0:	00021023 	negu	v0,v0
9d0078c4:	00021fc3 	sra	v1,v0,0x1f
9d0078c8:	0074202a 	slt	a0,v1,s4
9d0078cc:	54800006 	bnezl	a0,9d0078e8 <decfloat+0x370>
9d0078d0:	3c109d00 	lui	s0,0x9d00
9d0078d4:	1683000f 	bne	s4,v1,9d007914 <decfloat+0x39c>
9d0078d8:	0050102b 	sltu	v0,v0,s0
9d0078dc:	5040000e 	beqzl	v0,9d007918 <decfloat+0x3a0>
9d0078e0:	8fa2025c 	lw	v0,604(sp)
9d0078e4:	3c109d00 	lui	s0,0x9d00
9d0078e8:	8e0674e8 	lw	a2,29928(s0)
9d0078ec:	8e0774ec 	lw	a3,29932(s0)
9d0078f0:	3c02a000 	lui	v0,0xa000
9d0078f4:	24030022 	li	v1,34
9d0078f8:	ac4316f0 	sw	v1,5872(v0)
9d0078fc:	02402025 	move	a0,s2
9d007900:	0f4030ed 	jal	9d00c3b4 <__muldf3>
9d007904:	02602825 	move	a1,s3
9d007908:	8e0674e8 	lw	a2,29928(s0)
9d00790c:	1000ff70 	b	9d0076d0 <decfloat+0x158>
9d007910:	8e0774ec 	lw	a3,29932(s0)
9d007914:	8fa2025c 	lw	v0,604(sp)
9d007918:	2442ff96 	addiu	v0,v0,-106
9d00791c:	00021fc3 	sra	v1,v0,0x1f
9d007920:	0283202a 	slt	a0,s4,v1
9d007924:	54800006 	bnezl	a0,9d007940 <decfloat+0x3c8>
9d007928:	3c109d00 	lui	s0,0x9d00
9d00792c:	1474000f 	bne	v1,s4,9d00796c <decfloat+0x3f4>
9d007930:	0202102b 	sltu	v0,s0,v0
9d007934:	1040000d 	beqz	v0,9d00796c <decfloat+0x3f4>
9d007938:	00000000 	nop
9d00793c:	3c109d00 	lui	s0,0x9d00
9d007940:	8e0674f0 	lw	a2,29936(s0)
9d007944:	8e0774f4 	lw	a3,29940(s0)
9d007948:	3c02a000 	lui	v0,0xa000
9d00794c:	24030022 	li	v1,34
9d007950:	ac4316f0 	sw	v1,5872(v0)
9d007954:	02402025 	move	a0,s2
9d007958:	0f4030ed 	jal	9d00c3b4 <__muldf3>
9d00795c:	02602825 	move	a1,s3
9d007960:	8e0674f0 	lw	a2,29936(s0)
9d007964:	1000ff5a 	b	9d0076d0 <decfloat+0x158>
9d007968:	8e0774f4 	lw	a3,29940(s0)
9d00796c:	12a00008 	beqz	s5,9d007990 <decfloat+0x418>
9d007970:	00161080 	sll	v0,s6,0x2
9d007974:	27a30010 	addiu	v1,sp,16
9d007978:	00621021 	addu	v0,v1,v0
9d00797c:	2404000a 	li	a0,10
9d007980:	2aa30009 	slti	v1,s5,9
9d007984:	54600027 	bnezl	v1,9d007a24 <decfloat+0x4ac>
9d007988:	8c430000 	lw	v1,0(v0)
9d00798c:	26d60001 	addiu	s6,s6,1
9d007990:	2ae20009 	slti	v0,s7,9
9d007994:	10400047 	beqz	v0,9d007ab4 <decfloat+0x53c>
9d007998:	0200a025 	move	s4,s0
9d00799c:	0217b82a 	slt	s7,s0,s7
9d0079a0:	16e00044 	bnez	s7,9d007ab4 <decfloat+0x53c>
9d0079a4:	2a020012 	slti	v0,s0,18
9d0079a8:	10400042 	beqz	v0,9d007ab4 <decfloat+0x53c>
9d0079ac:	24020009 	li	v0,9
9d0079b0:	1202ffba 	beq	s0,v0,9d00789c <decfloat+0x324>
9d0079b4:	8fb10010 	lw	s1,16(sp)
9d0079b8:	2a020009 	slti	v0,s0,9
9d0079bc:	5040001d 	beqzl	v0,9d007a34 <decfloat+0x4bc>
9d0079c0:	2602fff7 	addiu	v0,s0,-9
9d0079c4:	0f403fd1 	jal	9d00ff44 <__floatunsidf>
9d0079c8:	02202025 	move	a0,s1
9d0079cc:	00602825 	move	a1,v1
9d0079d0:	02403025 	move	a2,s2
9d0079d4:	02603825 	move	a3,s3
9d0079d8:	0f4030ed 	jal	9d00c3b4 <__muldf3>
9d0079dc:	00402025 	move	a0,v0
9d0079e0:	00409025 	move	s2,v0
9d0079e4:	24020008 	li	v0,8
9d0079e8:	00508023 	subu	s0,v0,s0
9d0079ec:	3c029d01 	lui	v0,0x9d01
9d0079f0:	24420228 	addiu	v0,v0,552
9d0079f4:	00108080 	sll	s0,s0,0x2
9d0079f8:	02028021 	addu	s0,s0,v0
9d0079fc:	8e040000 	lw	a0,0(s0)
9d007a00:	0f403df0 	jal	9d00f7c0 <__floatsidf>
9d007a04:	00609825 	move	s3,v1
9d007a08:	00403025 	move	a2,v0
9d007a0c:	00603825 	move	a3,v1
9d007a10:	02402025 	move	a0,s2
9d007a14:	0f4028a3 	jal	9d00a28c <__divdf3>
9d007a18:	02602825 	move	a1,s3
9d007a1c:	10000224 	b	9d0082b0 <decfloat+0xd38>
9d007a20:	8fbf024c 	lw	ra,588(sp)
9d007a24:	26b50001 	addiu	s5,s5,1
9d007a28:	70641802 	mul	v1,v1,a0
9d007a2c:	1000ffd4 	b	9d007980 <decfloat+0x408>
9d007a30:	ac430000 	sw	v1,0(v0)
9d007a34:	00021880 	sll	v1,v0,0x2
9d007a38:	00431023 	subu	v0,v0,v1
9d007a3c:	8fa30258 	lw	v1,600(sp)
9d007a40:	00431021 	addu	v0,v0,v1
9d007a44:	2843001f 	slti	v1,v0,31
9d007a48:	50600005 	beqzl	v1,9d007a60 <decfloat+0x4e8>
9d007a4c:	2610fff6 	addiu	s0,s0,-10
9d007a50:	00511006 	srlv	v0,s1,v0
9d007a54:	54400018 	bnezl	v0,9d007ab8 <decfloat+0x540>
9d007a58:	26c3ffff 	addiu	v1,s6,-1
9d007a5c:	2610fff6 	addiu	s0,s0,-10
9d007a60:	3c029d01 	lui	v0,0x9d01
9d007a64:	24420228 	addiu	v0,v0,552
9d007a68:	00108080 	sll	s0,s0,0x2
9d007a6c:	02028021 	addu	s0,s0,v0
9d007a70:	0f403df0 	jal	9d00f7c0 <__floatsidf>
9d007a74:	8e040000 	lw	a0,0(s0)
9d007a78:	02202025 	move	a0,s1
9d007a7c:	0040a025 	move	s4,v0
9d007a80:	0f403fd1 	jal	9d00ff44 <__floatunsidf>
9d007a84:	0060a825 	move	s5,v1
9d007a88:	00402025 	move	a0,v0
9d007a8c:	02403025 	move	a2,s2
9d007a90:	02603825 	move	a3,s3
9d007a94:	0f4030ed 	jal	9d00c3b4 <__muldf3>
9d007a98:	00602825 	move	a1,v1
9d007a9c:	00403025 	move	a2,v0
9d007aa0:	00603825 	move	a3,v1
9d007aa4:	02802025 	move	a0,s4
9d007aa8:	1000ff0b 	b	9d0076d8 <decfloat+0x160>
9d007aac:	02a02825 	move	a1,s5
9d007ab0:	0060b025 	move	s6,v1
9d007ab4:	26c3ffff 	addiu	v1,s6,-1
9d007ab8:	00031080 	sll	v0,v1,0x2
9d007abc:	27a40010 	addiu	a0,sp,16
9d007ac0:	00821021 	addu	v0,a0,v0
9d007ac4:	8c420000 	lw	v0,0(v0)
9d007ac8:	1040fff9 	beqz	v0,9d007ab0 <decfloat+0x538>
9d007acc:	24090009 	li	t1,9
9d007ad0:	0209001a 	div	zero,s0,t1
9d007ad4:	012001f4 	teq	t1,zero,0x7
9d007ad8:	00004810 	mfhi	t1
9d007adc:	1120001c 	beqz	t1,9d007b50 <decfloat+0x5d8>
9d007ae0:	3c0c0089 	lui	t4,0x89
9d007ae4:	06020001 	bltzl	s0,9d007aec <decfloat+0x574>
9d007ae8:	25290009 	addiu	t1,t1,9
9d007aec:	24020008 	li	v0,8
9d007af0:	00491023 	subu	v0,v0,t1
9d007af4:	3c039d01 	lui	v1,0x9d01
9d007af8:	24630228 	addiu	v1,v1,552
9d007afc:	00021080 	sll	v0,v0,0x2
9d007b00:	00431021 	addu	v0,v0,v1
9d007b04:	8c460000 	lw	a2,0(v0)
9d007b08:	3c073b9a 	lui	a3,0x3b9a
9d007b0c:	27a50010 	addiu	a1,sp,16
9d007b10:	00001825 	move	v1,zero
9d007b14:	00005025 	move	t2,zero
9d007b18:	00002025 	move	a0,zero
9d007b1c:	34e7ca00 	ori	a3,a3,0xca00
9d007b20:	54960052 	bnel	a0,s6,9d007c6c <decfloat+0x6f4>
9d007b24:	8ca20000 	lw	v0,0(a1)
9d007b28:	10600005 	beqz	v1,9d007b40 <decfloat+0x5c8>
9d007b2c:	00161080 	sll	v0,s6,0x2
9d007b30:	27a40010 	addiu	a0,sp,16
9d007b34:	00821021 	addu	v0,a0,v0
9d007b38:	ac430000 	sw	v1,0(v0)
9d007b3c:	26d60001 	addiu	s6,s6,1
9d007b40:	0289a023 	subu	s4,s4,t1
9d007b44:	26940009 	addiu	s4,s4,9
9d007b48:	01404825 	move	t1,t2
9d007b4c:	3c0c0089 	lui	t4,0x89
9d007b50:	3c103b9a 	lui	s0,0x3b9a
9d007b54:	3c0d3b9a 	lui	t5,0x3b9a
9d007b58:	0000b825 	move	s7,zero
9d007b5c:	240e0012 	li	t6,18
9d007b60:	258c705f 	addiu	t4,t4,28767
9d007b64:	3610ca00 	ori	s0,s0,0xca00
9d007b68:	00008825 	move	s1,zero
9d007b6c:	35adca01 	ori	t5,t5,0xca01
9d007b70:	2a820012 	slti	v0,s4,18
9d007b74:	14400050 	bnez	v0,9d007cb8 <decfloat+0x740>
9d007b78:	26d5ffff 	addiu	s5,s6,-1
9d007b7c:	168e0007 	bne	s4,t6,9d007b9c <decfloat+0x624>
9d007b80:	00091080 	sll	v0,t1,0x2
9d007b84:	27a30010 	addiu	v1,sp,16
9d007b88:	00621021 	addu	v0,v1,v0
9d007b8c:	8c420000 	lw	v0,0(v0)
9d007b90:	004c102b 	sltu	v0,v0,t4
9d007b94:	14400049 	bnez	v0,9d007cbc <decfloat+0x744>
9d007b98:	32b5007f 	andi	s5,s5,0x7f
9d007b9c:	3c040089 	lui	a0,0x89
9d007ba0:	3c050f2f 	lui	a1,0xf2f
9d007ba4:	3c063b9a 	lui	a2,0x3b9a
9d007ba8:	240a0012 	li	t2,18
9d007bac:	2484705f 	addiu	a0,a0,28767
9d007bb0:	24a50a00 	addiu	a1,a1,2560
9d007bb4:	24070001 	li	a3,1
9d007bb8:	240b0009 	li	t3,9
9d007bbc:	34c6ca00 	ori	a2,a2,0xca00
9d007bc0:	11360012 	beq	t1,s6,9d007c0c <decfloat+0x694>
9d007bc4:	27a30010 	addiu	v1,sp,16
9d007bc8:	00091080 	sll	v0,t1,0x2
9d007bcc:	00621021 	addu	v0,v1,v0
9d007bd0:	8c420000 	lw	v0,0(v0)
9d007bd4:	0044182b 	sltu	v1,v0,a0
9d007bd8:	1460000c 	bnez	v1,9d007c0c <decfloat+0x694>
9d007bdc:	00000000 	nop
9d007be0:	1444000c 	bne	v0,a0,9d007c14 <decfloat+0x69c>
9d007be4:	25220001 	addiu	v0,t1,1
9d007be8:	3042007f 	andi	v0,v0,0x7f
9d007bec:	12c20007 	beq	s6,v0,9d007c0c <decfloat+0x694>
9d007bf0:	00021080 	sll	v0,v0,0x2
9d007bf4:	27a30010 	addiu	v1,sp,16
9d007bf8:	00621021 	addu	v0,v1,v0
9d007bfc:	8c420000 	lw	v0,0(v0)
9d007c00:	0045102b 	sltu	v0,v0,a1
9d007c04:	10400004 	beqz	v0,9d007c18 <decfloat+0x6a0>
9d007c08:	2a83001c 	slti	v1,s4,28
9d007c0c:	128a0093 	beq	s4,t2,9d007e5c <decfloat+0x8e4>
9d007c10:	00000000 	nop
9d007c14:	2a83001c 	slti	v1,s4,28
9d007c18:	01601025 	move	v0,t3
9d007c1c:	00e3100b 	movn	v0,a3,v1
9d007c20:	0047c004 	sllv	t8,a3,v0
9d007c24:	00401825 	move	v1,v0
9d007c28:	0046c807 	srav	t9,a2,v0
9d007c2c:	2718ffff 	addiu	t8,t8,-1
9d007c30:	01201025 	move	v0,t1
9d007c34:	00006025 	move	t4,zero
9d007c38:	5456006d 	bnel	v0,s6,9d007df0 <decfloat+0x878>
9d007c3c:	00027080 	sll	t6,v0,0x2
9d007c40:	11800008 	beqz	t4,9d007c64 <decfloat+0x6ec>
9d007c44:	26c20001 	addiu	v0,s6,1
9d007c48:	3042007f 	andi	v0,v0,0x7f
9d007c4c:	1049007a 	beq	v0,t1,9d007e38 <decfloat+0x8c0>
9d007c50:	00164080 	sll	t0,s6,0x2
9d007c54:	27ad0010 	addiu	t5,sp,16
9d007c58:	01a84021 	addu	t0,t5,t0
9d007c5c:	ad0c0000 	sw	t4,0(t0)
9d007c60:	0040b025 	move	s6,v0
9d007c64:	1000ffd6 	b	9d007bc0 <decfloat+0x648>
9d007c68:	02e3b821 	addu	s7,s7,v1
9d007c6c:	248b0001 	addiu	t3,a0,1
9d007c70:	0046001b 	divu	zero,v0,a2
9d007c74:	00c001f4 	teq	a2,zero,0x7
9d007c78:	00001012 	mflo	v0
9d007c7c:	00431021 	addu	v0,v0,v1
9d007c80:	148a0005 	bne	a0,t2,9d007c98 <decfloat+0x720>
9d007c84:	00006010 	mfhi	t4
9d007c88:	14400003 	bnez	v0,9d007c98 <decfloat+0x720>
9d007c8c:	00000000 	nop
9d007c90:	316a007f 	andi	t2,t3,0x7f
9d007c94:	2694fff7 	addiu	s4,s4,-9
9d007c98:	00e6001a 	div	zero,a3,a2
9d007c9c:	00c001f4 	teq	a2,zero,0x7
9d007ca0:	aca20000 	sw	v0,0(a1)
9d007ca4:	01602025 	move	a0,t3
9d007ca8:	24a50004 	addiu	a1,a1,4
9d007cac:	00001012 	mflo	v0
9d007cb0:	1000ff9b 	b	9d007b20 <decfloat+0x5a8>
9d007cb4:	704c1802 	mul	v1,v0,t4
9d007cb8:	32b5007f 	andi	s5,s5,0x7f
9d007cbc:	00005025 	move	t2,zero
9d007cc0:	00155880 	sll	t3,s5,0x2
9d007cc4:	27a20010 	addiu	v0,sp,16
9d007cc8:	004b1021 	addu	v0,v0,t3
9d007ccc:	8c5e0000 	lw	s8,0(v0)
9d007cd0:	001e10c2 	srl	v0,s8,0x3
9d007cd4:	001ef740 	sll	s8,s8,0x1d
9d007cd8:	03ca7821 	addu	t7,s8,t2
9d007cdc:	01fef02b 	sltu	s8,t7,s8
9d007ce0:	03c2f021 	addu	s8,s8,v0
9d007ce4:	17c00003 	bnez	s8,9d007cf4 <decfloat+0x77c>
9d007ce8:	01ed102b 	sltu	v0,t7,t5
9d007cec:	14400024 	bnez	v0,9d007d80 <decfloat+0x808>
9d007cf0:	01e01025 	move	v0,t7
9d007cf4:	01e02025 	move	a0,t7
9d007cf8:	02003025 	move	a2,s0
9d007cfc:	02203825 	move	a3,s1
9d007d00:	03c02825 	move	a1,s8
9d007d04:	afab0220 	sw	t3,544(sp)
9d007d08:	afa90218 	sw	t1,536(sp)
9d007d0c:	0f402f10 	jal	9d00bc40 <__udivdi3>
9d007d10:	afaf0214 	sw	t7,532(sp)
9d007d14:	8faf0214 	lw	t7,532(sp)
9d007d18:	02003025 	move	a2,s0
9d007d1c:	02203825 	move	a3,s1
9d007d20:	01e02025 	move	a0,t7
9d007d24:	03c02825 	move	a1,s8
9d007d28:	0f402fff 	jal	9d00bffc <__umoddi3>
9d007d2c:	afa20210 	sw	v0,528(sp)
9d007d30:	3c030089 	lui	v1,0x89
9d007d34:	8faa0210 	lw	t2,528(sp)
9d007d38:	8fa90218 	lw	t1,536(sp)
9d007d3c:	8fab0220 	lw	t3,544(sp)
9d007d40:	346c705f 	ori	t4,v1,0x705f
9d007d44:	3c033b9a 	lui	v1,0x3b9a
9d007d48:	240e0012 	li	t6,18
9d007d4c:	346dca01 	ori	t5,v1,0xca01
9d007d50:	27a30010 	addiu	v1,sp,16
9d007d54:	006b5821 	addu	t3,v1,t3
9d007d58:	26c3ffff 	addiu	v1,s6,-1
9d007d5c:	3063007f 	andi	v1,v1,0x7f
9d007d60:	14750009 	bne	v1,s5,9d007d88 <decfloat+0x810>
9d007d64:	ad620000 	sw	v0,0(t3)
9d007d68:	52a90009 	beql	s5,t1,9d007d90 <decfloat+0x818>
9d007d6c:	01201825 	move	v1,t1
9d007d70:	02a2b00a 	movz	s6,s5,v0
9d007d74:	26b5ffff 	addiu	s5,s5,-1
9d007d78:	1000ffd1 	b	9d007cc0 <decfloat+0x748>
9d007d7c:	32b5007f 	andi	s5,s5,0x7f
9d007d80:	1000fff3 	b	9d007d50 <decfloat+0x7d8>
9d007d84:	00005025 	move	t2,zero
9d007d88:	56a9fffb 	bnel	s5,t1,9d007d78 <decfloat+0x800>
9d007d8c:	26b5ffff 	addiu	s5,s5,-1
9d007d90:	5140ff77 	beqzl	t2,9d007b70 <decfloat+0x5f8>
9d007d94:	26f7ffe3 	addiu	s7,s7,-29
9d007d98:	2529ffff 	addiu	t1,t1,-1
9d007d9c:	3129007f 	andi	t1,t1,0x7f
9d007da0:	16c9000c 	bne	s6,t1,9d007dd4 <decfloat+0x85c>
9d007da4:	2462ffff 	addiu	v0,v1,-1
9d007da8:	3042007f 	andi	v0,v0,0x7f
9d007dac:	27a40010 	addiu	a0,sp,16
9d007db0:	00021080 	sll	v0,v0,0x2
9d007db4:	00032880 	sll	a1,v1,0x2
9d007db8:	00821021 	addu	v0,a0,v0
9d007dbc:	00852821 	addu	a1,a0,a1
9d007dc0:	8ca50000 	lw	a1,0(a1)
9d007dc4:	8c440000 	lw	a0,0(v0)
9d007dc8:	0060b025 	move	s6,v1
9d007dcc:	00852025 	or	a0,a0,a1
9d007dd0:	ac440000 	sw	a0,0(v0)
9d007dd4:	00091080 	sll	v0,t1,0x2
9d007dd8:	27a30010 	addiu	v1,sp,16
9d007ddc:	00621021 	addu	v0,v1,v0
9d007de0:	26940009 	addiu	s4,s4,9
9d007de4:	ac4a0000 	sw	t2,0(v0)
9d007de8:	1000ff61 	b	9d007b70 <decfloat+0x5f8>
9d007dec:	26f7ffe3 	addiu	s7,s7,-29
9d007df0:	27a80010 	addiu	t0,sp,16
9d007df4:	010e6821 	addu	t5,t0,t6
9d007df8:	8dad0000 	lw	t5,0(t5)
9d007dfc:	006d7806 	srlv	t7,t5,v1
9d007e00:	01ec6021 	addu	t4,t7,t4
9d007e04:	14490005 	bne	v0,t1,9d007e1c <decfloat+0x8a4>
9d007e08:	244f0001 	addiu	t7,v0,1
9d007e0c:	55800004 	bnezl	t4,9d007e20 <decfloat+0x8a8>
9d007e10:	27a20010 	addiu	v0,sp,16
9d007e14:	31e9007f 	andi	t1,t7,0x7f
9d007e18:	2694fff7 	addiu	s4,s4,-9
9d007e1c:	27a20010 	addiu	v0,sp,16
9d007e20:	004e7021 	addu	t6,v0,t6
9d007e24:	adcc0000 	sw	t4,0(t6)
9d007e28:	030d6024 	and	t4,t8,t5
9d007e2c:	71996002 	mul	t4,t4,t9
9d007e30:	1000ff81 	b	9d007c38 <decfloat+0x6c0>
9d007e34:	31e2007f 	andi	v0,t7,0x7f
9d007e38:	26c2ffff 	addiu	v0,s6,-1
9d007e3c:	3042007f 	andi	v0,v0,0x7f
9d007e40:	00021080 	sll	v0,v0,0x2
9d007e44:	27a80010 	addiu	t0,sp,16
9d007e48:	01021021 	addu	v0,t0,v0
9d007e4c:	8c4c0000 	lw	t4,0(v0)
9d007e50:	358c0001 	ori	t4,t4,0x1
9d007e54:	1000ff83 	b	9d007c64 <decfloat+0x6ec>
9d007e58:	ac4c0000 	sw	t4,0(v0)
9d007e5c:	15360007 	bne	t1,s6,9d007e7c <decfloat+0x904>
9d007e60:	25340001 	addiu	s4,t1,1
9d007e64:	3296007f 	andi	s6,s4,0x7f
9d007e68:	26c2ffff 	addiu	v0,s6,-1
9d007e6c:	00021080 	sll	v0,v0,0x2
9d007e70:	27a30010 	addiu	v1,sp,16
9d007e74:	00621021 	addu	v0,v1,v0
9d007e78:	ac400000 	sw	zero,0(v0)
9d007e7c:	00091080 	sll	v0,t1,0x2
9d007e80:	27a30010 	addiu	v1,sp,16
9d007e84:	00621021 	addu	v0,v1,v0
9d007e88:	8c440000 	lw	a0,0(v0)
9d007e8c:	afa90210 	sw	t1,528(sp)
9d007e90:	0f403fd1 	jal	9d00ff44 <__floatunsidf>
9d007e94:	3294007f 	andi	s4,s4,0x7f
9d007e98:	00402025 	move	a0,v0
9d007e9c:	00602825 	move	a1,v1
9d007ea0:	00003025 	move	a2,zero
9d007ea4:	0f402d06 	jal	9d00b418 <__adddf3>
9d007ea8:	00003825 	move	a3,zero
9d007eac:	00402025 	move	a0,v0
9d007eb0:	00602825 	move	a1,v1
9d007eb4:	16d40008 	bne	s6,s4,9d007ed8 <decfloat+0x960>
9d007eb8:	8fa90210 	lw	t1,528(sp)
9d007ebc:	26c80001 	addiu	t0,s6,1
9d007ec0:	3116007f 	andi	s6,t0,0x7f
9d007ec4:	26c3ffff 	addiu	v1,s6,-1
9d007ec8:	00031880 	sll	v1,v1,0x2
9d007ecc:	27a20010 	addiu	v0,sp,16
9d007ed0:	00431821 	addu	v1,v0,v1
9d007ed4:	ac600000 	sw	zero,0(v1)
9d007ed8:	3c029d00 	lui	v0,0x9d00
9d007edc:	8c4674f8 	lw	a2,29944(v0)
9d007ee0:	8c4774fc 	lw	a3,29948(v0)
9d007ee4:	afa90210 	sw	t1,528(sp)
9d007ee8:	0f4030ed 	jal	9d00c3b4 <__muldf3>
9d007eec:	0014a080 	sll	s4,s4,0x2
9d007ef0:	00408025 	move	s0,v0
9d007ef4:	27a20010 	addiu	v0,sp,16
9d007ef8:	0054a021 	addu	s4,v0,s4
9d007efc:	8e840000 	lw	a0,0(s4)
9d007f00:	0f403fd1 	jal	9d00ff44 <__floatunsidf>
9d007f04:	00608825 	move	s1,v1
9d007f08:	00402025 	move	a0,v0
9d007f0c:	02003025 	move	a2,s0
9d007f10:	02203825 	move	a3,s1
9d007f14:	0f402d06 	jal	9d00b418 <__adddf3>
9d007f18:	00602825 	move	a1,v1
9d007f1c:	00403025 	move	a2,v0
9d007f20:	00603825 	move	a3,v1
9d007f24:	02402025 	move	a0,s2
9d007f28:	0f4030ed 	jal	9d00c3b4 <__muldf3>
9d007f2c:	02602825 	move	a1,s3
9d007f30:	0060a825 	move	s5,v1
9d007f34:	8fa3025c 	lw	v1,604(sp)
9d007f38:	0040a025 	move	s4,v0
9d007f3c:	26e20035 	addiu	v0,s7,53
9d007f40:	00431023 	subu	v0,v0,v1
9d007f44:	8fa30258 	lw	v1,600(sp)
9d007f48:	afa20214 	sw	v0,532(sp)
9d007f4c:	0043102a 	slt	v0,v0,v1
9d007f50:	104000b3 	beqz	v0,9d008220 <decfloat+0xca8>
9d007f54:	8fa90210 	lw	t1,528(sp)
9d007f58:	8fa20214 	lw	v0,532(sp)
9d007f5c:	044200b3 	bltzl	v0,9d00822c <decfloat+0xcb4>
9d007f60:	24020001 	li	v0,1
9d007f64:	0040f025 	move	s8,v0
9d007f68:	24020001 	li	v0,1
9d007f6c:	afa20210 	sw	v0,528(sp)
9d007f70:	2bc20035 	slti	v0,s8,53
9d007f74:	afa00218 	sw	zero,536(sp)
9d007f78:	afa0021c 	sw	zero,540(sp)
9d007f7c:	00008025 	move	s0,zero
9d007f80:	1040002a 	beqz	v0,9d00802c <decfloat+0xab4>
9d007f84:	00008825 	move	s1,zero
9d007f88:	3c029d00 	lui	v0,0x9d00
9d007f8c:	8c507500 	lw	s0,29952(v0)
9d007f90:	8c517504 	lw	s1,29956(v0)
9d007f94:	24060069 	li	a2,105
9d007f98:	02002025 	move	a0,s0
9d007f9c:	02202825 	move	a1,s1
9d007fa0:	00de3023 	subu	a2,a2,s8
9d007fa4:	0f4038e4 	jal	9d00e390 <scalbn>
9d007fa8:	afa90220 	sw	t1,544(sp)
9d007fac:	00402025 	move	a0,v0
9d007fb0:	02a03825 	move	a3,s5
9d007fb4:	02803025 	move	a2,s4
9d007fb8:	0f4040b3 	jal	9d0102cc <copysignl>
9d007fbc:	00602825 	move	a1,v1
9d007fc0:	24060035 	li	a2,53
9d007fc4:	02002025 	move	a0,s0
9d007fc8:	02202825 	move	a1,s1
9d007fcc:	00de3023 	subu	a2,a2,s8
9d007fd0:	afa20218 	sw	v0,536(sp)
9d007fd4:	0f4038e4 	jal	9d00e390 <scalbn>
9d007fd8:	afa3021c 	sw	v1,540(sp)
9d007fdc:	00403025 	move	a2,v0
9d007fe0:	02802025 	move	a0,s4
9d007fe4:	02a02825 	move	a1,s5
9d007fe8:	0f4031b8 	jal	9d00c6e0 <dpfmod>
9d007fec:	00603825 	move	a3,v1
9d007ff0:	00403025 	move	a2,v0
9d007ff4:	02802025 	move	a0,s4
9d007ff8:	02a02825 	move	a1,s5
9d007ffc:	00603825 	move	a3,v1
9d008000:	00408025 	move	s0,v0
9d008004:	0f402d04 	jal	9d00b410 <__subdf3>
9d008008:	00608825 	move	s1,v1
9d00800c:	8fa40218 	lw	a0,536(sp)
9d008010:	8fa5021c 	lw	a1,540(sp)
9d008014:	00403025 	move	a2,v0
9d008018:	0f402d06 	jal	9d00b418 <__adddf3>
9d00801c:	00603825 	move	a3,v1
9d008020:	8fa90220 	lw	t1,544(sp)
9d008024:	0040a025 	move	s4,v0
9d008028:	0060a825 	move	s5,v1
9d00802c:	25220002 	addiu	v0,t1,2
9d008030:	3042007f 	andi	v0,v0,0x7f
9d008034:	10560034 	beq	v0,s6,9d008108 <decfloat+0xb90>
9d008038:	27a30010 	addiu	v1,sp,16
9d00803c:	00021080 	sll	v0,v0,0x2
9d008040:	00621021 	addu	v0,v1,v0
9d008044:	8c430000 	lw	v1,0(v0)
9d008048:	3c021dcd 	lui	v0,0x1dcd
9d00804c:	24426500 	addiu	v0,v0,25856
9d008050:	0062202b 	sltu	a0,v1,v0
9d008054:	10800078 	beqz	a0,9d008238 <decfloat+0xcc0>
9d008058:	00000000 	nop
9d00805c:	14600004 	bnez	v1,9d008070 <decfloat+0xaf8>
9d008060:	25290003 	addiu	t1,t1,3
9d008064:	3129007f 	andi	t1,t1,0x7f
9d008068:	1136000f 	beq	t1,s6,9d0080a8 <decfloat+0xb30>
9d00806c:	24020035 	li	v0,53
9d008070:	3c029d00 	lui	v0,0x9d00
9d008074:	8c467508 	lw	a2,29960(v0)
9d008078:	8c47750c 	lw	a3,29964(v0)
9d00807c:	02402025 	move	a0,s2
9d008080:	0f4030ed 	jal	9d00c3b4 <__muldf3>
9d008084:	02602825 	move	a1,s3
9d008088:	00403025 	move	a2,v0
9d00808c:	02002025 	move	a0,s0
9d008090:	02202825 	move	a1,s1
9d008094:	0f402d06 	jal	9d00b418 <__adddf3>
9d008098:	00603825 	move	a3,v1
9d00809c:	00408025 	move	s0,v0
9d0080a0:	00608825 	move	s1,v1
9d0080a4:	24020035 	li	v0,53
9d0080a8:	005e1023 	subu	v0,v0,s8
9d0080ac:	28420002 	slti	v0,v0,2
9d0080b0:	14400015 	bnez	v0,9d008108 <decfloat+0xb90>
9d0080b4:	3c029d00 	lui	v0,0x9d00
9d0080b8:	8c527500 	lw	s2,29952(v0)
9d0080bc:	8c537504 	lw	s3,29956(v0)
9d0080c0:	02002025 	move	a0,s0
9d0080c4:	02403025 	move	a2,s2
9d0080c8:	02603825 	move	a3,s3
9d0080cc:	0f4031b8 	jal	9d00c6e0 <dpfmod>
9d0080d0:	02202825 	move	a1,s1
9d0080d4:	00402025 	move	a0,v0
9d0080d8:	00003025 	move	a2,zero
9d0080dc:	00003825 	move	a3,zero
9d0080e0:	0f40373c 	jal	9d00dcf0 <__eqdf2>
9d0080e4:	00602825 	move	a1,v1
9d0080e8:	14400007 	bnez	v0,9d008108 <decfloat+0xb90>
9d0080ec:	02002025 	move	a0,s0
9d0080f0:	02202825 	move	a1,s1
9d0080f4:	02403025 	move	a2,s2
9d0080f8:	0f402d06 	jal	9d00b418 <__adddf3>
9d0080fc:	02603825 	move	a3,s3
9d008100:	00408025 	move	s0,v0
9d008104:	00608825 	move	s1,v1
9d008108:	8fa2025c 	lw	v0,604(sp)
9d00810c:	8fa30258 	lw	v1,600(sp)
9d008110:	02003025 	move	a2,s0
9d008114:	00021023 	negu	v0,v0
9d008118:	02203825 	move	a3,s1
9d00811c:	02802025 	move	a0,s4
9d008120:	02a02825 	move	a1,s5
9d008124:	0f402d06 	jal	9d00b418 <__adddf3>
9d008128:	0043b023 	subu	s6,v0,v1
9d00812c:	8fa60218 	lw	a2,536(sp)
9d008130:	8fa7021c 	lw	a3,540(sp)
9d008134:	00402025 	move	a0,v0
9d008138:	0f402d04 	jal	9d00b410 <__subdf3>
9d00813c:	00602825 	move	a1,v1
9d008140:	00409025 	move	s2,v0
9d008144:	26e20035 	addiu	v0,s7,53
9d008148:	00609825 	move	s3,v1
9d00814c:	7c42f000 	ext	v0,v0,0x0,0x1f
9d008150:	26c3ffff 	addiu	v1,s6,-1
9d008154:	0043102a 	slt	v0,v0,v1
9d008158:	1440002c 	bnez	v0,9d00820c <decfloat+0xc94>
9d00815c:	02e03025 	move	a2,s7
9d008160:	02402025 	move	a0,s2
9d008164:	0f40418c 	jal	9d010630 <fabsl>
9d008168:	02602825 	move	a1,s3
9d00816c:	3c049d00 	lui	a0,0x9d00
9d008170:	8c867520 	lw	a2,29984(a0)
9d008174:	8c877524 	lw	a3,29988(a0)
9d008178:	00602825 	move	a1,v1
9d00817c:	0f40373c 	jal	9d00dcf0 <__eqdf2>
9d008180:	00402025 	move	a0,v0
9d008184:	0440000f 	bltz	v0,9d0081c4 <decfloat+0xc4c>
9d008188:	8fa20210 	lw	v0,528(sp)
9d00818c:	10400004 	beqz	v0,9d0081a0 <decfloat+0xc28>
9d008190:	8fa20214 	lw	v0,532(sp)
9d008194:	005ef026 	xor	s8,v0,s8
9d008198:	001e102b 	sltu	v0,zero,s8
9d00819c:	afa20210 	sw	v0,528(sp)
9d0081a0:	3c029d00 	lui	v0,0x9d00
9d0081a4:	8c467518 	lw	a2,29976(v0)
9d0081a8:	8c47751c 	lw	a3,29980(v0)
9d0081ac:	02402025 	move	a0,s2
9d0081b0:	0f4030ed 	jal	9d00c3b4 <__muldf3>
9d0081b4:	02602825 	move	a1,s3
9d0081b8:	00409025 	move	s2,v0
9d0081bc:	00609825 	move	s3,v1
9d0081c0:	26f70001 	addiu	s7,s7,1
9d0081c4:	26e20034 	addiu	v0,s7,52
9d0081c8:	26d60003 	addiu	s6,s6,3
9d0081cc:	0056b02a 	slt	s6,v0,s6
9d0081d0:	12c0000b 	beqz	s6,9d008200 <decfloat+0xc88>
9d0081d4:	3c02a000 	lui	v0,0xa000
9d0081d8:	8fa20210 	lw	v0,528(sp)
9d0081dc:	1040000a 	beqz	v0,9d008208 <decfloat+0xc90>
9d0081e0:	00003025 	move	a2,zero
9d0081e4:	00003825 	move	a3,zero
9d0081e8:	02002025 	move	a0,s0
9d0081ec:	0f40373c 	jal	9d00dcf0 <__eqdf2>
9d0081f0:	02202825 	move	a1,s1
9d0081f4:	10400005 	beqz	v0,9d00820c <decfloat+0xc94>
9d0081f8:	02e03025 	move	a2,s7
9d0081fc:	3c02a000 	lui	v0,0xa000
9d008200:	24030022 	li	v1,34
9d008204:	ac4316f0 	sw	v1,5872(v0)
9d008208:	02e03025 	move	a2,s7
9d00820c:	02402025 	move	a0,s2
9d008210:	0f404193 	jal	9d01064c <scalbnl>
9d008214:	02602825 	move	a1,s3
9d008218:	10000025 	b	9d0082b0 <decfloat+0xd38>
9d00821c:	8fbf024c 	lw	ra,588(sp)
9d008220:	8fbe0258 	lw	s8,600(sp)
9d008224:	1000ff52 	b	9d007f70 <decfloat+0x9f8>
9d008228:	afa00210 	sw	zero,528(sp)
9d00822c:	afa20210 	sw	v0,528(sp)
9d008230:	1000ff55 	b	9d007f88 <decfloat+0xa10>
9d008234:	0000f025 	move	s8,zero
9d008238:	10620005 	beq	v1,v0,9d008250 <decfloat+0xcd8>
9d00823c:	25290003 	addiu	t1,t1,3
9d008240:	3c029d00 	lui	v0,0x9d00
9d008244:	8c467510 	lw	a2,29968(v0)
9d008248:	1000ff8c 	b	9d00807c <decfloat+0xb04>
9d00824c:	8c477514 	lw	a3,29972(v0)
9d008250:	3129007f 	andi	t1,t1,0x7f
9d008254:	1536fffa 	bne	t1,s6,9d008240 <decfloat+0xcc8>
9d008258:	3c029d00 	lui	v0,0x9d00
9d00825c:	8c467518 	lw	a2,29976(v0)
9d008260:	1000ff86 	b	9d00807c <decfloat+0xb04>
9d008264:	8c47751c 	lw	a3,29980(v0)
9d008268:	04400009 	bltz	v0,9d008290 <decfloat+0xd18>
9d00826c:	3c02a000 	lui	v0,0xa000
9d008270:	8e22004c 	lw	v0,76(s1)
9d008274:	10400004 	beqz	v0,9d008288 <decfloat+0xd10>
9d008278:	00000000 	nop
9d00827c:	8e22003c 	lw	v0,60(s1)
9d008280:	2442ffff 	addiu	v0,v0,-1
9d008284:	ae22003c 	sw	v0,60(s1)
9d008288:	1660fd07 	bnez	s3,9d0076a8 <decfloat+0x130>
9d00828c:	3c02a000 	lui	v0,0xa000
9d008290:	24030016 	li	v1,22
9d008294:	ac4316f0 	sw	v1,5872(v0)
9d008298:	00002825 	move	a1,zero
9d00829c:	0f404092 	jal	9d010248 <__shlim>
9d0082a0:	02202025 	move	a0,s1
9d0082a4:	00001025 	move	v0,zero
9d0082a8:	00001825 	move	v1,zero
9d0082ac:	8fbf024c 	lw	ra,588(sp)
9d0082b0:	8fbe0248 	lw	s8,584(sp)
9d0082b4:	8fb70244 	lw	s7,580(sp)
9d0082b8:	8fb60240 	lw	s6,576(sp)
9d0082bc:	8fb5023c 	lw	s5,572(sp)
9d0082c0:	8fb40238 	lw	s4,568(sp)
9d0082c4:	8fb30234 	lw	s3,564(sp)
9d0082c8:	8fb20230 	lw	s2,560(sp)
9d0082cc:	8fb1022c 	lw	s1,556(sp)
9d0082d0:	8fb00228 	lw	s0,552(sp)
9d0082d4:	03e00008 	jr	ra
9d0082d8:	27bd0250 	addiu	sp,sp,592
9d0082dc:	0441ffe4 	bgez	v0,9d008270 <decfloat+0xcf8>
9d0082e0:	8fa40260 	lw	a0,608(sp)
9d0082e4:	1000fcf2 	b	9d0076b0 <decfloat+0x138>
9d0082e8:	8fb10010 	lw	s1,16(sp)

Disassembly of section .text.__floatscan:

9d0082ec <__floatscan>:
9d0082ec:	2ca70003 	sltiu	a3,a1,3
9d0082f0:	00001025 	move	v0,zero
9d0082f4:	10e002f8 	beqz	a3,9d008ed8 <__floatscan+0xbec>
9d0082f8:	00001825 	move	v1,zero
9d0082fc:	3c029d01 	lui	v0,0x9d01
9d008300:	24420224 	addiu	v0,v0,548
9d008304:	00a21021 	addu	v0,a1,v0
9d008308:	80420000 	lb	v0,0(v0)
9d00830c:	27bdff88 	addiu	sp,sp,-120
9d008310:	00052840 	sll	a1,a1,0x1
9d008314:	afa20024 	sw	v0,36(sp)
9d008318:	3c029d01 	lui	v0,0x9d01
9d00831c:	2442021c 	addiu	v0,v0,540
9d008320:	00a22821 	addu	a1,a1,v0
9d008324:	84a20000 	lh	v0,0(a1)
9d008328:	afb60068 	sw	s6,104(sp)
9d00832c:	afb40060 	sw	s4,96(sp)
9d008330:	afbf0074 	sw	ra,116(sp)
9d008334:	afbe0070 	sw	s8,112(sp)
9d008338:	afb7006c 	sw	s7,108(sp)
9d00833c:	afb50064 	sw	s5,100(sp)
9d008340:	afb3005c 	sw	s3,92(sp)
9d008344:	afb20058 	sw	s2,88(sp)
9d008348:	afb10054 	sw	s1,84(sp)
9d00834c:	afb00050 	sw	s0,80(sp)
9d008350:	00c0b025 	move	s6,a2
9d008354:	0080a025 	move	s4,a0
9d008358:	afa20018 	sw	v0,24(sp)
9d00835c:	8e82003c 	lw	v0,60(s4)
9d008360:	8e83004c 	lw	v1,76(s4)
9d008364:	0043182b 	sltu	v1,v0,v1
9d008368:	10600036 	beqz	v1,9d008444 <__floatscan+0x158>
9d00836c:	24430001 	addiu	v1,v0,1
9d008370:	ae83003c 	sw	v1,60(s4)
9d008374:	90520000 	lbu	s2,0(v0)
9d008378:	24020020 	li	v0,32
9d00837c:	1242fff7 	beq	s2,v0,9d00835c <__floatscan+0x70>
9d008380:	2642fff7 	addiu	v0,s2,-9
9d008384:	2c420005 	sltiu	v0,v0,5
9d008388:	1440fff4 	bnez	v0,9d00835c <__floatscan+0x70>
9d00838c:	2402002b 	li	v0,43
9d008390:	12420005 	beq	s2,v0,9d0083a8 <__floatscan+0xbc>
9d008394:	00001025 	move	v0,zero
9d008398:	2402002d 	li	v0,45
9d00839c:	1642000b 	bne	s2,v0,9d0083cc <__floatscan+0xe0>
9d0083a0:	24110001 	li	s1,1
9d0083a4:	24020002 	li	v0,2
9d0083a8:	24110001 	li	s1,1
9d0083ac:	02228823 	subu	s1,s1,v0
9d0083b0:	8e83004c 	lw	v1,76(s4)
9d0083b4:	8e82003c 	lw	v0,60(s4)
9d0083b8:	0043182b 	sltu	v1,v0,v1
9d0083bc:	10600025 	beqz	v1,9d008454 <__floatscan+0x168>
9d0083c0:	24430001 	addiu	v1,v0,1
9d0083c4:	ae83003c 	sw	v1,60(s4)
9d0083c8:	90520000 	lbu	s2,0(v0)
9d0083cc:	3c139d00 	lui	s3,0x9d00
9d0083d0:	00008025 	move	s0,zero
9d0083d4:	267374d4 	addiu	s3,s3,29908
9d0083d8:	02701821 	addu	v1,s3,s0
9d0083dc:	80630000 	lb	v1,0(v1)
9d0083e0:	36420020 	ori	v0,s2,0x20
9d0083e4:	1043001f 	beq	v0,v1,9d008464 <__floatscan+0x178>
9d0083e8:	24020003 	li	v0,3
9d0083ec:	12020005 	beq	s0,v0,9d008404 <__floatscan+0x118>
9d0083f0:	2e020004 	sltiu	v0,s0,4
9d0083f4:	1440003f 	bnez	v0,9d0084f4 <__floatscan+0x208>
9d0083f8:	00000000 	nop
9d0083fc:	52c000ef 	beqzl	s6,9d0087bc <__floatscan+0x4d0>
9d008400:	8e82004c 	lw	v0,76(s4)
9d008404:	8e83004c 	lw	v1,76(s4)
9d008408:	10600004 	beqz	v1,9d00841c <__floatscan+0x130>
9d00840c:	00000000 	nop
9d008410:	8e82003c 	lw	v0,60(s4)
9d008414:	2442ffff 	addiu	v0,v0,-1
9d008418:	ae82003c 	sw	v0,60(s4)
9d00841c:	12c0001f 	beqz	s6,9d00849c <__floatscan+0x1b0>
9d008420:	24040003 	li	a0,3
9d008424:	1204001e 	beq	s0,a0,9d0084a0 <__floatscan+0x1b4>
9d008428:	2402ffff 	li	v0,-1
9d00842c:	1060fffd 	beqz	v1,9d008424 <__floatscan+0x138>
9d008430:	2610ffff 	addiu	s0,s0,-1
9d008434:	8e82003c 	lw	v0,60(s4)
9d008438:	2442ffff 	addiu	v0,v0,-1
9d00843c:	1000fff9 	b	9d008424 <__floatscan+0x138>
9d008440:	ae82003c 	sw	v0,60(s4)
9d008444:	0f403a56 	jal	9d00e958 <__shgetc>
9d008448:	02802025 	move	a0,s4
9d00844c:	1000ffca 	b	9d008378 <__floatscan+0x8c>
9d008450:	00409025 	move	s2,v0
9d008454:	0f403a56 	jal	9d00e958 <__shgetc>
9d008458:	02802025 	move	a0,s4
9d00845c:	1000ffdb 	b	9d0083cc <__floatscan+0xe0>
9d008460:	00409025 	move	s2,v0
9d008464:	24020007 	li	v0,7
9d008468:	52020009 	beql	s0,v0,9d008490 <__floatscan+0x1a4>
9d00846c:	26100001 	addiu	s0,s0,1
9d008470:	8e82003c 	lw	v0,60(s4)
9d008474:	8e83004c 	lw	v1,76(s4)
9d008478:	0043182b 	sltu	v1,v0,v1
9d00847c:	10600019 	beqz	v1,9d0084e4 <__floatscan+0x1f8>
9d008480:	24430001 	addiu	v1,v0,1
9d008484:	ae83003c 	sw	v1,60(s4)
9d008488:	90520000 	lbu	s2,0(v0)
9d00848c:	26100001 	addiu	s0,s0,1
9d008490:	24020008 	li	v0,8
9d008494:	1602ffd1 	bne	s0,v0,9d0083dc <__floatscan+0xf0>
9d008498:	02701821 	addu	v1,s3,s0
9d00849c:	2402ffff 	li	v0,-1
9d0084a0:	12220282 	beq	s1,v0,9d008eac <__floatscan+0xbc0>
9d0084a4:	3c029d00 	lui	v0,0x9d00
9d0084a8:	3c029d00 	lui	v0,0x9d00
9d0084ac:	8c43753c 	lw	v1,30012(v0)
9d0084b0:	8c427538 	lw	v0,30008(v0)
9d0084b4:	8fbf0074 	lw	ra,116(sp)
9d0084b8:	8fbe0070 	lw	s8,112(sp)
9d0084bc:	8fb7006c 	lw	s7,108(sp)
9d0084c0:	8fb60068 	lw	s6,104(sp)
9d0084c4:	8fb50064 	lw	s5,100(sp)
9d0084c8:	8fb40060 	lw	s4,96(sp)
9d0084cc:	8fb3005c 	lw	s3,92(sp)
9d0084d0:	8fb20058 	lw	s2,88(sp)
9d0084d4:	8fb10054 	lw	s1,84(sp)
9d0084d8:	8fb00050 	lw	s0,80(sp)
9d0084dc:	03e00008 	jr	ra
9d0084e0:	27bd0078 	addiu	sp,sp,120
9d0084e4:	0f403a56 	jal	9d00e958 <__shgetc>
9d0084e8:	02802025 	move	a0,s4
9d0084ec:	1000ffe7 	b	9d00848c <__floatscan+0x1a0>
9d0084f0:	00409025 	move	s2,v0
9d0084f4:	160000b0 	bnez	s0,9d0087b8 <__floatscan+0x4cc>
9d0084f8:	3c139d00 	lui	s3,0x9d00
9d0084fc:	267374e0 	addiu	s3,s3,29920
9d008500:	02701821 	addu	v1,s3,s0
9d008504:	80630000 	lb	v1,0(v1)
9d008508:	36420020 	ori	v0,s2,0x20
9d00850c:	1043004b 	beq	v0,v1,9d00863c <__floatscan+0x350>
9d008510:	24020002 	li	v0,2
9d008514:	160000a8 	bnez	s0,9d0087b8 <__floatscan+0x4cc>
9d008518:	8fa20024 	lw	v0,36(sp)
9d00851c:	afa20020 	sw	v0,32(sp)
9d008520:	24020030 	li	v0,48
9d008524:	16420259 	bne	s2,v0,9d008e8c <__floatscan+0xba0>
9d008528:	8fa70018 	lw	a3,24(sp)
9d00852c:	8e82003c 	lw	v0,60(s4)
9d008530:	8e83004c 	lw	v1,76(s4)
9d008534:	0043182b 	sltu	v1,v0,v1
9d008538:	106000a6 	beqz	v1,9d0087d4 <__floatscan+0x4e8>
9d00853c:	00000000 	nop
9d008540:	24430001 	addiu	v1,v0,1
9d008544:	ae83003c 	sw	v1,60(s4)
9d008548:	90420000 	lbu	v0,0(v0)
9d00854c:	34420020 	ori	v0,v0,0x20
9d008550:	24040078 	li	a0,120
9d008554:	14440247 	bne	v0,a0,9d008e74 <__floatscan+0xb88>
9d008558:	8e83004c 	lw	v1,76(s4)
9d00855c:	8e82003c 	lw	v0,60(s4)
9d008560:	0043182b 	sltu	v1,v0,v1
9d008564:	1060009f 	beqz	v1,9d0087e4 <__floatscan+0x4f8>
9d008568:	00000000 	nop
9d00856c:	24430001 	addiu	v1,v0,1
9d008570:	ae83003c 	sw	v1,60(s4)
9d008574:	90420000 	lbu	v0,0(v0)
9d008578:	00001825 	move	v1,zero
9d00857c:	24040030 	li	a0,48
9d008580:	1044009c 	beq	v0,a0,9d0087f4 <__floatscan+0x508>
9d008584:	2404002e 	li	a0,46
9d008588:	104400a8 	beq	v0,a0,9d00882c <__floatscan+0x540>
9d00858c:	0000b825 	move	s7,zero
9d008590:	0000f025 	move	s8,zero
9d008594:	00006825 	move	t5,zero
9d008598:	3c049d00 	lui	a0,0x9d00
9d00859c:	8c867500 	lw	a2,29952(a0)
9d0085a0:	8c877504 	lw	a3,29956(a0)
9d0085a4:	0000a825 	move	s5,zero
9d0085a8:	00005825 	move	t3,zero
9d0085ac:	afa00030 	sw	zero,48(sp)
9d0085b0:	afa60028 	sw	a2,40(sp)
9d0085b4:	afa7002c 	sw	a3,44(sp)
9d0085b8:	00009025 	move	s2,zero
9d0085bc:	00009825 	move	s3,zero
9d0085c0:	afa40034 	sw	a0,52(sp)
9d0085c4:	244effd0 	addiu	t6,v0,-48
9d0085c8:	2dc4000a 	sltiu	a0,t6,10
9d0085cc:	148000bd 	bnez	a0,9d0088c4 <__floatscan+0x5d8>
9d0085d0:	34440020 	ori	a0,v0,0x20
9d0085d4:	2484ff9f 	addiu	a0,a0,-97
9d0085d8:	2c840006 	sltiu	a0,a0,6
9d0085dc:	148000b9 	bnez	a0,9d0088c4 <__floatscan+0x5d8>
9d0085e0:	2404002e 	li	a0,46
9d0085e4:	104400ba 	beq	v0,a0,9d0088d0 <__floatscan+0x5e4>
9d0085e8:	00000000 	nop
9d0085ec:	54600123 	bnezl	v1,9d008a7c <__floatscan+0x790>
9d0085f0:	02adb80a 	movz	s7,s5,t5
9d0085f4:	8e82004c 	lw	v0,76(s4)
9d0085f8:	1040022f 	beqz	v0,9d008eb8 <__floatscan+0xbcc>
9d0085fc:	00000000 	nop
9d008600:	12c00117 	beqz	s6,9d008a60 <__floatscan+0x774>
9d008604:	8e82003c 	lw	v0,60(s4)
9d008608:	55a00002 	bnezl	t5,9d008614 <__floatscan+0x328>
9d00860c:	2442fffd 	addiu	v0,v0,-3
9d008610:	2442fffe 	addiu	v0,v0,-2
9d008614:	ae82003c 	sw	v0,60(s4)
9d008618:	0f403df0 	jal	9d00f7c0 <__floatsidf>
9d00861c:	02202025 	move	a0,s1
9d008620:	00003025 	move	a2,zero
9d008624:	00003825 	move	a3,zero
9d008628:	00402025 	move	a0,v0
9d00862c:	0f4030ed 	jal	9d00c3b4 <__muldf3>
9d008630:	00602825 	move	a1,v1
9d008634:	1000ffa0 	b	9d0084b8 <__floatscan+0x1cc>
9d008638:	8fbf0074 	lw	ra,116(sp)
9d00863c:	52020009 	beql	s0,v0,9d008664 <__floatscan+0x378>
9d008640:	26100001 	addiu	s0,s0,1
9d008644:	8e82003c 	lw	v0,60(s4)
9d008648:	8e83004c 	lw	v1,76(s4)
9d00864c:	0043182b 	sltu	v1,v0,v1
9d008650:	10600010 	beqz	v1,9d008694 <__floatscan+0x3a8>
9d008654:	24430001 	addiu	v1,v0,1
9d008658:	ae83003c 	sw	v1,60(s4)
9d00865c:	90520000 	lbu	s2,0(v0)
9d008660:	26100001 	addiu	s0,s0,1
9d008664:	24020003 	li	v0,3
9d008668:	1602ffa6 	bne	s0,v0,9d008504 <__floatscan+0x218>
9d00866c:	02701821 	addu	v1,s3,s0
9d008670:	8e83003c 	lw	v1,60(s4)
9d008674:	8e82004c 	lw	v0,76(s4)
9d008678:	0062102b 	sltu	v0,v1,v0
9d00867c:	54400009 	bnezl	v0,9d0086a4 <__floatscan+0x3b8>
9d008680:	24620001 	addiu	v0,v1,1
9d008684:	0f403a56 	jal	9d00e958 <__shgetc>
9d008688:	02802025 	move	a0,s4
9d00868c:	10000008 	b	9d0086b0 <__floatscan+0x3c4>
9d008690:	38420028 	xori	v0,v0,0x28
9d008694:	0f403a56 	jal	9d00e958 <__shgetc>
9d008698:	02802025 	move	a0,s4
9d00869c:	1000fff0 	b	9d008660 <__floatscan+0x374>
9d0086a0:	00409025 	move	s2,v0
9d0086a4:	ae82003c 	sw	v0,60(s4)
9d0086a8:	90620000 	lbu	v0,0(v1)
9d0086ac:	38420028 	xori	v0,v0,0x28
9d0086b0:	0002102b 	sltu	v0,zero,v0
9d0086b4:	1040000b 	beqz	v0,9d0086e4 <__floatscan+0x3f8>
9d0086b8:	24100001 	li	s0,1
9d0086bc:	8e82004c 	lw	v0,76(s4)
9d0086c0:	54400005 	bnezl	v0,9d0086d8 <__floatscan+0x3ec>
9d0086c4:	8e82003c 	lw	v0,60(s4)
9d0086c8:	3c029d00 	lui	v0,0x9d00
9d0086cc:	8c437534 	lw	v1,30004(v0)
9d0086d0:	1000ff78 	b	9d0084b4 <__floatscan+0x1c8>
9d0086d4:	8c427530 	lw	v0,30000(v0)
9d0086d8:	2442ffff 	addiu	v0,v0,-1
9d0086dc:	1000fffa 	b	9d0086c8 <__floatscan+0x3dc>
9d0086e0:	ae82003c 	sw	v0,60(s4)
9d0086e4:	8e82003c 	lw	v0,60(s4)
9d0086e8:	8e83004c 	lw	v1,76(s4)
9d0086ec:	0043182b 	sltu	v1,v0,v1
9d0086f0:	10600011 	beqz	v1,9d008738 <__floatscan+0x44c>
9d0086f4:	00000000 	nop
9d0086f8:	24430001 	addiu	v1,v0,1
9d0086fc:	ae83003c 	sw	v1,60(s4)
9d008700:	90420000 	lbu	v0,0(v0)
9d008704:	2443ffd0 	addiu	v1,v0,-48
9d008708:	2c63000a 	sltiu	v1,v1,10
9d00870c:	14600008 	bnez	v1,9d008730 <__floatscan+0x444>
9d008710:	00401825 	move	v1,v0
9d008714:	7c032944 	ins	v1,zero,0x5,0x1
9d008718:	2463ffbf 	addiu	v1,v1,-65
9d00871c:	2c63001a 	sltiu	v1,v1,26
9d008720:	14600003 	bnez	v1,9d008730 <__floatscan+0x444>
9d008724:	2403005f 	li	v1,95
9d008728:	14430007 	bne	v0,v1,9d008748 <__floatscan+0x45c>
9d00872c:	24030029 	li	v1,41
9d008730:	1000ffec 	b	9d0086e4 <__floatscan+0x3f8>
9d008734:	26100001 	addiu	s0,s0,1
9d008738:	0f403a56 	jal	9d00e958 <__shgetc>
9d00873c:	02802025 	move	a0,s4
9d008740:	1000fff1 	b	9d008708 <__floatscan+0x41c>
9d008744:	2443ffd0 	addiu	v1,v0,-48
9d008748:	1043ffe0 	beq	v0,v1,9d0086cc <__floatscan+0x3e0>
9d00874c:	3c029d00 	lui	v0,0x9d00
9d008750:	8e83004c 	lw	v1,76(s4)
9d008754:	10600004 	beqz	v1,9d008768 <__floatscan+0x47c>
9d008758:	00000000 	nop
9d00875c:	8e82003c 	lw	v0,60(s4)
9d008760:	2442ffff 	addiu	v0,v0,-1
9d008764:	ae82003c 	sw	v0,60(s4)
9d008768:	16c0000f 	bnez	s6,9d0087a8 <__floatscan+0x4bc>
9d00876c:	00000000 	nop
9d008770:	3c02a000 	lui	v0,0xa000
9d008774:	24030016 	li	v1,22
9d008778:	ac4316f0 	sw	v1,5872(v0)
9d00877c:	00002825 	move	a1,zero
9d008780:	0f404092 	jal	9d010248 <__shlim>
9d008784:	02802025 	move	a0,s4
9d008788:	00001025 	move	v0,zero
9d00878c:	1000ff49 	b	9d0084b4 <__floatscan+0x1c8>
9d008790:	00001825 	move	v1,zero
9d008794:	10600004 	beqz	v1,9d0087a8 <__floatscan+0x4bc>
9d008798:	2610ffff 	addiu	s0,s0,-1
9d00879c:	8e82003c 	lw	v0,60(s4)
9d0087a0:	2442ffff 	addiu	v0,v0,-1
9d0087a4:	ae82003c 	sw	v0,60(s4)
9d0087a8:	1600fffa 	bnez	s0,9d008794 <__floatscan+0x4a8>
9d0087ac:	3c029d00 	lui	v0,0x9d00
9d0087b0:	1000ffc7 	b	9d0086d0 <__floatscan+0x3e4>
9d0087b4:	8c437534 	lw	v1,30004(v0)
9d0087b8:	8e82004c 	lw	v0,76(s4)
9d0087bc:	5040ffed 	beqzl	v0,9d008774 <__floatscan+0x488>
9d0087c0:	3c02a000 	lui	v0,0xa000
9d0087c4:	8e82003c 	lw	v0,60(s4)
9d0087c8:	2442ffff 	addiu	v0,v0,-1
9d0087cc:	1000ffe8 	b	9d008770 <__floatscan+0x484>
9d0087d0:	ae82003c 	sw	v0,60(s4)
9d0087d4:	0f403a56 	jal	9d00e958 <__shgetc>
9d0087d8:	02802025 	move	a0,s4
9d0087dc:	1000ff5c 	b	9d008550 <__floatscan+0x264>
9d0087e0:	34420020 	ori	v0,v0,0x20
9d0087e4:	0f403a56 	jal	9d00e958 <__shgetc>
9d0087e8:	02802025 	move	a0,s4
9d0087ec:	1000ff63 	b	9d00857c <__floatscan+0x290>
9d0087f0:	00001825 	move	v1,zero
9d0087f4:	8e82003c 	lw	v0,60(s4)
9d0087f8:	8e83004c 	lw	v1,76(s4)
9d0087fc:	0043182b 	sltu	v1,v0,v1
9d008800:	10600006 	beqz	v1,9d00881c <__floatscan+0x530>
9d008804:	00000000 	nop
9d008808:	24430001 	addiu	v1,v0,1
9d00880c:	ae83003c 	sw	v1,60(s4)
9d008810:	90420000 	lbu	v0,0(v0)
9d008814:	1000ff59 	b	9d00857c <__floatscan+0x290>
9d008818:	24030001 	li	v1,1
9d00881c:	0f403a56 	jal	9d00e958 <__shgetc>
9d008820:	02802025 	move	a0,s4
9d008824:	1000ff55 	b	9d00857c <__floatscan+0x290>
9d008828:	24030001 	li	v1,1
9d00882c:	8e82003c 	lw	v0,60(s4)
9d008830:	8e84004c 	lw	a0,76(s4)
9d008834:	0044202b 	sltu	a0,v0,a0
9d008838:	1080000a 	beqz	a0,9d008864 <__floatscan+0x578>
9d00883c:	24440001 	addiu	a0,v0,1
9d008840:	ae84003c 	sw	a0,60(s4)
9d008844:	90420000 	lbu	v0,0(v0)
9d008848:	0000b825 	move	s7,zero
9d00884c:	0000f025 	move	s8,zero
9d008850:	24040030 	li	a0,48
9d008854:	10440008 	beq	v0,a0,9d008878 <__floatscan+0x58c>
9d008858:	240d0001 	li	t5,1
9d00885c:	1000ff4f 	b	9d00859c <__floatscan+0x2b0>
9d008860:	3c049d00 	lui	a0,0x9d00
9d008864:	02802025 	move	a0,s4
9d008868:	0f403a56 	jal	9d00e958 <__shgetc>
9d00886c:	afa30028 	sw	v1,40(sp)
9d008870:	1000fff5 	b	9d008848 <__floatscan+0x55c>
9d008874:	8fa30028 	lw	v1,40(sp)
9d008878:	8e82003c 	lw	v0,60(s4)
9d00887c:	8e83004c 	lw	v1,76(s4)
9d008880:	0043182b 	sltu	v1,v0,v1
9d008884:	1060000b 	beqz	v1,9d0088b4 <__floatscan+0x5c8>
9d008888:	00000000 	nop
9d00888c:	24430001 	addiu	v1,v0,1
9d008890:	ae83003c 	sw	v1,60(s4)
9d008894:	90420000 	lbu	v0,0(v0)
9d008898:	26e3ffff 	addiu	v1,s7,-1
9d00889c:	0077202b 	sltu	a0,v1,s7
9d0088a0:	27ccffff 	addiu	t4,s8,-1
9d0088a4:	0060b825 	move	s7,v1
9d0088a8:	008cf021 	addu	s8,a0,t4
9d0088ac:	1000ffe8 	b	9d008850 <__floatscan+0x564>
9d0088b0:	24030001 	li	v1,1
9d0088b4:	0f403a56 	jal	9d00e958 <__shgetc>
9d0088b8:	02802025 	move	a0,s4
9d0088bc:	1000fff7 	b	9d00889c <__floatscan+0x5b0>
9d0088c0:	26e3ffff 	addiu	v1,s7,-1
9d0088c4:	2404002e 	li	a0,46
9d0088c8:	54440011 	bnel	v0,a0,9d008910 <__floatscan+0x624>
9d0088cc:	2843003a 	slti	v1,v0,58
9d0088d0:	15a0017d 	bnez	t5,9d008ec8 <__floatscan+0xbdc>
9d0088d4:	02a02825 	move	a1,s5
9d0088d8:	01605025 	move	t2,t3
9d0088dc:	240d0001 	li	t5,1
9d0088e0:	8e82003c 	lw	v0,60(s4)
9d0088e4:	8e84004c 	lw	a0,76(s4)
9d0088e8:	0044202b 	sltu	a0,v0,a0
9d0088ec:	1080004f 	beqz	a0,9d008a2c <__floatscan+0x740>
9d0088f0:	24440001 	addiu	a0,v0,1
9d0088f4:	ae84003c 	sw	a0,60(s4)
9d0088f8:	90420000 	lbu	v0,0(v0)
9d0088fc:	02a0b825 	move	s7,s5
9d008900:	0160f025 	move	s8,t3
9d008904:	00a0a825 	move	s5,a1
9d008908:	1000ff2e 	b	9d0085c4 <__floatscan+0x2d8>
9d00890c:	01405825 	move	t3,t2
9d008910:	14600002 	bnez	v1,9d00891c <__floatscan+0x630>
9d008914:	34420020 	ori	v0,v0,0x20
9d008918:	244effa9 	addiu	t6,v0,-87
9d00891c:	1d60002c 	bgtz	t3,9d0089d0 <__floatscan+0x6e4>
9d008920:	00000000 	nop
9d008924:	15600003 	bnez	t3,9d008934 <__floatscan+0x648>
9d008928:	2ea20008 	sltiu	v0,s5,8
9d00892c:	1040000a 	beqz	v0,9d008958 <__floatscan+0x66c>
9d008930:	2ea2000e 	sltiu	v0,s5,14
9d008934:	00108100 	sll	s0,s0,0x4
9d008938:	01d08021 	addu	s0,t6,s0
9d00893c:	26a50001 	addiu	a1,s5,1
9d008940:	00b5502b 	sltu	t2,a1,s5
9d008944:	014b5021 	addu	t2,t2,t3
9d008948:	02e0a825 	move	s5,s7
9d00894c:	03c05825 	move	t3,s8
9d008950:	1000ffe3 	b	9d0088e0 <__floatscan+0x5f4>
9d008954:	24030001 	li	v1,1
9d008958:	1040001d 	beqz	v0,9d0089d0 <__floatscan+0x6e4>
9d00895c:	3c029d00 	lui	v0,0x9d00
9d008960:	8fa5002c 	lw	a1,44(sp)
9d008964:	8c467540 	lw	a2,30016(v0)
9d008968:	8c477544 	lw	a3,30020(v0)
9d00896c:	8fa40028 	lw	a0,40(sp)
9d008970:	afab0040 	sw	t3,64(sp)
9d008974:	afad0038 	sw	t5,56(sp)
9d008978:	0f4030ed 	jal	9d00c3b4 <__muldf3>
9d00897c:	afae003c 	sw	t6,60(sp)
9d008980:	8fae003c 	lw	t6,60(sp)
9d008984:	afa20028 	sw	v0,40(sp)
9d008988:	afa3002c 	sw	v1,44(sp)
9d00898c:	0f403df0 	jal	9d00f7c0 <__floatsidf>
9d008990:	01c02025 	move	a0,t6
9d008994:	8fa60028 	lw	a2,40(sp)
9d008998:	8fa7002c 	lw	a3,44(sp)
9d00899c:	00402025 	move	a0,v0
9d0089a0:	0f4030ed 	jal	9d00c3b4 <__muldf3>
9d0089a4:	00602825 	move	a1,v1
9d0089a8:	00403025 	move	a2,v0
9d0089ac:	02402025 	move	a0,s2
9d0089b0:	02602825 	move	a1,s3
9d0089b4:	0f402d06 	jal	9d00b418 <__adddf3>
9d0089b8:	00603825 	move	a3,v1
9d0089bc:	00409025 	move	s2,v0
9d0089c0:	00609825 	move	s3,v1
9d0089c4:	8fad0038 	lw	t5,56(sp)
9d0089c8:	1000ffdc 	b	9d00893c <__floatscan+0x650>
9d0089cc:	8fab0040 	lw	t3,64(sp)
9d0089d0:	11c0ffda 	beqz	t6,9d00893c <__floatscan+0x650>
9d0089d4:	8fa20030 	lw	v0,48(sp)
9d0089d8:	1440ffd8 	bnez	v0,9d00893c <__floatscan+0x650>
9d0089dc:	3c029d00 	lui	v0,0x9d00
9d0089e0:	8c467518 	lw	a2,29976(v0)
9d0089e4:	8c47751c 	lw	a3,29980(v0)
9d0089e8:	8fa40028 	lw	a0,40(sp)
9d0089ec:	8fa5002c 	lw	a1,44(sp)
9d0089f0:	afab003c 	sw	t3,60(sp)
9d0089f4:	0f4030ed 	jal	9d00c3b4 <__muldf3>
9d0089f8:	afad0038 	sw	t5,56(sp)
9d0089fc:	00403025 	move	a2,v0
9d008a00:	02402025 	move	a0,s2
9d008a04:	02602825 	move	a1,s3
9d008a08:	0f402d06 	jal	9d00b418 <__adddf3>
9d008a0c:	00603825 	move	a3,v1
9d008a10:	00409025 	move	s2,v0
9d008a14:	24020001 	li	v0,1
9d008a18:	00609825 	move	s3,v1
9d008a1c:	afa20030 	sw	v0,48(sp)
9d008a20:	8fab003c 	lw	t3,60(sp)
9d008a24:	1000ffc5 	b	9d00893c <__floatscan+0x650>
9d008a28:	8fad0038 	lw	t5,56(sp)
9d008a2c:	02802025 	move	a0,s4
9d008a30:	afaa0048 	sw	t2,72(sp)
9d008a34:	afa50044 	sw	a1,68(sp)
9d008a38:	afab0040 	sw	t3,64(sp)
9d008a3c:	afa3003c 	sw	v1,60(sp)
9d008a40:	0f403a56 	jal	9d00e958 <__shgetc>
9d008a44:	afad0038 	sw	t5,56(sp)
9d008a48:	8faa0048 	lw	t2,72(sp)
9d008a4c:	8fa50044 	lw	a1,68(sp)
9d008a50:	8fab0040 	lw	t3,64(sp)
9d008a54:	8fa3003c 	lw	v1,60(sp)
9d008a58:	1000ffa8 	b	9d0088fc <__floatscan+0x610>
9d008a5c:	8fad0038 	lw	t5,56(sp)
9d008a60:	2442ffff 	addiu	v0,v0,-1
9d008a64:	ae82003c 	sw	v0,60(s4)
9d008a68:	00002825 	move	a1,zero
9d008a6c:	0f404092 	jal	9d010248 <__shlim>
9d008a70:	02802025 	move	a0,s4
9d008a74:	1000fee8 	b	9d008618 <__floatscan+0x32c>
9d008a78:	00000000 	nop
9d008a7c:	016df00a 	movz	s8,t3,t5
9d008a80:	5d600006 	bgtzl	t3,9d008a9c <__floatscan+0x7b0>
9d008a84:	34420020 	ori	v0,v0,0x20
9d008a88:	15600014 	bnez	t3,9d008adc <__floatscan+0x7f0>
9d008a8c:	2ea30008 	sltiu	v1,s5,8
9d008a90:	14600013 	bnez	v1,9d008ae0 <__floatscan+0x7f4>
9d008a94:	26a30001 	addiu	v1,s5,1
9d008a98:	34420020 	ori	v0,v0,0x20
9d008a9c:	24030070 	li	v1,112
9d008aa0:	1443003d 	bne	v0,v1,9d008b98 <__floatscan+0x8ac>
9d008aa4:	02c02825 	move	a1,s6
9d008aa8:	0f403261 	jal	9d00c984 <scanexp>
9d008aac:	02802025 	move	a0,s4
9d008ab0:	14400013 	bnez	v0,9d008b00 <__floatscan+0x814>
9d008ab4:	3c048000 	lui	a0,0x8000
9d008ab8:	14640011 	bne	v1,a0,9d008b00 <__floatscan+0x814>
9d008abc:	00000000 	nop
9d008ac0:	12c0ff2f 	beqz	s6,9d008780 <__floatscan+0x494>
9d008ac4:	00002825 	move	a1,zero
9d008ac8:	8e83004c 	lw	v1,76(s4)
9d008acc:	54600009 	bnezl	v1,9d008af4 <__floatscan+0x808>
9d008ad0:	8e83003c 	lw	v1,60(s4)
9d008ad4:	10000009 	b	9d008afc <__floatscan+0x810>
9d008ad8:	00001025 	move	v0,zero
9d008adc:	26a30001 	addiu	v1,s5,1
9d008ae0:	0075202b 	sltu	a0,v1,s5
9d008ae4:	00108100 	sll	s0,s0,0x4
9d008ae8:	0060a825 	move	s5,v1
9d008aec:	1000ffe4 	b	9d008a80 <__floatscan+0x794>
9d008af0:	008b5821 	addu	t3,a0,t3
9d008af4:	2463ffff 	addiu	v1,v1,-1
9d008af8:	ae83003c 	sw	v1,60(s4)
9d008afc:	00001825 	move	v1,zero
9d008b00:	1200fec5 	beqz	s0,9d008618 <__floatscan+0x32c>
9d008b04:	26e4fff8 	addiu	a0,s7,-8
9d008b08:	0097482b 	sltu	t1,a0,s7
9d008b0c:	27ccffff 	addiu	t4,s8,-1
9d008b10:	012c4821 	addu	t1,t1,t4
9d008b14:	00042f82 	srl	a1,a0,0x1e
9d008b18:	00094880 	sll	t1,t1,0x2
9d008b1c:	00042080 	sll	a0,a0,0x2
9d008b20:	00a94825 	or	t1,a1,t1
9d008b24:	00821021 	addu	v0,a0,v0
9d008b28:	0044202b 	sltu	a0,v0,a0
9d008b2c:	01231821 	addu	v1,t1,v1
9d008b30:	00831821 	addu	v1,a0,v1
9d008b34:	8fa40018 	lw	a0,24(sp)
9d008b38:	0040a025 	move	s4,v0
9d008b3c:	00042023 	negu	a0,a0
9d008b40:	00042fc3 	sra	a1,a0,0x1f
9d008b44:	00a3302a 	slt	a2,a1,v1
9d008b48:	14c00005 	bnez	a2,9d008b60 <__floatscan+0x874>
9d008b4c:	0060a825 	move	s5,v1
9d008b50:	14650018 	bne	v1,a1,9d008bb4 <__floatscan+0x8c8>
9d008b54:	0082202b 	sltu	a0,a0,v0
9d008b58:	10800017 	beqz	a0,9d008bb8 <__floatscan+0x8cc>
9d008b5c:	8fa40018 	lw	a0,24(sp)
9d008b60:	3c02a000 	lui	v0,0xa000
9d008b64:	24030022 	li	v1,34
9d008b68:	3c109d00 	lui	s0,0x9d00
9d008b6c:	02202025 	move	a0,s1
9d008b70:	0f403df0 	jal	9d00f7c0 <__floatsidf>
9d008b74:	ac4316f0 	sw	v1,5872(v0)
9d008b78:	8e0674e8 	lw	a2,29928(s0)
9d008b7c:	8e0774ec 	lw	a3,29932(s0)
9d008b80:	00402025 	move	a0,v0
9d008b84:	0f4030ed 	jal	9d00c3b4 <__muldf3>
9d008b88:	00602825 	move	a1,v1
9d008b8c:	8e0674e8 	lw	a2,29928(s0)
9d008b90:	1000fea5 	b	9d008628 <__floatscan+0x33c>
9d008b94:	8e0774ec 	lw	a3,29932(s0)
9d008b98:	8e82004c 	lw	v0,76(s4)
9d008b9c:	5040ffd7 	beqzl	v0,9d008afc <__floatscan+0x810>
9d008ba0:	00001025 	move	v0,zero
9d008ba4:	8e82003c 	lw	v0,60(s4)
9d008ba8:	2442ffff 	addiu	v0,v0,-1
9d008bac:	1000ffc9 	b	9d008ad4 <__floatscan+0x7e8>
9d008bb0:	ae82003c 	sw	v0,60(s4)
9d008bb4:	8fa40018 	lw	a0,24(sp)
9d008bb8:	2484ff96 	addiu	a0,a0,-106
9d008bbc:	00042fc3 	sra	a1,a0,0x1f
9d008bc0:	0065302a 	slt	a2,v1,a1
9d008bc4:	54c00005 	bnezl	a2,9d008bdc <__floatscan+0x8f0>
9d008bc8:	3c02a000 	lui	v0,0xa000
9d008bcc:	14a3009e 	bne	a1,v1,9d008e48 <__floatscan+0xb5c>
9d008bd0:	0044102b 	sltu	v0,v0,a0
9d008bd4:	1040009c 	beqz	v0,9d008e48 <__floatscan+0xb5c>
9d008bd8:	3c02a000 	lui	v0,0xa000
9d008bdc:	24030022 	li	v1,34
9d008be0:	3c109d00 	lui	s0,0x9d00
9d008be4:	02202025 	move	a0,s1
9d008be8:	0f403df0 	jal	9d00f7c0 <__floatsidf>
9d008bec:	ac4316f0 	sw	v1,5872(v0)
9d008bf0:	8e0674f0 	lw	a2,29936(s0)
9d008bf4:	8e0774f4 	lw	a3,29940(s0)
9d008bf8:	00402025 	move	a0,v0
9d008bfc:	0f4030ed 	jal	9d00c3b4 <__muldf3>
9d008c00:	00602825 	move	a1,v1
9d008c04:	8e0674f0 	lw	a2,29936(s0)
9d008c08:	1000fe87 	b	9d008628 <__floatscan+0x33c>
9d008c0c:	8e0774f4 	lw	a3,29940(s0)
9d008c10:	02c03025 	move	a2,s6
9d008c14:	02e03825 	move	a3,s7
9d008c18:	02402025 	move	a0,s2
9d008c1c:	02602825 	move	a1,s3
9d008c20:	0f40373c 	jal	9d00dcf0 <__eqdf2>
9d008c24:	00108040 	sll	s0,s0,0x1
9d008c28:	04400084 	bltz	v0,9d008e3c <__floatscan+0xb50>
9d008c2c:	02402025 	move	a0,s2
9d008c30:	8fa60028 	lw	a2,40(sp)
9d008c34:	8fa7002c 	lw	a3,44(sp)
9d008c38:	0f402d04 	jal	9d00b410 <__subdf3>
9d008c3c:	02602825 	move	a1,s3
9d008c40:	26100001 	addiu	s0,s0,1
9d008c44:	00403025 	move	a2,v0
9d008c48:	00603825 	move	a3,v1
9d008c4c:	02402025 	move	a0,s2
9d008c50:	0f402d06 	jal	9d00b418 <__adddf3>
9d008c54:	02602825 	move	a1,s3
9d008c58:	00409025 	move	s2,v0
9d008c5c:	2682ffff 	addiu	v0,s4,-1
9d008c60:	00609825 	move	s3,v1
9d008c64:	26b5ffff 	addiu	s5,s5,-1
9d008c68:	0054182b 	sltu	v1,v0,s4
9d008c6c:	0075a821 	addu	s5,v1,s5
9d008c70:	0040a025 	move	s4,v0
9d008c74:	0601ffe6 	bgez	s0,9d008c10 <__floatscan+0x924>
9d008c78:	8fa20024 	lw	v0,36(sp)
9d008c7c:	8fa40018 	lw	a0,24(sp)
9d008c80:	26830020 	addiu	v1,s4,32
9d008c84:	00022fc3 	sra	a1,v0,0x1f
9d008c88:	0074102b 	sltu	v0,v1,s4
9d008c8c:	00551021 	addu	v0,v0,s5
9d008c90:	0004afc3 	sra	s5,a0,0x1f
9d008c94:	00642023 	subu	a0,v1,a0
9d008c98:	0055a823 	subu	s5,v0,s5
9d008c9c:	0064182b 	sltu	v1,v1,a0
9d008ca0:	02a3a823 	subu	s5,s5,v1
9d008ca4:	02a5102a 	slt	v0,s5,a1
9d008ca8:	14400006 	bnez	v0,9d008cc4 <__floatscan+0x9d8>
9d008cac:	8fa20018 	lw	v0,24(sp)
9d008cb0:	14b50008 	bne	a1,s5,9d008cd4 <__floatscan+0x9e8>
9d008cb4:	8fa20024 	lw	v0,36(sp)
9d008cb8:	0082202b 	sltu	a0,a0,v0
9d008cbc:	10800005 	beqz	a0,9d008cd4 <__floatscan+0x9e8>
9d008cc0:	8fa20018 	lw	v0,24(sp)
9d008cc4:	0282b823 	subu	s7,s4,v0
9d008cc8:	26e20020 	addiu	v0,s7,32
9d008ccc:	04400067 	bltz	v0,9d008e6c <__floatscan+0xb80>
9d008cd0:	afa20020 	sw	v0,32(sp)
9d008cd4:	8fa20020 	lw	v0,32(sp)
9d008cd8:	0000b025 	move	s6,zero
9d008cdc:	28420035 	slti	v0,v0,53
9d008ce0:	10400022 	beqz	v0,9d008d6c <__floatscan+0xa80>
9d008ce4:	0000b825 	move	s7,zero
9d008ce8:	8fa20020 	lw	v0,32(sp)
9d008cec:	24060054 	li	a2,84
9d008cf0:	00c23023 	subu	a2,a2,v0
9d008cf4:	8fa20034 	lw	v0,52(sp)
9d008cf8:	8c457504 	lw	a1,29956(v0)
9d008cfc:	0f4038e4 	jal	9d00e390 <scalbn>
9d008d00:	8c447500 	lw	a0,29952(v0)
9d008d04:	02202025 	move	a0,s1
9d008d08:	0040b025 	move	s6,v0
9d008d0c:	0f403df0 	jal	9d00f7c0 <__floatsidf>
9d008d10:	0060b825 	move	s7,v1
9d008d14:	00403025 	move	a2,v0
9d008d18:	02c02025 	move	a0,s6
9d008d1c:	02e02825 	move	a1,s7
9d008d20:	0f4040b3 	jal	9d0102cc <copysignl>
9d008d24:	00603825 	move	a3,v1
9d008d28:	0040b025 	move	s6,v0
9d008d2c:	8fa20020 	lw	v0,32(sp)
9d008d30:	285e0020 	slti	s8,v0,32
9d008d34:	13c0000d 	beqz	s8,9d008d6c <__floatscan+0xa80>
9d008d38:	0060b825 	move	s7,v1
9d008d3c:	00003025 	move	a2,zero
9d008d40:	00003825 	move	a3,zero
9d008d44:	02402025 	move	a0,s2
9d008d48:	0f40373c 	jal	9d00dcf0 <__eqdf2>
9d008d4c:	02602825 	move	a1,s3
9d008d50:	10400006 	beqz	v0,9d008d6c <__floatscan+0xa80>
9d008d54:	32020001 	andi	v0,s0,0x1
9d008d58:	14400004 	bnez	v0,9d008d6c <__floatscan+0xa80>
9d008d5c:	00000000 	nop
9d008d60:	26100001 	addiu	s0,s0,1
9d008d64:	00009025 	move	s2,zero
9d008d68:	00009825 	move	s3,zero
9d008d6c:	0f403df0 	jal	9d00f7c0 <__floatsidf>
9d008d70:	02202025 	move	a0,s1
9d008d74:	00602825 	move	a1,v1
9d008d78:	02403025 	move	a2,s2
9d008d7c:	02603825 	move	a3,s3
9d008d80:	00402025 	move	a0,v0
9d008d84:	afa20018 	sw	v0,24(sp)
9d008d88:	0f4030ed 	jal	9d00c3b4 <__muldf3>
9d008d8c:	afa3001c 	sw	v1,28(sp)
9d008d90:	02002025 	move	a0,s0
9d008d94:	00409025 	move	s2,v0
9d008d98:	0f403fd1 	jal	9d00ff44 <__floatunsidf>
9d008d9c:	00609825 	move	s3,v1
9d008da0:	8fa80018 	lw	t0,24(sp)
9d008da4:	8fa9001c 	lw	t1,28(sp)
9d008da8:	00402025 	move	a0,v0
9d008dac:	01003025 	move	a2,t0
9d008db0:	01203825 	move	a3,t1
9d008db4:	0f4030ed 	jal	9d00c3b4 <__muldf3>
9d008db8:	00602825 	move	a1,v1
9d008dbc:	00402025 	move	a0,v0
9d008dc0:	02c03025 	move	a2,s6
9d008dc4:	02e03825 	move	a3,s7
9d008dc8:	0f402d06 	jal	9d00b418 <__adddf3>
9d008dcc:	00602825 	move	a1,v1
9d008dd0:	00402025 	move	a0,v0
9d008dd4:	02403025 	move	a2,s2
9d008dd8:	02603825 	move	a3,s3
9d008ddc:	0f402d06 	jal	9d00b418 <__adddf3>
9d008de0:	00602825 	move	a1,v1
9d008de4:	00402025 	move	a0,v0
9d008de8:	02c03025 	move	a2,s6
9d008dec:	02e03825 	move	a3,s7
9d008df0:	0f402d04 	jal	9d00b410 <__subdf3>
9d008df4:	00602825 	move	a1,v1
9d008df8:	00402025 	move	a0,v0
9d008dfc:	00003025 	move	a2,zero
9d008e00:	00003825 	move	a3,zero
9d008e04:	00602825 	move	a1,v1
9d008e08:	00408025 	move	s0,v0
9d008e0c:	0f40373c 	jal	9d00dcf0 <__eqdf2>
9d008e10:	00608825 	move	s1,v1
9d008e14:	14400004 	bnez	v0,9d008e28 <__floatscan+0xb3c>
9d008e18:	02803025 	move	a2,s4
9d008e1c:	3c02a000 	lui	v0,0xa000
9d008e20:	24030022 	li	v1,34
9d008e24:	ac4316f0 	sw	v1,5872(v0)
9d008e28:	02002025 	move	a0,s0
9d008e2c:	0f404193 	jal	9d01064c <scalbnl>
9d008e30:	02202825 	move	a1,s1
9d008e34:	1000fda0 	b	9d0084b8 <__floatscan+0x1cc>
9d008e38:	8fbf0074 	lw	ra,116(sp)
9d008e3c:	02403025 	move	a2,s2
9d008e40:	1000ff82 	b	9d008c4c <__floatscan+0x960>
9d008e44:	02603825 	move	a3,s3
9d008e48:	3c029d00 	lui	v0,0x9d00
9d008e4c:	8c567518 	lw	s6,29976(v0)
9d008e50:	8c57751c 	lw	s7,29980(v0)
9d008e54:	8fa20034 	lw	v0,52(sp)
9d008e58:	8c437504 	lw	v1,29956(v0)
9d008e5c:	8c427500 	lw	v0,29952(v0)
9d008e60:	afa3002c 	sw	v1,44(sp)
9d008e64:	1000ff83 	b	9d008c74 <__floatscan+0x988>
9d008e68:	afa20028 	sw	v0,40(sp)
9d008e6c:	1000ff9e 	b	9d008ce8 <__floatscan+0x9fc>
9d008e70:	afa00020 	sw	zero,32(sp)
9d008e74:	10600005 	beqz	v1,9d008e8c <__floatscan+0xba0>
9d008e78:	8fa70018 	lw	a3,24(sp)
9d008e7c:	8e82003c 	lw	v0,60(s4)
9d008e80:	2442ffff 	addiu	v0,v0,-1
9d008e84:	ae82003c 	sw	v0,60(s4)
9d008e88:	8fa70018 	lw	a3,24(sp)
9d008e8c:	8fa60024 	lw	a2,36(sp)
9d008e90:	afb60014 	sw	s6,20(sp)
9d008e94:	afb10010 	sw	s1,16(sp)
9d008e98:	02402825 	move	a1,s2
9d008e9c:	0f401d5e 	jal	9d007578 <decfloat>
9d008ea0:	02802025 	move	a0,s4
9d008ea4:	1000fd84 	b	9d0084b8 <__floatscan+0x1cc>
9d008ea8:	8fbf0074 	lw	ra,116(sp)
9d008eac:	8c43752c 	lw	v1,29996(v0)
9d008eb0:	1000fd80 	b	9d0084b4 <__floatscan+0x1c8>
9d008eb4:	8c427528 	lw	v0,29992(v0)
9d008eb8:	16c0fdd7 	bnez	s6,9d008618 <__floatscan+0x32c>
9d008ebc:	00000000 	nop
9d008ec0:	1000feea 	b	9d008a6c <__floatscan+0x780>
9d008ec4:	00002825 	move	a1,zero
9d008ec8:	1460feed 	bnez	v1,9d008a80 <__floatscan+0x794>
9d008ecc:	2402002e 	li	v0,46
9d008ed0:	1000fdc9 	b	9d0085f8 <__floatscan+0x30c>
9d008ed4:	8e82004c 	lw	v0,76(s4)
9d008ed8:	03e00008 	jr	ra
9d008edc:	00000000 	nop

Disassembly of section .text.__scanf_core:

9d008ee0 <__scanf_core>:
9d008ee0:	27bdfe20 	addiu	sp,sp,-480
9d008ee4:	afb601d4 	sw	s6,468(sp)
9d008ee8:	afb501d0 	sw	s5,464(sp)
9d008eec:	afb201c4 	sw	s2,452(sp)
9d008ef0:	afb001bc 	sw	s0,444(sp)
9d008ef4:	afbf01dc 	sw	ra,476(sp)
9d008ef8:	afb701d8 	sw	s7,472(sp)
9d008efc:	afb401cc 	sw	s4,460(sp)
9d008f00:	afb301c8 	sw	s3,456(sp)
9d008f04:	afb101c0 	sw	s1,448(sp)
9d008f08:	00808025 	move	s0,a0
9d008f0c:	00c09025 	move	s2,a2
9d008f10:	afa501b4 	sw	a1,436(sp)
9d008f14:	afa001b0 	sw	zero,432(sp)
9d008f18:	0000a825 	move	s5,zero
9d008f1c:	27b6011c 	addiu	s6,sp,284
9d008f20:	8fa201b4 	lw	v0,436(sp)
9d008f24:	80420000 	lb	v0,0(v0)
9d008f28:	1040005a 	beqz	v0,9d009094 <__scanf_core+0x1b4>
9d008f2c:	24020080 	li	v0,128
9d008f30:	27a501b4 	addiu	a1,sp,436
9d008f34:	02002025 	move	a0,s0
9d008f38:	afa0019c 	sw	zero,412(sp)
9d008f3c:	afa001a0 	sw	zero,416(sp)
9d008f40:	afa001a4 	sw	zero,420(sp)
9d008f44:	afb601a8 	sw	s6,424(sp)
9d008f48:	0f403e0e 	jal	9d00f838 <__consumews>
9d008f4c:	afa201ac 	sw	v0,428(sp)
9d008f50:	00408825 	move	s1,v0
9d008f54:	8fa301b4 	lw	v1,436(sp)
9d008f58:	80620000 	lb	v0,0(v1)
9d008f5c:	10400003 	beqz	v0,9d008f6c <__scanf_core+0x8c>
9d008f60:	24040025 	li	a0,37
9d008f64:	5444003b 	bnel	v0,a0,9d009054 <__scanf_core+0x174>
9d008f68:	8e02003c 	lw	v0,60(s0)
9d008f6c:	8fa201b0 	lw	v0,432(sp)
9d008f70:	00511021 	addu	v0,v0,s1
9d008f74:	afa201b0 	sw	v0,432(sp)
9d008f78:	80640000 	lb	a0,0(v1)
9d008f7c:	24020025 	li	v0,37
9d008f80:	1482002d 	bne	a0,v0,9d009038 <__scanf_core+0x158>
9d008f84:	24620001 	addiu	v0,v1,1
9d008f88:	afa201b4 	sw	v0,436(sp)
9d008f8c:	afa001a4 	sw	zero,420(sp)
9d008f90:	80640001 	lb	a0,1(v1)
9d008f94:	2402002a 	li	v0,42
9d008f98:	14820004 	bne	a0,v0,9d008fac <__scanf_core+0xcc>
9d008f9c:	00008825 	move	s1,zero
9d008fa0:	24630002 	addiu	v1,v1,2
9d008fa4:	afa301b4 	sw	v1,436(sp)
9d008fa8:	24110001 	li	s1,1
9d008fac:	0f403db2 	jal	9d00f6c8 <atoi>
9d008fb0:	8fa401b4 	lw	a0,436(sp)
9d008fb4:	00402825 	move	a1,v0
9d008fb8:	02002025 	move	a0,s0
9d008fbc:	0f404092 	jal	9d010248 <__shlim>
9d008fc0:	afa201a4 	sw	v0,420(sp)
9d008fc4:	8fa301b4 	lw	v1,436(sp)
9d008fc8:	80620000 	lb	v0,0(v1)
9d008fcc:	2442ffd0 	addiu	v0,v0,-48
9d008fd0:	2c42000a 	sltiu	v0,v0,10
9d008fd4:	1440004b 	bnez	v0,9d009104 <__scanf_core+0x224>
9d008fd8:	24630001 	addiu	v1,v1,1
9d008fdc:	0f403edd 	jal	9d00fb74 <__fmt_state>
9d008fe0:	27a401b4 	addiu	a0,sp,436
9d008fe4:	0040a025 	move	s4,v0
9d008fe8:	8fa201b4 	lw	v0,436(sp)
9d008fec:	0f40414d 	jal	9d010534 <tolower>
9d008ff0:	80440000 	lb	a0,0(v0)
9d008ff4:	28430068 	slti	v1,v0,104
9d008ff8:	1060005f 	beqz	v1,9d009178 <__scanf_core+0x298>
9d008ffc:	28430065 	slti	v1,v0,101
9d009000:	106000bd 	beqz	v1,9d0092f8 <__scanf_core+0x418>
9d009004:	24030061 	li	v1,97
9d009008:	104300bb 	beq	v0,v1,9d0092f8 <__scanf_core+0x418>
9d00900c:	28430062 	slti	v1,v0,98
9d009010:	1060003e 	beqz	v1,9d00910c <__scanf_core+0x22c>
9d009014:	24040025 	li	a0,37
9d009018:	104400e0 	beq	v0,a0,9d00939c <__scanf_core+0x4bc>
9d00901c:	8fa301b4 	lw	v1,436(sp)
9d009020:	2404005b 	li	a0,91
9d009024:	104400fc 	beq	v0,a0,9d009418 <__scanf_core+0x538>
9d009028:	24020080 	li	v0,128
9d00902c:	8fa201b4 	lw	v0,436(sp)
9d009030:	24420001 	addiu	v0,v0,1
9d009034:	afa201b4 	sw	v0,436(sp)
9d009038:	2402ffff 	li	v0,-1
9d00903c:	166200ac 	bne	s3,v0,9d0092f0 <__scanf_core+0x410>
9d009040:	00008825 	move	s1,zero
9d009044:	52a00013 	beqzl	s5,9d009094 <__scanf_core+0x1b4>
9d009048:	2415ffff 	li	s5,-1
9d00904c:	10000012 	b	9d009098 <__scanf_core+0x1b8>
9d009050:	8fbf01dc 	lw	ra,476(sp)
9d009054:	8e03004c 	lw	v1,76(s0)
9d009058:	0043182b 	sltu	v1,v0,v1
9d00905c:	10600019 	beqz	v1,9d0090c4 <__scanf_core+0x1e4>
9d009060:	24430001 	addiu	v1,v0,1
9d009064:	ae03003c 	sw	v1,60(s0)
9d009068:	90530000 	lbu	s3,0(v0)
9d00906c:	8fa201b4 	lw	v0,436(sp)
9d009070:	80420000 	lb	v0,0(v0)
9d009074:	10530019 	beq	v0,s3,9d0090dc <__scanf_core+0x1fc>
9d009078:	8fa201b0 	lw	v0,432(sp)
9d00907c:	8e02004c 	lw	v0,76(s0)
9d009080:	10400005 	beqz	v0,9d009098 <__scanf_core+0x1b8>
9d009084:	8fbf01dc 	lw	ra,476(sp)
9d009088:	8e02003c 	lw	v0,60(s0)
9d00908c:	2442ffff 	addiu	v0,v0,-1
9d009090:	ae02003c 	sw	v0,60(s0)
9d009094:	8fbf01dc 	lw	ra,476(sp)
9d009098:	02a01025 	move	v0,s5
9d00909c:	8fb701d8 	lw	s7,472(sp)
9d0090a0:	8fb601d4 	lw	s6,468(sp)
9d0090a4:	8fb501d0 	lw	s5,464(sp)
9d0090a8:	8fb401cc 	lw	s4,460(sp)
9d0090ac:	8fb301c8 	lw	s3,456(sp)
9d0090b0:	8fb201c4 	lw	s2,452(sp)
9d0090b4:	8fb101c0 	lw	s1,448(sp)
9d0090b8:	8fb001bc 	lw	s0,444(sp)
9d0090bc:	03e00008 	jr	ra
9d0090c0:	27bd01e0 	addiu	sp,sp,480
9d0090c4:	0f403a56 	jal	9d00e958 <__shgetc>
9d0090c8:	02002025 	move	a0,s0
9d0090cc:	00409825 	move	s3,v0
9d0090d0:	2402ffff 	li	v0,-1
9d0090d4:	1662ffe5 	bne	s3,v0,9d00906c <__scanf_core+0x18c>
9d0090d8:	8fa201b0 	lw	v0,432(sp)
9d0090dc:	27a501b4 	addiu	a1,sp,436
9d0090e0:	02002025 	move	a0,s0
9d0090e4:	24420001 	addiu	v0,v0,1
9d0090e8:	afa201b0 	sw	v0,432(sp)
9d0090ec:	8fa201b4 	lw	v0,436(sp)
9d0090f0:	24420001 	addiu	v0,v0,1
9d0090f4:	0f403e0e 	jal	9d00f838 <__consumews>
9d0090f8:	afa201b4 	sw	v0,436(sp)
9d0090fc:	1000ff95 	b	9d008f54 <__scanf_core+0x74>
9d009100:	02228821 	addu	s1,s1,v0
9d009104:	1000ffaf 	b	9d008fc4 <__scanf_core+0xe4>
9d009108:	afa301b4 	sw	v1,436(sp)
9d00910c:	24030063 	li	v1,99
9d009110:	1043008a 	beq	v0,v1,9d00933c <__scanf_core+0x45c>
9d009114:	24030064 	li	v1,100
9d009118:	1443ffc4 	bne	v0,v1,9d00902c <__scanf_core+0x14c>
9d00911c:	27a701b0 	addiu	a3,sp,432
9d009120:	27a6019c 	addiu	a2,sp,412
9d009124:	27a50018 	addiu	a1,sp,24
9d009128:	0f4041d5 	jal	9d010754 <__scan_a>
9d00912c:	02002025 	move	a0,s0
9d009130:	0442000c 	bltzl	v0,9d009164 <__scanf_core+0x284>
9d009134:	00408825 	move	s1,v0
9d009138:	8fa201b4 	lw	v0,436(sp)
9d00913c:	24420001 	addiu	v0,v0,1
9d009140:	162000a8 	bnez	s1,9d0093e4 <__scanf_core+0x504>
9d009144:	afa201b4 	sw	v0,436(sp)
9d009148:	02403825 	move	a3,s2
9d00914c:	24060001 	li	a2,1
9d009150:	02802825 	move	a1,s4
9d009154:	0f4034e8 	jal	9d00d3a0 <__push_int>
9d009158:	27a40018 	addiu	a0,sp,24
9d00915c:	04410064 	bgez	v0,9d0092f0 <__scanf_core+0x410>
9d009160:	00408825 	move	s1,v0
9d009164:	2402ffff 	li	v0,-1
9d009168:	1222ffb6 	beq	s1,v0,9d009044 <__scanf_core+0x164>
9d00916c:	8fbf01dc 	lw	ra,476(sp)
9d009170:	1000ffca 	b	9d00909c <__scanf_core+0x1bc>
9d009174:	02a01025 	move	v0,s5
9d009178:	24030070 	li	v1,112
9d00917c:	10430040 	beq	v0,v1,9d009280 <__scanf_core+0x3a0>
9d009180:	28430071 	slti	v1,v0,113
9d009184:	1060000d 	beqz	v1,9d0091bc <__scanf_core+0x2dc>
9d009188:	2403006e 	li	v1,110
9d00918c:	1043004b 	beq	v0,v1,9d0092bc <__scanf_core+0x3dc>
9d009190:	2843006f 	slti	v1,v0,111
9d009194:	1060002c 	beqz	v1,9d009248 <__scanf_core+0x368>
9d009198:	24030069 	li	v1,105
9d00919c:	1443ffa3 	bne	v0,v1,9d00902c <__scanf_core+0x14c>
9d0091a0:	27a701b0 	addiu	a3,sp,432
9d0091a4:	27a6019c 	addiu	a2,sp,412
9d0091a8:	27a50018 	addiu	a1,sp,24
9d0091ac:	0f4041d5 	jal	9d010754 <__scan_a>
9d0091b0:	02002025 	move	a0,s0
9d0091b4:	1000ffde 	b	9d009130 <__scanf_core+0x250>
9d0091b8:	00000000 	nop
9d0091bc:	24030075 	li	v1,117
9d0091c0:	10430013 	beq	v0,v1,9d009210 <__scanf_core+0x330>
9d0091c4:	24030078 	li	v1,120
9d0091c8:	10430026 	beq	v0,v1,9d009264 <__scanf_core+0x384>
9d0091cc:	24030073 	li	v1,115
9d0091d0:	1443ff96 	bne	v0,v1,9d00902c <__scanf_core+0x14c>
9d0091d4:	24020080 	li	v0,128
9d0091d8:	1682ff94 	bne	s4,v0,9d00902c <__scanf_core+0x14c>
9d0091dc:	8fa201b4 	lw	v0,436(sp)
9d0091e0:	24420001 	addiu	v0,v0,1
9d0091e4:	afa201b4 	sw	v0,436(sp)
9d0091e8:	16200005 	bnez	s1,9d009200 <__scanf_core+0x320>
9d0091ec:	00001025 	move	v0,zero
9d0091f0:	8e420000 	lw	v0,0(s2)
9d0091f4:	24430004 	addiu	v1,v0,4
9d0091f8:	ae430000 	sw	v1,0(s2)
9d0091fc:	8c420000 	lw	v0,0(v0)
9d009200:	afa20010 	sw	v0,16(sp)
9d009204:	27a701b0 	addiu	a3,sp,432
9d009208:	1000005f 	b	9d009388 <__scanf_core+0x4a8>
9d00920c:	24060001 	li	a2,1
9d009210:	27a701b0 	addiu	a3,sp,432
9d009214:	27a6019c 	addiu	a2,sp,412
9d009218:	27a50018 	addiu	a1,sp,24
9d00921c:	0f4041d5 	jal	9d010754 <__scan_a>
9d009220:	02002025 	move	a0,s0
9d009224:	0442ffcf 	bltzl	v0,9d009164 <__scanf_core+0x284>
9d009228:	00408825 	move	s1,v0
9d00922c:	8fa201b4 	lw	v0,436(sp)
9d009230:	24420001 	addiu	v0,v0,1
9d009234:	1620006b 	bnez	s1,9d0093e4 <__scanf_core+0x504>
9d009238:	afa201b4 	sw	v0,436(sp)
9d00923c:	02403825 	move	a3,s2
9d009240:	1000ffc3 	b	9d009150 <__scanf_core+0x270>
9d009244:	00003025 	move	a2,zero
9d009248:	27a701b0 	addiu	a3,sp,432
9d00924c:	27a6019c 	addiu	a2,sp,412
9d009250:	27a50018 	addiu	a1,sp,24
9d009254:	0f4041d5 	jal	9d010754 <__scan_a>
9d009258:	02002025 	move	a0,s0
9d00925c:	1000fff1 	b	9d009224 <__scanf_core+0x344>
9d009260:	00000000 	nop
9d009264:	27a701b0 	addiu	a3,sp,432
9d009268:	27a6019c 	addiu	a2,sp,412
9d00926c:	27a50018 	addiu	a1,sp,24
9d009270:	0f4041d5 	jal	9d010754 <__scan_a>
9d009274:	02002025 	move	a0,s0
9d009278:	1000ffea 	b	9d009224 <__scanf_core+0x344>
9d00927c:	00000000 	nop
9d009280:	27a701b0 	addiu	a3,sp,432
9d009284:	27a6019c 	addiu	a2,sp,412
9d009288:	27a50018 	addiu	a1,sp,24
9d00928c:	0f4041d5 	jal	9d010754 <__scan_a>
9d009290:	02002025 	move	a0,s0
9d009294:	0442ffb3 	bltzl	v0,9d009164 <__scanf_core+0x284>
9d009298:	00408825 	move	s1,v0
9d00929c:	8fa201b4 	lw	v0,436(sp)
9d0092a0:	24420001 	addiu	v0,v0,1
9d0092a4:	1620004f 	bnez	s1,9d0093e4 <__scanf_core+0x504>
9d0092a8:	afa201b4 	sw	v0,436(sp)
9d0092ac:	02403825 	move	a3,s2
9d0092b0:	00003025 	move	a2,zero
9d0092b4:	1000ffa7 	b	9d009154 <__scanf_core+0x274>
9d0092b8:	240500f0 	li	a1,240
9d0092bc:	8fa201b4 	lw	v0,436(sp)
9d0092c0:	24420001 	addiu	v0,v0,1
9d0092c4:	afa201b4 	sw	v0,436(sp)
9d0092c8:	8fa201b0 	lw	v0,432(sp)
9d0092cc:	afa20018 	sw	v0,24(sp)
9d0092d0:	000217c3 	sra	v0,v0,0x1f
9d0092d4:	16200043 	bnez	s1,9d0093e4 <__scanf_core+0x504>
9d0092d8:	afa2001c 	sw	v0,28(sp)
9d0092dc:	02403825 	move	a3,s2
9d0092e0:	00003025 	move	a2,zero
9d0092e4:	02802825 	move	a1,s4
9d0092e8:	0f4034e8 	jal	9d00d3a0 <__push_int>
9d0092ec:	27a40018 	addiu	a0,sp,24
9d0092f0:	1000ff0b 	b	9d008f20 <__scanf_core+0x40>
9d0092f4:	02b1a821 	addu	s5,s5,s1
9d0092f8:	27a701b0 	addiu	a3,sp,432
9d0092fc:	27a6019c 	addiu	a2,sp,412
9d009300:	27a50018 	addiu	a1,sp,24
9d009304:	0f402e10 	jal	9d00b840 <__scan_fp>
9d009308:	02002025 	move	a0,s0
9d00930c:	0442ff95 	bltzl	v0,9d009164 <__scanf_core+0x284>
9d009310:	00408825 	move	s1,v0
9d009314:	8fa201b4 	lw	v0,436(sp)
9d009318:	24420001 	addiu	v0,v0,1
9d00931c:	16200031 	bnez	s1,9d0093e4 <__scanf_core+0x504>
9d009320:	afa201b4 	sw	v0,436(sp)
9d009324:	02403025 	move	a2,s2
9d009328:	02802825 	move	a1,s4
9d00932c:	0f403ada 	jal	9d00eb68 <__push_float>
9d009330:	27a40018 	addiu	a0,sp,24
9d009334:	1000ff89 	b	9d00915c <__scanf_core+0x27c>
9d009338:	00000000 	nop
9d00933c:	24020080 	li	v0,128
9d009340:	1682ff3a 	bne	s4,v0,9d00902c <__scanf_core+0x14c>
9d009344:	8fa201a4 	lw	v0,420(sp)
9d009348:	54400004 	bnezl	v0,9d00935c <__scanf_core+0x47c>
9d00934c:	8fa201b4 	lw	v0,436(sp)
9d009350:	24020001 	li	v0,1
9d009354:	afa201a4 	sw	v0,420(sp)
9d009358:	8fa201b4 	lw	v0,436(sp)
9d00935c:	24420001 	addiu	v0,v0,1
9d009360:	afa201b4 	sw	v0,436(sp)
9d009364:	16200005 	bnez	s1,9d00937c <__scanf_core+0x49c>
9d009368:	00001025 	move	v0,zero
9d00936c:	8e420000 	lw	v0,0(s2)
9d009370:	24430004 	addiu	v1,v0,4
9d009374:	ae430000 	sw	v1,0(s2)
9d009378:	8c420000 	lw	v0,0(v0)
9d00937c:	afa20010 	sw	v0,16(sp)
9d009380:	27a701b0 	addiu	a3,sp,432
9d009384:	00003025 	move	a2,zero
9d009388:	27a5019c 	addiu	a1,sp,412
9d00938c:	0f4041d7 	jal	9d01075c <__scan_s>
9d009390:	02002025 	move	a0,s0
9d009394:	1000ff71 	b	9d00915c <__scanf_core+0x27c>
9d009398:	00000000 	nop
9d00939c:	24020080 	li	v0,128
9d0093a0:	1682ff23 	bne	s4,v0,9d009030 <__scanf_core+0x150>
9d0093a4:	8fa201b4 	lw	v0,436(sp)
9d0093a8:	24630001 	addiu	v1,v1,1
9d0093ac:	afa301b4 	sw	v1,436(sp)
9d0093b0:	8e02003c 	lw	v0,60(s0)
9d0093b4:	8e03004c 	lw	v1,76(s0)
9d0093b8:	0043182b 	sltu	v1,v0,v1
9d0093bc:	1060000b 	beqz	v1,9d0093ec <__scanf_core+0x50c>
9d0093c0:	00000000 	nop
9d0093c4:	24430001 	addiu	v1,v0,1
9d0093c8:	ae03003c 	sw	v1,60(s0)
9d0093cc:	90420000 	lbu	v0,0(v0)
9d0093d0:	24030025 	li	v1,37
9d0093d4:	14430009 	bne	v0,v1,9d0093fc <__scanf_core+0x51c>
9d0093d8:	8fa201b0 	lw	v0,432(sp)
9d0093dc:	24420001 	addiu	v0,v0,1
9d0093e0:	afa201b0 	sw	v0,432(sp)
9d0093e4:	1000ffc2 	b	9d0092f0 <__scanf_core+0x410>
9d0093e8:	00008825 	move	s1,zero
9d0093ec:	0f403a56 	jal	9d00e958 <__shgetc>
9d0093f0:	02002025 	move	a0,s0
9d0093f4:	1000fff7 	b	9d0093d4 <__scanf_core+0x4f4>
9d0093f8:	24030025 	li	v1,37
9d0093fc:	8e02004c 	lw	v0,76(s0)
9d009400:	5040ffbb 	beqzl	v0,9d0092f0 <__scanf_core+0x410>
9d009404:	00008825 	move	s1,zero
9d009408:	8e02003c 	lw	v0,60(s0)
9d00940c:	2442ffff 	addiu	v0,v0,-1
9d009410:	1000fff4 	b	9d0093e4 <__scanf_core+0x504>
9d009414:	ae02003c 	sw	v0,60(s0)
9d009418:	1682ff05 	bne	s4,v0,9d009030 <__scanf_core+0x150>
9d00941c:	8fa201b4 	lw	v0,436(sp)
9d009420:	16200005 	bnez	s1,9d009438 <__scanf_core+0x558>
9d009424:	0000a025 	move	s4,zero
9d009428:	8e420000 	lw	v0,0(s2)
9d00942c:	24440004 	addiu	a0,v0,4
9d009430:	ae440000 	sw	a0,0(s2)
9d009434:	8c540000 	lw	s4,0(v0)
9d009438:	24620001 	addiu	v0,v1,1
9d00943c:	afa201b4 	sw	v0,436(sp)
9d009440:	80640001 	lb	a0,1(v1)
9d009444:	2402005e 	li	v0,94
9d009448:	14820004 	bne	a0,v0,9d00945c <__scanf_core+0x57c>
9d00944c:	00008825 	move	s1,zero
9d009450:	24630002 	addiu	v1,v1,2
9d009454:	afa301b4 	sw	v1,436(sp)
9d009458:	24110001 	li	s1,1
9d00945c:	27a40018 	addiu	a0,sp,24
9d009460:	24060101 	li	a2,257
9d009464:	0f4040fc 	jal	9d0103f0 <memset>
9d009468:	02202825 	move	a1,s1
9d00946c:	8fa201b4 	lw	v0,436(sp)
9d009470:	a3a00018 	sb	zero,24(sp)
9d009474:	2404002d 	li	a0,45
9d009478:	80430000 	lb	v1,0(v0)
9d00947c:	1464001e 	bne	v1,a0,9d0094f8 <__scanf_core+0x618>
9d009480:	2404005d 	li	a0,93
9d009484:	24420001 	addiu	v0,v0,1
9d009488:	afa201b4 	sw	v0,436(sp)
9d00948c:	24020001 	li	v0,1
9d009490:	00511023 	subu	v0,v0,s1
9d009494:	a3a20046 	sb	v0,70(sp)
9d009498:	24020001 	li	v0,1
9d00949c:	2405005d 	li	a1,93
9d0094a0:	2406002d 	li	a2,45
9d0094a4:	00518823 	subu	s1,v0,s1
9d0094a8:	8fa301b4 	lw	v1,436(sp)
9d0094ac:	80620000 	lb	v0,0(v1)
9d0094b0:	14450018 	bne	v0,a1,9d009514 <__scanf_core+0x634>
9d0094b4:	00000000 	nop
9d0094b8:	56800037 	bnezl	s4,9d009598 <__scanf_core+0x6b8>
9d0094bc:	00008825 	move	s1,zero
9d0094c0:	8e02003c 	lw	v0,60(s0)
9d0094c4:	8e03004c 	lw	v1,76(s0)
9d0094c8:	0043182b 	sltu	v1,v0,v1
9d0094cc:	10600056 	beqz	v1,9d009628 <__scanf_core+0x748>
9d0094d0:	24430001 	addiu	v1,v0,1
9d0094d4:	ae03003c 	sw	v1,60(s0)
9d0094d8:	90530000 	lbu	s3,0(v0)
9d0094dc:	27a20018 	addiu	v0,sp,24
9d0094e0:	00531021 	addu	v0,v0,s3
9d0094e4:	90420001 	lbu	v0,1(v0)
9d0094e8:	1440004b 	bnez	v0,9d009618 <__scanf_core+0x738>
9d0094ec:	0000b825 	move	s7,zero
9d0094f0:	10000037 	b	9d0095d0 <__scanf_core+0x6f0>
9d0094f4:	8e02004c 	lw	v0,76(s0)
9d0094f8:	1464ffe7 	bne	v1,a0,9d009498 <__scanf_core+0x5b8>
9d0094fc:	24420001 	addiu	v0,v0,1
9d009500:	afa201b4 	sw	v0,436(sp)
9d009504:	24020001 	li	v0,1
9d009508:	00511023 	subu	v0,v0,s1
9d00950c:	1000ffe2 	b	9d009498 <__scanf_core+0x5b8>
9d009510:	a3a20076 	sb	v0,118(sp)
9d009514:	1040ffe8 	beqz	v0,9d0094b8 <__scanf_core+0x5d8>
9d009518:	00000000 	nop
9d00951c:	10460009 	beq	v0,a2,9d009544 <__scanf_core+0x664>
9d009520:	8fa201b8 	lw	v0,440(sp)
9d009524:	8fa201b4 	lw	v0,436(sp)
9d009528:	27a40018 	addiu	a0,sp,24
9d00952c:	80430000 	lb	v1,0(v0)
9d009530:	24420001 	addiu	v0,v0,1
9d009534:	afa201b4 	sw	v0,436(sp)
9d009538:	00831821 	addu	v1,a0,v1
9d00953c:	1000ffda 	b	9d0094a8 <__scanf_core+0x5c8>
9d009540:	a0710001 	sb	s1,1(v1)
9d009544:	80420000 	lb	v0,0(v0)
9d009548:	5040fff7 	beqzl	v0,9d009528 <__scanf_core+0x648>
9d00954c:	8fa201b4 	lw	v0,436(sp)
9d009550:	1045fff4 	beq	v0,a1,9d009524 <__scanf_core+0x644>
9d009554:	24620001 	addiu	v0,v1,1
9d009558:	afa201b4 	sw	v0,436(sp)
9d00955c:	8fa201b0 	lw	v0,432(sp)
9d009560:	80420000 	lb	v0,0(v0)
9d009564:	80640001 	lb	a0,1(v1)
9d009568:	0044202a 	slt	a0,v0,a0
9d00956c:	1080ffed 	beqz	a0,9d009524 <__scanf_core+0x644>
9d009570:	24420001 	addiu	v0,v0,1
9d009574:	27a40018 	addiu	a0,sp,24
9d009578:	00822021 	addu	a0,a0,v0
9d00957c:	1000fff9 	b	9d009564 <__scanf_core+0x684>
9d009580:	a0910000 	sb	s1,0(a0)
9d009584:	a0530000 	sb	s3,0(v0)
9d009588:	8fa201b0 	lw	v0,432(sp)
9d00958c:	26310001 	addiu	s1,s1,1
9d009590:	24420001 	addiu	v0,v0,1
9d009594:	afa201b0 	sw	v0,432(sp)
9d009598:	8e02003c 	lw	v0,60(s0)
9d00959c:	8e03004c 	lw	v1,76(s0)
9d0095a0:	0043182b 	sltu	v1,v0,v1
9d0095a4:	10600018 	beqz	v1,9d009608 <__scanf_core+0x728>
9d0095a8:	0220b825 	move	s7,s1
9d0095ac:	24430001 	addiu	v1,v0,1
9d0095b0:	ae03003c 	sw	v1,60(s0)
9d0095b4:	90530000 	lbu	s3,0(v0)
9d0095b8:	27a20018 	addiu	v0,sp,24
9d0095bc:	00531021 	addu	v0,v0,s3
9d0095c0:	90420001 	lbu	v0,1(v0)
9d0095c4:	1440ffef 	bnez	v0,9d009584 <__scanf_core+0x6a4>
9d0095c8:	02911021 	addu	v0,s4,s1
9d0095cc:	8e02004c 	lw	v0,76(s0)
9d0095d0:	10400005 	beqz	v0,9d0095e8 <__scanf_core+0x708>
9d0095d4:	8fa201b4 	lw	v0,436(sp)
9d0095d8:	8e02003c 	lw	v0,60(s0)
9d0095dc:	2442ffff 	addiu	v0,v0,-1
9d0095e0:	ae02003c 	sw	v0,60(s0)
9d0095e4:	8fa201b4 	lw	v0,436(sp)
9d0095e8:	24420001 	addiu	v0,v0,1
9d0095ec:	12e0fe8f 	beqz	s7,9d00902c <__scanf_core+0x14c>
9d0095f0:	afa201b4 	sw	v0,436(sp)
9d0095f4:	1280fe8d 	beqz	s4,9d00902c <__scanf_core+0x14c>
9d0095f8:	24110001 	li	s1,1
9d0095fc:	0297a021 	addu	s4,s4,s7
9d009600:	1000ff3b 	b	9d0092f0 <__scanf_core+0x410>
9d009604:	a2800000 	sb	zero,0(s4)
9d009608:	0f403a56 	jal	9d00e958 <__shgetc>
9d00960c:	02002025 	move	a0,s0
9d009610:	1000ffe9 	b	9d0095b8 <__scanf_core+0x6d8>
9d009614:	00409825 	move	s3,v0
9d009618:	8fa201b0 	lw	v0,432(sp)
9d00961c:	24420001 	addiu	v0,v0,1
9d009620:	1000ffa7 	b	9d0094c0 <__scanf_core+0x5e0>
9d009624:	afa201b0 	sw	v0,432(sp)
9d009628:	0f403a56 	jal	9d00e958 <__shgetc>
9d00962c:	02002025 	move	a0,s0
9d009630:	1000ffaa 	b	9d0094dc <__scanf_core+0x5fc>
9d009634:	00409825 	move	s3,v0

Disassembly of section .text:

9d009638 <makeWaveform>:
unsigned int adc_sample_convert(int);
static volatile int eint = 0;
// plot data
static volatile float Kp = 0, Ki = 0, eintmax = 1000; // control gains

void makeWaveform() {
9d009638:	24040001 	li	a0,1
9d00963c:	00001025 	move	v0,zero
    int i = 0, center = 500, A = 300; // center and amplitude
    for (i = 0; i < NUMSAMPS; ++i) {
        if (i < NUMSAMPS/2) {
            Waveform[i] = center + A; // High part of the square wave
        } else {
            Waveform[i] = center - A; // Low part of the square wave
9d009640:	3c03a000 	lui	v1,0xa000
9d009644:	24630728 	addiu	v1,v1,1832
9d009648:	240700c8 	li	a3,200
            Waveform[i] = center + A; // High part of the square wave
9d00964c:	24060320 	li	a2,800
        if (i < NUMSAMPS/2) {
9d009650:	284501f4 	slti	a1,v0,500
9d009654:	10a00006 	beqz	a1,9d009670 <makeWaveform+0x38>
9d009658:	00022880 	sll	a1,v0,0x2
            Waveform[i] = center + A; // High part of the square wave
9d00965c:	00a32821 	addu	a1,a1,v1
9d009660:	aca60000 	sw	a2,0(a1)
9d009664:	24420001 	addiu	v0,v0,1
9d009668:	1000fff9 	b	9d009650 <makeWaveform+0x18>
9d00966c:	24840001 	addiu	a0,a0,1
            Waveform[i] = center - A; // Low part of the square wave
9d009670:	00a32821 	addu	a1,a1,v1
9d009674:	aca70000 	sw	a3,0(a1)
    for (i = 0; i < NUMSAMPS; ++i) {
9d009678:	288503e8 	slti	a1,a0,1000
9d00967c:	14a0fffa 	bnez	a1,9d009668 <makeWaveform+0x30>
9d009680:	24420001 	addiu	v0,v0,1
        }
    }
}
9d009684:	03e00008 	jr	ra
9d009688:	00000000 	nop

9d00968c <ADC_Startup>:

void ADC_Startup(){
  ANSELAbits.ANSA1 = 1; // AN1 is an adc pin
9d00968c:	3c03bf88 	lui	v1,0xbf88
9d009690:	90646000 	lbu	a0,24576(v1)
9d009694:	24020001 	li	v0,1
9d009698:	7c440844 	ins	a0,v0,0x1,0x1
9d00969c:	a0646000 	sb	a0,24576(v1)
  AD1CON3bits.ADCS = 1; // ADC clock period is Tad = 2*(ADCS+1)*Tpb =2*2*(1/48000000Hz) = 83ns > 75ns
9d0096a0:	3c03bf81 	lui	v1,0xbf81
9d0096a4:	a0629020 	sb	v0,-28640(v1)
  AD1CON1bits.ADON = 1;
9d0096a8:	3c03bf81 	lui	v1,0xbf81
9d0096ac:	94649000 	lhu	a0,-28672(v1)
9d0096b0:	7c447bc4 	ins	a0,v0,0xf,0x1
9d0096b4:	a4649000 	sh	a0,-28672(v1)
}
9d0096b8:	03e00008 	jr	ra
9d0096bc:	00000000 	nop

9d0096c0 <adc_sample_convert>:

unsigned int adc_sample_convert(int pin)
{
9d0096c0:	27bdfff8 	addiu	sp,sp,-8
9d0096c4:	afbf0004 	sw	ra,4(sp)
  unsigned int elapsed = 0, finish_time = 0;
  AD1CHSbits.CH0SA = pin;
9d0096c8:	3c02bf81 	lui	v0,0xbf81
9d0096cc:	8c439040 	lw	v1,-28608(v0)
9d0096d0:	7c839c04 	ins	v1,a0,0x10,0x4
9d0096d4:	ac439040 	sw	v1,-28608(v0)
  AD1CON1bits.SAMP = 1;
9d0096d8:	3c02bf81 	lui	v0,0xbf81
9d0096dc:	94439000 	lhu	v1,-28672(v0)
9d0096e0:	24040001 	li	a0,1
9d0096e4:	7c830844 	ins	v1,a0,0x1,0x1
9d0096e8:	a4439000 	sh	v1,-28672(v0)
  elapsed = _CP0_GET_COUNT();
9d0096ec:	40024800 	mfc0	v0,c0_count
  finish_time = elapsed + SAMPLE_TIME;
9d0096f0:	24420006 	addiu	v0,v0,6
  while (_CP0_GET_COUNT() < finish_time)
9d0096f4:	40034800 	mfc0	v1,c0_count
9d0096f8:	0062182b 	sltu	v1,v1,v0
9d0096fc:	1460fffd 	bnez	v1,9d0096f4 <adc_sample_convert+0x34>
9d009700:	00000000 	nop
  {
    ;
  }
  AD1CON1bits.SAMP = 0;
9d009704:	3c02bf81 	lui	v0,0xbf81
9d009708:	94439000 	lhu	v1,-28672(v0)
9d00970c:	7c030844 	ins	v1,zero,0x1,0x1
9d009710:	a4439000 	sh	v1,-28672(v0)
  while (!AD1CON1bits.DONE)
9d009714:	00401825 	move	v1,v0
9d009718:	8c629000 	lw	v0,-28672(v1)
9d00971c:	30420001 	andi	v0,v0,0x1
9d009720:	1040fffd 	beqz	v0,9d009718 <adc_sample_convert+0x58>
9d009724:	3c02bf81 	lui	v0,0xbf81
  {
    ;
  }
  return ADC1BUF0;
9d009728:	8c429070 	lw	v0,-28560(v0)
}
9d00972c:	8fbf0004 	lw	ra,4(sp)
9d009730:	03e00008 	jr	ra
9d009734:	27bd0008 	addiu	sp,sp,8

9d009738 <Controller>:

void __ISR(_TIMER_2_VECTOR, IPL5SOFT) Controller(void) {
9d009738:	415de800 	rdpgpr	sp,sp
9d00973c:	401a7000 	mfc0	k0,c0_epc
9d009740:	401b6000 	mfc0	k1,c0_status
9d009744:	27bdff70 	addiu	sp,sp,-144
9d009748:	afba008c 	sw	k0,140(sp)
9d00974c:	401a6002 	mfc0	k0,c0_srsctl
9d009750:	afbb0088 	sw	k1,136(sp)
9d009754:	afba0084 	sw	k0,132(sp)
9d009758:	7c1b7844 	ins	k1,zero,0x1,0xf
9d00975c:	377b1400 	ori	k1,k1,0x1400
9d009760:	409b6000 	mtc0	k1,c0_status
9d009764:	afbf0074 	sw	ra,116(sp)
9d009768:	afbe0070 	sw	s8,112(sp)
9d00976c:	afb9006c 	sw	t9,108(sp)
9d009770:	afb80068 	sw	t8,104(sp)
9d009774:	afb50064 	sw	s5,100(sp)
9d009778:	afb40060 	sw	s4,96(sp)
9d00977c:	afb3005c 	sw	s3,92(sp)
9d009780:	afb20058 	sw	s2,88(sp)
9d009784:	afb10054 	sw	s1,84(sp)
9d009788:	afb00050 	sw	s0,80(sp)
9d00978c:	afaf004c 	sw	t7,76(sp)
9d009790:	afae0048 	sw	t6,72(sp)
9d009794:	afad0044 	sw	t5,68(sp)
9d009798:	afac0040 	sw	t4,64(sp)
9d00979c:	afab003c 	sw	t3,60(sp)
9d0097a0:	afaa0038 	sw	t2,56(sp)
9d0097a4:	afa90034 	sw	t1,52(sp)
9d0097a8:	afa80030 	sw	t0,48(sp)
9d0097ac:	afa7002c 	sw	a3,44(sp)
9d0097b0:	afa60028 	sw	a2,40(sp)
9d0097b4:	afa50024 	sw	a1,36(sp)
9d0097b8:	afa40020 	sw	a0,32(sp)
9d0097bc:	afa3001c 	sw	v1,28(sp)
9d0097c0:	afa20018 	sw	v0,24(sp)
9d0097c4:	afa10014 	sw	at,20(sp)
9d0097c8:	00001012 	mflo	v0
9d0097cc:	afa2007c 	sw	v0,124(sp)
9d0097d0:	00001810 	mfhi	v1
9d0097d4:	afa30078 	sw	v1,120(sp)
9d0097d8:	03a0f025 	move	s8,sp
    static int counter = 0; // initialize counter once
    static int plotind = 0; // index for data arrays; counts up to PLOTPTS
    static int decctr = 0; // counts to store data one every DECIMATION
    static int adcval = 0; //
    
    adcval = adc_sample_convert(1); // sample the ADC
9d0097dc:	0f4025b0 	jal	9d0096c0 <adc_sample_convert>
9d0097e0:	24040001 	li	a0,1
9d0097e4:	0040a025 	move	s4,v0

    float e = Waveform[counter] - adcval; // calculate the error
9d0097e8:	8f908020 	lw	s0,-32736(gp)
9d0097ec:	00101080 	sll	v0,s0,0x2
9d0097f0:	3c03a000 	lui	v1,0xa000
9d0097f4:	24630728 	addiu	v1,v1,1832
9d0097f8:	00431021 	addu	v0,v0,v1
9d0097fc:	8c440000 	lw	a0,0(v0)
9d009800:	0f403ec5 	jal	9d00fb14 <__floatsisf>
9d009804:	00942023 	subu	a0,a0,s4
9d009808:	00408825 	move	s1,v0
    eint = eint + e; // update the error integral
9d00980c:	8f84802c 	lw	a0,-32724(gp)
9d009810:	0f403ec5 	jal	9d00fb14 <__floatsisf>
9d009814:	00000000 	nop
9d009818:	02202825 	move	a1,s1
9d00981c:	0f40330b 	jal	9d00cc2c <__addsf3>
9d009820:	00402025 	move	a0,v0
9d009824:	0f403d53 	jal	9d00f54c <__fixsfsi>
9d009828:	00402025 	move	a0,v0
9d00982c:	af82802c 	sw	v0,-32724(gp)
    if (eint > eintmax) {
9d009830:	8f84802c 	lw	a0,-32724(gp)
9d009834:	8f928010 	lw	s2,-32752(gp)
9d009838:	0f403ec5 	jal	9d00fb14 <__floatsisf>
9d00983c:	00000000 	nop
9d009840:	02402825 	move	a1,s2
9d009844:	0f403ba5 	jal	9d00ee94 <__eqsf2>
9d009848:	00402025 	move	a0,v0
9d00984c:	1840007b 	blez	v0,9d009a3c <Controller+0x304>
9d009850:	00000000 	nop
        eint = eintmax;
9d009854:	8f848010 	lw	a0,-32752(gp)
9d009858:	0f403d53 	jal	9d00f54c <__fixsfsi>
9d00985c:	00000000 	nop
9d009860:	af82802c 	sw	v0,-32724(gp)
    } else if (eint < -eintmax) {
        eint = -eintmax;
    }
    float u = Kp * e + Ki * eint; // calculate the control effort
9d009864:	8f938028 	lw	s3,-32728(gp)
9d009868:	8f84802c 	lw	a0,-32724(gp)
9d00986c:	8f928024 	lw	s2,-32732(gp)
9d009870:	0f403ec5 	jal	9d00fb14 <__floatsisf>
9d009874:	00000000 	nop
9d009878:	02402825 	move	a1,s2
9d00987c:	0f403417 	jal	9d00d05c <__mulsf3>
9d009880:	00402025 	move	a0,v0
9d009884:	00409025 	move	s2,v0
9d009888:	02202825 	move	a1,s1
9d00988c:	0f403417 	jal	9d00d05c <__mulsf3>
9d009890:	02602025 	move	a0,s3
9d009894:	00402825 	move	a1,v0
9d009898:	0f40330b 	jal	9d00cc2c <__addsf3>
9d00989c:	02402025 	move	a0,s2

    float unew = u + 50.0;
9d0098a0:	3c039d00 	lui	v1,0x9d00
9d0098a4:	8c6574ac 	lw	a1,29868(v1)
9d0098a8:	0f40330b 	jal	9d00cc2c <__addsf3>
9d0098ac:	00402025 	move	a0,v0
9d0098b0:	00408825 	move	s1,v0
    if (unew > 100.0) {
9d0098b4:	3c029d00 	lui	v0,0x9d00
9d0098b8:	8c4574a8 	lw	a1,29864(v0)
9d0098bc:	0f403ba5 	jal	9d00ee94 <__eqsf2>
9d0098c0:	02202025 	move	a0,s1
9d0098c4:	1c40006e 	bgtz	v0,9d009a80 <Controller+0x348>
9d0098c8:	3c029d00 	lui	v0,0x9d00
       unew = 100.0;
    } else if (unew < 0.0) {
9d0098cc:	00002825 	move	a1,zero
9d0098d0:	0f403bcc 	jal	9d00ef30 <fpcmplt>
9d0098d4:	02202025 	move	a0,s1
9d0098d8:	04420001 	bltzl	v0,9d0098e0 <Controller+0x1a8>
9d0098dc:	00008825 	move	s1,zero
       unew = 0.0;
    }

    OC1RS = (unsigned int) ((unew/100.0) * PR3);
9d0098e0:	3c02bf80 	lui	v0,0xbf80
9d0098e4:	8c550a20 	lw	s5,2592(v0)
9d0098e8:	0f403aaf 	jal	9d00eabc <__extendsfdf2>
9d0098ec:	02202025 	move	a0,s1
9d0098f0:	3c049d00 	lui	a0,0x9d00
9d0098f4:	8c8674b0 	lw	a2,29872(a0)
9d0098f8:	8c8774b4 	lw	a3,29876(a0)
9d0098fc:	00402025 	move	a0,v0
9d009900:	0f4028a3 	jal	9d00a28c <__divdf3>
9d009904:	00602825 	move	a1,v1
9d009908:	00409025 	move	s2,v0
9d00990c:	00609825 	move	s3,v1
9d009910:	0f403fd1 	jal	9d00ff44 <__floatunsidf>
9d009914:	02a02025 	move	a0,s5
9d009918:	00403025 	move	a2,v0
9d00991c:	00603825 	move	a3,v1
9d009920:	02402025 	move	a0,s2
9d009924:	0f4030ed 	jal	9d00c3b4 <__muldf3>
9d009928:	02602825 	move	a1,s3
9d00992c:	00402025 	move	a0,v0
9d009930:	0f403c86 	jal	9d00f218 <__fixunsdfsi>
9d009934:	00602825 	move	a1,v1
9d009938:	3c11bf80 	lui	s1,0xbf80
9d00993c:	ae223020 	sw	v0,12320(s1)


    if (StoringData) {
9d009940:	8f918030 	lw	s1,-32720(gp)
9d009944:	1220000c 	beqz	s1,9d009978 <Controller+0x240>
9d009948:	8f91801c 	lw	s1,-32740(gp)
        decctr++;
9d00994c:	26310001 	addiu	s1,s1,1
        if (decctr == DECIMATION) { // after DECIMATION control loops,
9d009950:	2412000a 	li	s2,10
9d009954:	5232004c 	beql	s1,s2,9d009a88 <Controller+0x350>
9d009958:	af80801c 	sw	zero,-32740(gp)
        decctr++;
9d00995c:	af91801c 	sw	s1,-32740(gp)
            decctr = 0; // reset decimation counter
            ADCarray[plotind] = adcval; // store data in global arrays
            REFarray[plotind] = Waveform[counter];
            plotind++; // increment plot data index
        }
        if (plotind == PLOTPTS) { // if max number of plot points plot is reached,
9d009960:	8f928018 	lw	s2,-32744(gp)
9d009964:	241100c8 	li	s1,200
9d009968:	56510004 	bnel	s2,s1,9d00997c <Controller+0x244>
9d00996c:	26100001 	addiu	s0,s0,1
            plotind = 0; // reset the plot index
9d009970:	af808018 	sw	zero,-32744(gp)
            StoringData = 0; // tell main data is ready to be sent to MATLAB
9d009974:	af808030 	sw	zero,-32720(gp)
        }
    }
    counter++; // add one to counter every time ISR is entered
9d009978:	26100001 	addiu	s0,s0,1
9d00997c:	3a1103e8 	xori	s1,s0,0x3e8
9d009980:	0011800a 	movz	s0,zero,s1
9d009984:	af908020 	sw	s0,-32736(gp)
    if (counter == NUMSAMPS) {
        counter = 0; // rollover counter over when end of waveform reached
    }

    IFS0bits.T2IF = 0;         // Clear Timer2 interrupt flag
9d009988:	3c10bf88 	lui	s0,0xbf88
9d00998c:	8e111030 	lw	s1,4144(s0)
9d009990:	7c114a44 	ins	s1,zero,0x9,0x1
9d009994:	ae111030 	sw	s1,4144(s0)
}
9d009998:	03c0e825 	move	sp,s8
9d00999c:	8fa2007c 	lw	v0,124(sp)
9d0099a0:	00400013 	mtlo	v0
9d0099a4:	8fa30078 	lw	v1,120(sp)
9d0099a8:	00600011 	mthi	v1
9d0099ac:	8fbf0074 	lw	ra,116(sp)
9d0099b0:	8fbe0070 	lw	s8,112(sp)
9d0099b4:	8fb9006c 	lw	t9,108(sp)
9d0099b8:	8fb80068 	lw	t8,104(sp)
9d0099bc:	8fb50064 	lw	s5,100(sp)
9d0099c0:	8fb40060 	lw	s4,96(sp)
9d0099c4:	8fb3005c 	lw	s3,92(sp)
9d0099c8:	8fb20058 	lw	s2,88(sp)
9d0099cc:	8fb10054 	lw	s1,84(sp)
9d0099d0:	8fb00050 	lw	s0,80(sp)
9d0099d4:	8faf004c 	lw	t7,76(sp)
9d0099d8:	8fae0048 	lw	t6,72(sp)
9d0099dc:	8fad0044 	lw	t5,68(sp)
9d0099e0:	8fac0040 	lw	t4,64(sp)
9d0099e4:	8fab003c 	lw	t3,60(sp)
9d0099e8:	8faa0038 	lw	t2,56(sp)
9d0099ec:	8fa90034 	lw	t1,52(sp)
9d0099f0:	8fa80030 	lw	t0,48(sp)
9d0099f4:	8fa7002c 	lw	a3,44(sp)
9d0099f8:	8fa60028 	lw	a2,40(sp)
9d0099fc:	8fa50024 	lw	a1,36(sp)
9d009a00:	8fa40020 	lw	a0,32(sp)
9d009a04:	8fa3001c 	lw	v1,28(sp)
9d009a08:	8fa20018 	lw	v0,24(sp)
9d009a0c:	8fa10014 	lw	at,20(sp)
9d009a10:	41606000 	di
9d009a14:	000000c0 	ehb
9d009a18:	8fba008c 	lw	k0,140(sp)
9d009a1c:	8fbb0088 	lw	k1,136(sp)
9d009a20:	409a7000 	mtc0	k0,c0_epc
9d009a24:	8fba0084 	lw	k0,132(sp)
9d009a28:	27bd0090 	addiu	sp,sp,144
9d009a2c:	409a6002 	mtc0	k0,c0_srsctl
9d009a30:	41dde800 	wrpgpr	sp,sp
9d009a34:	409b6000 	mtc0	k1,c0_status
9d009a38:	42000018 	eret
    } else if (eint < -eintmax) {
9d009a3c:	8f84802c 	lw	a0,-32724(gp)
9d009a40:	8f928010 	lw	s2,-32752(gp)
9d009a44:	0f403ec5 	jal	9d00fb14 <__floatsisf>
9d009a48:	00000000 	nop
9d009a4c:	3c058000 	lui	a1,0x8000
9d009a50:	00b22826 	xor	a1,a1,s2
9d009a54:	0f403bcc 	jal	9d00ef30 <fpcmplt>
9d009a58:	00402025 	move	a0,v0
9d009a5c:	0441ff81 	bgez	v0,9d009864 <Controller+0x12c>
9d009a60:	00000000 	nop
        eint = -eintmax;
9d009a64:	8f828010 	lw	v0,-32752(gp)
9d009a68:	3c048000 	lui	a0,0x8000
9d009a6c:	0f403d53 	jal	9d00f54c <__fixsfsi>
9d009a70:	00822026 	xor	a0,a0,v0
9d009a74:	af82802c 	sw	v0,-32724(gp)
9d009a78:	1000ff7a 	b	9d009864 <Controller+0x12c>
9d009a7c:	00000000 	nop
       unew = 100.0;
9d009a80:	1000ff97 	b	9d0098e0 <Controller+0x1a8>
9d009a84:	8c5174a8 	lw	s1,29864(v0)
            ADCarray[plotind] = adcval; // store data in global arrays
9d009a88:	8f928018 	lw	s2,-32744(gp)
9d009a8c:	00129880 	sll	s3,s2,0x2
9d009a90:	3c11a000 	lui	s1,0xa000
9d009a94:	26310408 	addiu	s1,s1,1032
9d009a98:	02718821 	addu	s1,s3,s1
9d009a9c:	ae340000 	sw	s4,0(s1)
            REFarray[plotind] = Waveform[counter];
9d009aa0:	00108880 	sll	s1,s0,0x2
9d009aa4:	3c14a000 	lui	s4,0xa000
9d009aa8:	26940728 	addiu	s4,s4,1832
9d009aac:	02348821 	addu	s1,s1,s4
9d009ab0:	8e340000 	lw	s4,0(s1)
9d009ab4:	3c11a000 	lui	s1,0xa000
9d009ab8:	263100e8 	addiu	s1,s1,232
9d009abc:	02719821 	addu	s3,s3,s1
9d009ac0:	ae740000 	sw	s4,0(s3)
            plotind++; // increment plot data index
9d009ac4:	26520001 	addiu	s2,s2,1
9d009ac8:	1000ffa5 	b	9d009960 <Controller+0x228>
9d009acc:	af928018 	sw	s2,-32744(gp)

9d009ad0 <main>:

int main(void)
{
9d009ad0:	27bdff58 	addiu	sp,sp,-168
9d009ad4:	afbf00a4 	sw	ra,164(sp)
9d009ad8:	afb600a0 	sw	s6,160(sp)
9d009adc:	afb5009c 	sw	s5,156(sp)
9d009ae0:	afb40098 	sw	s4,152(sp)
9d009ae4:	afb30094 	sw	s3,148(sp)
9d009ae8:	afb20090 	sw	s2,144(sp)
9d009aec:	afb1008c 	sw	s1,140(sp)
    NU32DIP_Startup();
9d009af0:	0f4033a7 	jal	9d00ce9c <NU32DIP_Startup>
9d009af4:	afb00088 	sw	s0,136(sp)
    makeWaveform();            // Create the square waveform
9d009af8:	0f40258e 	jal	9d009638 <makeWaveform>
9d009afc:	00000000 	nop

    char message[100]; // message to and from python
    float kptemp = 0, kitemp = 0, eintmaxtemp = 0; // temporary local gains
9d009b00:	00001025 	move	v0,zero
9d009b04:	afa2007c 	sw	v0,124(sp)
9d009b08:	afa20080 	sw	v0,128(sp)
9d009b0c:	afa20084 	sw	v0,132(sp)
    int i = 0; // plot data loop counter

    ANSELA = 0;                // Turn off analog inputs
9d009b10:	3c02bf88 	lui	v0,0xbf88
9d009b14:	ac406000 	sw	zero,24576(v0)
    RPA0Rbits.RPA0R = 0b0101;  // Map OC1 to pin RPA0 
9d009b18:	3c02bf81 	lui	v0,0xbf81
9d009b1c:	9043fb00 	lbu	v1,-1280(v0)
9d009b20:	24100005 	li	s0,5
9d009b24:	7e031804 	ins	v1,s0,0x0,0x4
9d009b28:	a043fb00 	sb	v1,-1280(v0)

    ADC_Startup();             // Initialize the ADC
9d009b2c:	0f4025a3 	jal	9d00968c <ADC_Startup>
9d009b30:	00000000 	nop

    // Configure Timer3 for PWM at 20kHz
    T3CONbits.TCKPS = 0;       // Prescaler = 1
9d009b34:	3c04bf80 	lui	a0,0xbf80
9d009b38:	94820a00 	lhu	v0,2560(a0)
9d009b3c:	7c023104 	ins	v0,zero,0x4,0x3
9d009b40:	a4820a00 	sh	v0,2560(a0)
    PR3 = NU32DIP_SYS_FREQ/20000 - 1;                // 20kHz period
9d009b44:	3c02bf80 	lui	v0,0xbf80
9d009b48:	2403095f 	li	v1,2399
9d009b4c:	ac430a20 	sw	v1,2592(v0)
    TMR3 = 0;
9d009b50:	3c02bf80 	lui	v0,0xbf80
9d009b54:	ac400a10 	sw	zero,2576(v0)
    OC1CONbits.OCTSEL = 1;     // Timer3 as the clock source for OC1
9d009b58:	3c02bf80 	lui	v0,0xbf80
9d009b5c:	94453000 	lhu	a1,12288(v0)
9d009b60:	24030001 	li	v1,1
9d009b64:	7c6518c4 	ins	a1,v1,0x3,0x1
9d009b68:	a4453000 	sh	a1,12288(v0)
    OC1CONbits.OCM = 0b110;    // PWM mode without fault
9d009b6c:	94453000 	lhu	a1,12288(v0)
9d009b70:	24060006 	li	a2,6
9d009b74:	7cc51004 	ins	a1,a2,0x0,0x3
9d009b78:	a4453000 	sh	a1,12288(v0)
    OC1R = 500;                // Initial duty cycle
9d009b7c:	240501f4 	li	a1,500
9d009b80:	3c06bf80 	lui	a2,0xbf80
9d009b84:	acc53010 	sw	a1,12304(a2)
    OC1RS = 500;               
9d009b88:	3c06bf80 	lui	a2,0xbf80
9d009b8c:	acc53020 	sw	a1,12320(a2)
    T3CONbits.ON = 1;          // Turn on Timer3
9d009b90:	94850a00 	lhu	a1,2560(a0)
9d009b94:	7c657bc4 	ins	a1,v1,0xf,0x1
9d009b98:	a4850a00 	sh	a1,2560(a0)
    OC1CONbits.ON = 1;         // Turn on OC1
9d009b9c:	94443000 	lhu	a0,12288(v0)
9d009ba0:	7c647bc4 	ins	a0,v1,0xf,0x1
9d009ba4:	a4443000 	sh	a0,12288(v0)

    // Configure Timer2 for 1 kHz ISR
    T2CONbits.TCKPS = 0b111;   // Prescaler = 256
9d009ba8:	3c02bf80 	lui	v0,0xbf80
9d009bac:	94440800 	lhu	a0,2048(v0)
9d009bb0:	24050007 	li	a1,7
9d009bb4:	7ca43104 	ins	a0,a1,0x4,0x3
9d009bb8:	a4440800 	sh	a0,2048(v0)
    PR2 = NU32DIP_SYS_FREQ/(256 * 1000) - 1;                  // 1kHz at PBCLK=48MHz (48,000,000 / 256 / 1000 - 1)
9d009bbc:	3c04bf80 	lui	a0,0xbf80
9d009bc0:	240500ba 	li	a1,186
9d009bc4:	ac850820 	sw	a1,2080(a0)
    TMR2 = 0;
9d009bc8:	3c04bf80 	lui	a0,0xbf80
9d009bcc:	ac800810 	sw	zero,2064(a0)
    IPC2bits.T2IP = 5;         // Interrupt priority 5
9d009bd0:	3c04bf88 	lui	a0,0xbf88
9d009bd4:	8c8510b0 	lw	a1,4272(a0)
9d009bd8:	7e052084 	ins	a1,s0,0x2,0x3
9d009bdc:	ac8510b0 	sw	a1,4272(a0)
    IPC2bits.T2IS = 0;         // Subpriority 0
9d009be0:	8c8510b0 	lw	a1,4272(a0)
9d009be4:	7c050804 	ins	a1,zero,0x0,0x2
9d009be8:	ac8510b0 	sw	a1,4272(a0)
    IFS0bits.T2IF = 0;         // Clear interrupt flag
9d009bec:	3c04bf88 	lui	a0,0xbf88
9d009bf0:	8c851030 	lw	a1,4144(a0)
9d009bf4:	7c054a44 	ins	a1,zero,0x9,0x1
9d009bf8:	ac851030 	sw	a1,4144(a0)
    IEC0bits.T2IE = 1;         // Enable interrupt
9d009bfc:	3c04bf88 	lui	a0,0xbf88
9d009c00:	8c851060 	lw	a1,4192(a0)
9d009c04:	7c654a44 	ins	a1,v1,0x9,0x1
9d009c08:	ac851060 	sw	a1,4192(a0)
    T2CONbits.ON = 1;          // Turn on Timer2
9d009c0c:	94440800 	lhu	a0,2048(v0)
9d009c10:	7c647bc4 	ins	a0,v1,0xf,0x1
9d009c14:	a4440800 	sh	a0,2048(v0)

    __builtin_enable_interrupts(); // Enable global interrupts
9d009c18:	41626020 	ei	v0

    while (1) {
        NU32DIP_ReadUART1(message, sizeof(message)); // wait for a message from MATLAB
        sscanf(message, "%f %f %f" , &kptemp, &kitemp, &eintmaxtemp);
9d009c1c:	27b60084 	addiu	s6,sp,132
9d009c20:	3c149d00 	lui	s4,0x9d00
9d009c24:	26947490 	addiu	s4,s4,29840
        while (StoringData) { // wait until ISR says data storing is done
        ; // do nothing
        }
        for (i=0; i<PLOTPTS; i++) { // send plot data to MATLAB
        // when first number sent = 1, MATLAB knows were done
        sprintf(message, "%d %d %d\r\n", PLOTPTS-i, ADCarray[i], REFarray[i]);
9d009c28:	3c13a000 	lui	s3,0xa000
9d009c2c:	26730408 	addiu	s3,s3,1032
9d009c30:	3c12a000 	lui	s2,0xa000
9d009c34:	265200e8 	addiu	s2,s2,232
9d009c38:	3c119d00 	lui	s1,0x9d00
9d009c3c:	2631749c 	addiu	s1,s1,29852
        NU32DIP_ReadUART1(message, sizeof(message)); // wait for a message from MATLAB
9d009c40:	24050064 	li	a1,100
9d009c44:	0f4033ef 	jal	9d00cfbc <NU32DIP_ReadUART1>
9d009c48:	27a40018 	addiu	a0,sp,24
        sscanf(message, "%f %f %f" , &kptemp, &kitemp, &eintmaxtemp);
9d009c4c:	afb60010 	sw	s6,16(sp)
9d009c50:	27a70080 	addiu	a3,sp,128
9d009c54:	27a6007c 	addiu	a2,sp,124
9d009c58:	02802825 	move	a1,s4
9d009c5c:	0f4040de 	jal	9d010378 <_dsscanf_eEfFgGn>
9d009c60:	27a40018 	addiu	a0,sp,24
        __builtin_disable_interrupts(); // keep ISR disabled as briefly as possible
9d009c64:	41626000 	di	v0
9d009c68:	000000c0 	ehb
        Kp = kptemp; // copy local variables to globals used by ISR
9d009c6c:	8fa2007c 	lw	v0,124(sp)
9d009c70:	af828028 	sw	v0,-32728(gp)
        Ki = kitemp;
9d009c74:	8fa20080 	lw	v0,128(sp)
9d009c78:	af828024 	sw	v0,-32732(gp)
        eintmax = eintmaxtemp;
9d009c7c:	8fa20084 	lw	v0,132(sp)
9d009c80:	af828010 	sw	v0,-32752(gp)
        eint = 0; // reset the error integral
9d009c84:	af80802c 	sw	zero,-32724(gp)
        __builtin_enable_interrupts(); // only 2 simple C commands while ISRs disabled
9d009c88:	41626020 	ei	v0
        StoringData = 1; // message to ISR to start storing data
9d009c8c:	24020001 	li	v0,1
9d009c90:	af828030 	sw	v0,-32720(gp)
        while (StoringData) { // wait until ISR says data storing is done
9d009c94:	8f908030 	lw	s0,-32720(gp)
9d009c98:	1600fffe 	bnez	s0,9d009c94 <main+0x1c4>
9d009c9c:	00000000 	nop
        sprintf(message, "%d %d %d\r\n", PLOTPTS-i, ADCarray[i], REFarray[i]);
9d009ca0:	00101080 	sll	v0,s0,0x2
9d009ca4:	00531821 	addu	v1,v0,s3
9d009ca8:	8c670000 	lw	a3,0(v1)
9d009cac:	00521021 	addu	v0,v0,s2
9d009cb0:	8c420000 	lw	v0,0(v0)
9d009cb4:	241500c8 	li	s5,200
9d009cb8:	afa20010 	sw	v0,16(sp)
9d009cbc:	02b03023 	subu	a2,s5,s0
9d009cc0:	02202825 	move	a1,s1
9d009cc4:	0f4040d4 	jal	9d010350 <_dsprintf_dn>
9d009cc8:	27a40018 	addiu	a0,sp,24
        NU32DIP_WriteUART1(message);
9d009ccc:	0f403408 	jal	9d00d020 <NU32DIP_WriteUART1>
9d009cd0:	27a40018 	addiu	a0,sp,24
        for (i=0; i<PLOTPTS; i++) { // send plot data to MATLAB
9d009cd4:	26100001 	addiu	s0,s0,1
9d009cd8:	1615fff1 	bne	s0,s5,9d009ca0 <main+0x1d0>
9d009cdc:	24050064 	li	a1,100
9d009ce0:	1000ffd8 	b	9d009c44 <main+0x174>
9d009ce4:	00000000 	nop

Disassembly of section .text.__printf_core:

9d009ce8 <__printf_core>:
9d009ce8:	27bdff18 	addiu	sp,sp,-232
9d009cec:	afb400dc 	sw	s4,220(sp)
9d009cf0:	afb300d8 	sw	s3,216(sp)
9d009cf4:	afb200d4 	sw	s2,212(sp)
9d009cf8:	afb100d0 	sw	s1,208(sp)
9d009cfc:	afbf00e4 	sw	ra,228(sp)
9d009d00:	afb500e0 	sw	s5,224(sp)
9d009d04:	afb000cc 	sw	s0,204(sp)
9d009d08:	00809025 	move	s2,a0
9d009d0c:	00c08825 	move	s1,a2
9d009d10:	afa500b8 	sw	a1,184(sp)
9d009d14:	00009825 	move	s3,zero
9d009d18:	3c149d00 	lui	s4,0x9d00
9d009d1c:	8fa500b8 	lw	a1,184(sp)
9d009d20:	80a20000 	lb	v0,0(a1)
9d009d24:	104000e4 	beqz	v0,9d00a0b8 <__printf_core+0x3d0>
9d009d28:	2402ffff 	li	v0,-1
9d009d2c:	afa2009c 	sw	v0,156(sp)
9d009d30:	27a20018 	addiu	v0,sp,24
9d009d34:	afa200a4 	sw	v0,164(sp)
9d009d38:	24020080 	li	v0,128
9d009d3c:	afa00098 	sw	zero,152(sp)
9d009d40:	afa000a0 	sw	zero,160(sp)
9d009d44:	afa200a8 	sw	v0,168(sp)
9d009d48:	00008025 	move	s0,zero
9d009d4c:	24030025 	li	v1,37
9d009d50:	00b01021 	addu	v0,a1,s0
9d009d54:	80420000 	lb	v0,0(v0)
9d009d58:	10400003 	beqz	v0,9d009d68 <__printf_core+0x80>
9d009d5c:	00000000 	nop
9d009d60:	5443fffb 	bnel	v0,v1,9d009d50 <__printf_core+0x68>
9d009d64:	26100001 	addiu	s0,s0,1
9d009d68:	12000006 	beqz	s0,9d009d84 <__printf_core+0x9c>
9d009d6c:	02003025 	move	a2,s0
9d009d70:	0f403c62 	jal	9d00f188 <__out>
9d009d74:	02402025 	move	a0,s2
9d009d78:	8fa200b8 	lw	v0,184(sp)
9d009d7c:	00501021 	addu	v0,v0,s0
9d009d80:	afa200b8 	sw	v0,184(sp)
9d009d84:	8fb500b8 	lw	s5,184(sp)
9d009d88:	24020025 	li	v0,37
9d009d8c:	82a30000 	lb	v1,0(s5)
9d009d90:	146200c2 	bne	v1,v0,9d00a09c <__printf_core+0x3b4>
9d009d94:	26b50001 	addiu	s5,s5,1
9d009d98:	afb500b8 	sw	s5,184(sp)
9d009d9c:	2405002b 	li	a1,43
9d009da0:	2406002d 	li	a2,45
9d009da4:	24030030 	li	v1,48
9d009da8:	24070020 	li	a3,32
9d009dac:	24080023 	li	t0,35
9d009db0:	8fa400b8 	lw	a0,184(sp)
9d009db4:	80820000 	lb	v0,0(a0)
9d009db8:	5045001b 	beql	v0,a1,9d009e28 <__printf_core+0x140>
9d009dbc:	8fa20098 	lw	v0,152(sp)
9d009dc0:	2849002c 	slti	t1,v0,44
9d009dc4:	1120001e 	beqz	t1,9d009e40 <__printf_core+0x158>
9d009dc8:	00000000 	nop
9d009dcc:	50470018 	beql	v0,a3,9d009e30 <__printf_core+0x148>
9d009dd0:	8fa20098 	lw	v0,152(sp)
9d009dd4:	50480018 	beql	v0,t0,9d009e38 <__printf_core+0x150>
9d009dd8:	8fa20098 	lw	v0,152(sp)
9d009ddc:	2403002a 	li	v1,42
9d009de0:	5043001e 	beql	v0,v1,9d009e5c <__printf_core+0x174>
9d009de4:	8e220000 	lw	v0,0(s1)
9d009de8:	0f403db2 	jal	9d00f6c8 <atoi>
9d009dec:	00000000 	nop
9d009df0:	afa200a0 	sw	v0,160(sp)
9d009df4:	8fa300b8 	lw	v1,184(sp)
9d009df8:	80620000 	lb	v0,0(v1)
9d009dfc:	2442ffd0 	addiu	v0,v0,-48
9d009e00:	2c42000a 	sltiu	v0,v0,10
9d009e04:	10400021 	beqz	v0,9d009e8c <__printf_core+0x1a4>
9d009e08:	24630001 	addiu	v1,v1,1
9d009e0c:	1000fff9 	b	9d009df4 <__printf_core+0x10c>
9d009e10:	afa300b8 	sw	v1,184(sp)
9d009e14:	34420001 	ori	v0,v0,0x1
9d009e18:	24840001 	addiu	a0,a0,1
9d009e1c:	afa20098 	sw	v0,152(sp)
9d009e20:	1000ffe3 	b	9d009db0 <__printf_core+0xc8>
9d009e24:	afa400b8 	sw	a0,184(sp)
9d009e28:	1000fffb 	b	9d009e18 <__printf_core+0x130>
9d009e2c:	34420004 	ori	v0,v0,0x4
9d009e30:	1000fff9 	b	9d009e18 <__printf_core+0x130>
9d009e34:	34420008 	ori	v0,v0,0x8
9d009e38:	1000fff7 	b	9d009e18 <__printf_core+0x130>
9d009e3c:	34420010 	ori	v0,v0,0x10
9d009e40:	5046fff4 	beql	v0,a2,9d009e14 <__printf_core+0x12c>
9d009e44:	8fa20098 	lw	v0,152(sp)
9d009e48:	5443ffe5 	bnel	v0,v1,9d009de0 <__printf_core+0xf8>
9d009e4c:	2403002a 	li	v1,42
9d009e50:	8fa20098 	lw	v0,152(sp)
9d009e54:	1000fff0 	b	9d009e18 <__printf_core+0x130>
9d009e58:	34420002 	ori	v0,v0,0x2
9d009e5c:	24840001 	addiu	a0,a0,1
9d009e60:	afa400b8 	sw	a0,184(sp)
9d009e64:	24430004 	addiu	v1,v0,4
9d009e68:	8c420000 	lw	v0,0(v0)
9d009e6c:	ae230000 	sw	v1,0(s1)
9d009e70:	04410006 	bgez	v0,9d009e8c <__printf_core+0x1a4>
9d009e74:	afa200a0 	sw	v0,160(sp)
9d009e78:	8fa30098 	lw	v1,152(sp)
9d009e7c:	00021023 	negu	v0,v0
9d009e80:	afa200a0 	sw	v0,160(sp)
9d009e84:	38630001 	xori	v1,v1,0x1
9d009e88:	afa30098 	sw	v1,152(sp)
9d009e8c:	8fa20098 	lw	v0,152(sp)
9d009e90:	30430001 	andi	v1,v0,0x1
9d009e94:	10600002 	beqz	v1,9d009ea0 <__printf_core+0x1b8>
9d009e98:	7c020844 	ins	v0,zero,0x1,0x1
9d009e9c:	afa20098 	sw	v0,152(sp)
9d009ea0:	8fa200b8 	lw	v0,184(sp)
9d009ea4:	2403002e 	li	v1,46
9d009ea8:	80440000 	lb	a0,0(v0)
9d009eac:	1483000d 	bne	a0,v1,9d009ee4 <__printf_core+0x1fc>
9d009eb0:	24440001 	addiu	a0,v0,1
9d009eb4:	afa0009c 	sw	zero,156(sp)
9d009eb8:	afa400b8 	sw	a0,184(sp)
9d009ebc:	80450001 	lb	a1,1(v0)
9d009ec0:	2403002a 	li	v1,42
9d009ec4:	14a30023 	bne	a1,v1,9d009f54 <__printf_core+0x26c>
9d009ec8:	24420002 	addiu	v0,v0,2
9d009ecc:	afa200b8 	sw	v0,184(sp)
9d009ed0:	8e220000 	lw	v0,0(s1)
9d009ed4:	24430004 	addiu	v1,v0,4
9d009ed8:	8c420000 	lw	v0,0(v0)
9d009edc:	ae230000 	sw	v1,0(s1)
9d009ee0:	afa2009c 	sw	v0,156(sp)
9d009ee4:	0f403edd 	jal	9d00fb74 <__fmt_state>
9d009ee8:	27a400b8 	addiu	a0,sp,184
9d009eec:	afa200c0 	sw	v0,192(sp)
9d009ef0:	8fa200b8 	lw	v0,184(sp)
9d009ef4:	0f40414d 	jal	9d010534 <tolower>
9d009ef8:	80440000 	lb	a0,0(v0)
9d009efc:	24030069 	li	v1,105
9d009f00:	10430077 	beq	v0,v1,9d00a0e0 <__printf_core+0x3f8>
9d009f04:	8fa500c0 	lw	a1,192(sp)
9d009f08:	2843006a 	slti	v1,v0,106
9d009f0c:	1060002f 	beqz	v1,9d009fcc <__printf_core+0x2e4>
9d009f10:	24030063 	li	v1,99
9d009f14:	104300be 	beq	v0,v1,9d00a210 <__printf_core+0x528>
9d009f18:	28430064 	slti	v1,v0,100
9d009f1c:	10600018 	beqz	v1,9d009f80 <__printf_core+0x298>
9d009f20:	24030025 	li	v1,37
9d009f24:	104300cb 	beq	v0,v1,9d00a254 <__printf_core+0x56c>
9d009f28:	24030061 	li	v1,97
9d009f2c:	5043004f 	beql	v0,v1,9d00a06c <__printf_core+0x384>
9d009f30:	02203025 	move	a2,s1
9d009f34:	2402ffff 	li	v0,-1
9d009f38:	afb500b8 	sw	s5,184(sp)
9d009f3c:	afa00098 	sw	zero,152(sp)
9d009f40:	afa000a0 	sw	zero,160(sp)
9d009f44:	afa2009c 	sw	v0,156(sp)
9d009f48:	afa00010 	sw	zero,16(sp)
9d009f4c:	100000c9 	b	9d00a274 <__printf_core+0x58c>
9d009f50:	00003825 	move	a3,zero
9d009f54:	0f403db2 	jal	9d00f6c8 <atoi>
9d009f58:	00000000 	nop
9d009f5c:	afa2009c 	sw	v0,156(sp)
9d009f60:	8fa300b8 	lw	v1,184(sp)
9d009f64:	80620000 	lb	v0,0(v1)
9d009f68:	2442ffd0 	addiu	v0,v0,-48
9d009f6c:	2c42000a 	sltiu	v0,v0,10
9d009f70:	1040ffdc 	beqz	v0,9d009ee4 <__printf_core+0x1fc>
9d009f74:	24630001 	addiu	v1,v1,1
9d009f78:	1000fff9 	b	9d009f60 <__printf_core+0x278>
9d009f7c:	afa300b8 	sw	v1,184(sp)
9d009f80:	24030064 	li	v1,100
9d009f84:	10430056 	beq	v0,v1,9d00a0e0 <__printf_core+0x3f8>
9d009f88:	28420068 	slti	v0,v0,104
9d009f8c:	1040ffea 	beqz	v0,9d009f38 <__printf_core+0x250>
9d009f90:	2402ffff 	li	v0,-1
9d009f94:	02203025 	move	a2,s1
9d009f98:	0f403f1d 	jal	9d00fc74 <__pop_float>
9d009f9c:	27a400b0 	addiu	a0,sp,176
9d009fa0:	10400097 	beqz	v0,9d00a200 <__printf_core+0x518>
9d009fa4:	8fa200b8 	lw	v0,184(sp)
9d009fa8:	27a600b0 	addiu	a2,sp,176
9d009fac:	27a50098 	addiu	a1,sp,152
9d009fb0:	24430001 	addiu	v1,v0,1
9d009fb4:	afa300b8 	sw	v1,184(sp)
9d009fb8:	80470000 	lb	a3,0(v0)
9d009fbc:	0f4041d1 	jal	9d010744 <__fmt_a>
9d009fc0:	02402025 	move	a0,s2
9d009fc4:	10000035 	b	9d00a09c <__printf_core+0x3b4>
9d009fc8:	02028021 	addu	s0,s0,v0
9d009fcc:	24030070 	li	v1,112
9d009fd0:	1043006e 	beq	v0,v1,9d00a18c <__printf_core+0x4a4>
9d009fd4:	28430071 	slti	v1,v0,113
9d009fd8:	10600013 	beqz	v1,9d00a028 <__printf_core+0x340>
9d009fdc:	2403006e 	li	v1,110
9d009fe0:	10430083 	beq	v0,v1,9d00a1f0 <__printf_core+0x508>
9d009fe4:	2403006f 	li	v1,111
9d009fe8:	1443ffd3 	bne	v0,v1,9d009f38 <__printf_core+0x250>
9d009fec:	2402ffff 	li	v0,-1
9d009ff0:	02203825 	move	a3,s1
9d009ff4:	00003025 	move	a2,zero
9d009ff8:	0f403486 	jal	9d00d218 <__pop_int>
9d009ffc:	27a400b0 	addiu	a0,sp,176
9d00a000:	1040007f 	beqz	v0,9d00a200 <__printf_core+0x518>
9d00a004:	8fa200b8 	lw	v0,184(sp)
9d00a008:	27a600b0 	addiu	a2,sp,176
9d00a00c:	27a50098 	addiu	a1,sp,152
9d00a010:	24420001 	addiu	v0,v0,1
9d00a014:	02402025 	move	a0,s2
9d00a018:	0f4041cf 	jal	9d01073c <__fmt_o>
9d00a01c:	afa200b8 	sw	v0,184(sp)
9d00a020:	1000001e 	b	9d00a09c <__printf_core+0x3b4>
9d00a024:	02028021 	addu	s0,s0,v0
9d00a028:	24030075 	li	v1,117
9d00a02c:	1043003a 	beq	v0,v1,9d00a118 <__printf_core+0x430>
9d00a030:	24030078 	li	v1,120
9d00a034:	10430046 	beq	v0,v1,9d00a150 <__printf_core+0x468>
9d00a038:	24030073 	li	v1,115
9d00a03c:	1443ffbd 	bne	v0,v1,9d009f34 <__printf_core+0x24c>
9d00a040:	24020080 	li	v0,128
9d00a044:	14a2006e 	bne	a1,v0,9d00a200 <__printf_core+0x518>
9d00a048:	8fa200b8 	lw	v0,184(sp)
9d00a04c:	00003825 	move	a3,zero
9d00a050:	24420001 	addiu	v0,v0,1
9d00a054:	afa200b8 	sw	v0,184(sp)
9d00a058:	8e220000 	lw	v0,0(s1)
9d00a05c:	24430004 	addiu	v1,v0,4
9d00a060:	ae230000 	sw	v1,0(s1)
9d00a064:	10000076 	b	9d00a240 <__printf_core+0x558>
9d00a068:	8c460000 	lw	a2,0(v0)
9d00a06c:	0f403f1d 	jal	9d00fc74 <__pop_float>
9d00a070:	27a400b0 	addiu	a0,sp,176
9d00a074:	10400062 	beqz	v0,9d00a200 <__printf_core+0x518>
9d00a078:	8fa200b8 	lw	v0,184(sp)
9d00a07c:	27a600b0 	addiu	a2,sp,176
9d00a080:	27a50098 	addiu	a1,sp,152
9d00a084:	24430001 	addiu	v1,v0,1
9d00a088:	afa300b8 	sw	v1,184(sp)
9d00a08c:	80470000 	lb	a3,0(v0)
9d00a090:	0f4041d1 	jal	9d010744 <__fmt_a>
9d00a094:	02402025 	move	a0,s2
9d00a098:	02028021 	addu	s0,s0,v0
9d00a09c:	02708021 	addu	s0,s3,s0
9d00a0a0:	0213982a 	slt	s3,s0,s3
9d00a0a4:	12600077 	beqz	s3,9d00a284 <__printf_core+0x59c>
9d00a0a8:	3c02a000 	lui	v0,0xa000
9d00a0ac:	2403004f 	li	v1,79
9d00a0b0:	ac4316f0 	sw	v1,5872(v0)
9d00a0b4:	2413ffff 	li	s3,-1
9d00a0b8:	8fbf00e4 	lw	ra,228(sp)
9d00a0bc:	02601025 	move	v0,s3
9d00a0c0:	8fb500e0 	lw	s5,224(sp)
9d00a0c4:	8fb400dc 	lw	s4,220(sp)
9d00a0c8:	8fb300d8 	lw	s3,216(sp)
9d00a0cc:	8fb200d4 	lw	s2,212(sp)
9d00a0d0:	8fb100d0 	lw	s1,208(sp)
9d00a0d4:	8fb000cc 	lw	s0,204(sp)
9d00a0d8:	03e00008 	jr	ra
9d00a0dc:	27bd00e8 	addiu	sp,sp,232
9d00a0e0:	02203825 	move	a3,s1
9d00a0e4:	24060001 	li	a2,1
9d00a0e8:	0f403486 	jal	9d00d218 <__pop_int>
9d00a0ec:	27a400b0 	addiu	a0,sp,176
9d00a0f0:	10400043 	beqz	v0,9d00a200 <__printf_core+0x518>
9d00a0f4:	8fa200b8 	lw	v0,184(sp)
9d00a0f8:	27a600b0 	addiu	a2,sp,176
9d00a0fc:	27a50098 	addiu	a1,sp,152
9d00a100:	24420001 	addiu	v0,v0,1
9d00a104:	02402025 	move	a0,s2
9d00a108:	0f40364c 	jal	9d00d930 <__fmt_d>
9d00a10c:	afa200b8 	sw	v0,184(sp)
9d00a110:	1000ffe2 	b	9d00a09c <__printf_core+0x3b4>
9d00a114:	02028021 	addu	s0,s0,v0
9d00a118:	02203825 	move	a3,s1
9d00a11c:	00003025 	move	a2,zero
9d00a120:	0f403486 	jal	9d00d218 <__pop_int>
9d00a124:	27a400b0 	addiu	a0,sp,176
9d00a128:	10400035 	beqz	v0,9d00a200 <__printf_core+0x518>
9d00a12c:	8fa200b8 	lw	v0,184(sp)
9d00a130:	27a600b0 	addiu	a2,sp,176
9d00a134:	27a50098 	addiu	a1,sp,152
9d00a138:	24420001 	addiu	v0,v0,1
9d00a13c:	02402025 	move	a0,s2
9d00a140:	0f4041cf 	jal	9d01073c <__fmt_o>
9d00a144:	afa200b8 	sw	v0,184(sp)
9d00a148:	1000ffd4 	b	9d00a09c <__printf_core+0x3b4>
9d00a14c:	02028021 	addu	s0,s0,v0
9d00a150:	02203825 	move	a3,s1
9d00a154:	00003025 	move	a2,zero
9d00a158:	0f403486 	jal	9d00d218 <__pop_int>
9d00a15c:	27a400b0 	addiu	a0,sp,176
9d00a160:	10400027 	beqz	v0,9d00a200 <__printf_core+0x518>
9d00a164:	8fa200b8 	lw	v0,184(sp)
9d00a168:	24430001 	addiu	v1,v0,1
9d00a16c:	afa300b8 	sw	v1,184(sp)
9d00a170:	80470000 	lb	a3,0(v0)
9d00a174:	27a600b0 	addiu	a2,sp,176
9d00a178:	27a50098 	addiu	a1,sp,152
9d00a17c:	0f4041d1 	jal	9d010744 <__fmt_a>
9d00a180:	02402025 	move	a0,s2
9d00a184:	1000ffc5 	b	9d00a09c <__printf_core+0x3b4>
9d00a188:	02028021 	addu	s0,s0,v0
9d00a18c:	02203825 	move	a3,s1
9d00a190:	00003025 	move	a2,zero
9d00a194:	240500f0 	li	a1,240
9d00a198:	0f403486 	jal	9d00d218 <__pop_int>
9d00a19c:	27a400b0 	addiu	a0,sp,176
9d00a1a0:	10400017 	beqz	v0,9d00a200 <__printf_core+0x518>
9d00a1a4:	8fa200b8 	lw	v0,184(sp)
9d00a1a8:	8fa300b4 	lw	v1,180(sp)
9d00a1ac:	24420001 	addiu	v0,v0,1
9d00a1b0:	afa200b8 	sw	v0,184(sp)
9d00a1b4:	8fa200b0 	lw	v0,176(sp)
9d00a1b8:	00431025 	or	v0,v0,v1
9d00a1bc:	1440ffed 	bnez	v0,9d00a174 <__printf_core+0x48c>
9d00a1c0:	24070078 	li	a3,120
9d00a1c4:	0f404070 	jal	9d0101c0 <strlen>
9d00a1c8:	268474c0 	addiu	a0,s4,29888
9d00a1cc:	8fa30098 	lw	v1,152(sp)
9d00a1d0:	8fa700a0 	lw	a3,160(sp)
9d00a1d4:	00403025 	move	a2,v0
9d00a1d8:	afa30010 	sw	v1,16(sp)
9d00a1dc:	268574c0 	addiu	a1,s4,29888
9d00a1e0:	0f403864 	jal	9d00e190 <__pad>
9d00a1e4:	02402025 	move	a0,s2
9d00a1e8:	1000ffac 	b	9d00a09c <__printf_core+0x3b4>
9d00a1ec:	02028021 	addu	s0,s0,v0
9d00a1f0:	02203825 	move	a3,s1
9d00a1f4:	02703021 	addu	a2,s3,s0
9d00a1f8:	0f403920 	jal	9d00e480 <__pop_ptr>
9d00a1fc:	27a400b0 	addiu	a0,sp,176
9d00a200:	8fa200b8 	lw	v0,184(sp)
9d00a204:	24420001 	addiu	v0,v0,1
9d00a208:	1000ffa4 	b	9d00a09c <__printf_core+0x3b4>
9d00a20c:	afa200b8 	sw	v0,184(sp)
9d00a210:	24020080 	li	v0,128
9d00a214:	14a2fffa 	bne	a1,v0,9d00a200 <__printf_core+0x518>
9d00a218:	8fa200b8 	lw	v0,184(sp)
9d00a21c:	24070001 	li	a3,1
9d00a220:	27a600b0 	addiu	a2,sp,176
9d00a224:	24420001 	addiu	v0,v0,1
9d00a228:	afa200b8 	sw	v0,184(sp)
9d00a22c:	8e220000 	lw	v0,0(s1)
9d00a230:	24430004 	addiu	v1,v0,4
9d00a234:	8c420000 	lw	v0,0(v0)
9d00a238:	ae230000 	sw	v1,0(s1)
9d00a23c:	a3a200b0 	sb	v0,176(sp)
9d00a240:	27a50098 	addiu	a1,sp,152
9d00a244:	0f4041d3 	jal	9d01074c <__fmt_s>
9d00a248:	02402025 	move	a0,s2
9d00a24c:	1000ff93 	b	9d00a09c <__printf_core+0x3b4>
9d00a250:	02028021 	addu	s0,s0,v0
9d00a254:	24020080 	li	v0,128
9d00a258:	14a2ffe9 	bne	a1,v0,9d00a200 <__printf_core+0x518>
9d00a25c:	8fa200b8 	lw	v0,184(sp)
9d00a260:	8fa700a0 	lw	a3,160(sp)
9d00a264:	24420001 	addiu	v0,v0,1
9d00a268:	afa200b8 	sw	v0,184(sp)
9d00a26c:	8fa20098 	lw	v0,152(sp)
9d00a270:	afa20010 	sw	v0,16(sp)
9d00a274:	3c059d00 	lui	a1,0x9d00
9d00a278:	24060001 	li	a2,1
9d00a27c:	1000ffd8 	b	9d00a1e0 <__printf_core+0x4f8>
9d00a280:	24a574c8 	addiu	a1,a1,29896
9d00a284:	1000fea5 	b	9d009d1c <__printf_core+0x34>
9d00a288:	02009825 	move	s3,s0

Disassembly of section .text.dp32mul:

9d00a28c <__divdf3>:
9d00a28c:	00055040 000a5542 00054ac0 00047d42     @P..BU...J..B}..
9d00a29c:	012f4825 000442c0 3c0e8000 012e4825     %H/..B.....<%H..
9d00a2ac:	00076840 000d6d42 000762c0 00067d42     @h..Bm...b..B}..
9d00a2bc:	018f6025 00065ac0 018e6025 00a72826     %`...Z..%`..&(..
9d00a2cc:	00ae2824 254fffff 2de107fe 102000cb     $(....O%...-.. .
9d00a2dc:	00000000                                ....

9d00a2e0 <Dlab1>:
9d00a2e0:	25afffff 	addiu	t7,t5,-1
9d00a2e4:	2de107fe 	sltiu	at,t7,2046
9d00a2e8:	102000f4 	beqz	at,9d00a6bc <DspecB>
9d00a2ec:	00000000 	nop

9d00a2f0 <Dlab2>:
9d00a2f0:	014d5023 	subu	t2,t2,t5
9d00a2f4:	254a03ff 	addiu	t2,t2,1023
9d00a2f8:	00084042 	srl	t0,t0,0x1
9d00a2fc:	00097fc0 	sll	t7,t1,0x1f
9d00a300:	010f4025 	or	t0,t0,t7
9d00a304:	00094842 	srl	t1,t1,0x1
9d00a308:	000c3c02 	srl	a3,t4,0x10
9d00a30c:	00e001f4 	teq	a3,zero,0x7
9d00a310:	0127001b 	divu	zero,t1,a3
9d00a314:	00007012 	mflo	t6
9d00a318:	00004810 	mfhi	t1
9d00a31c:	3186ffff 	andi	a2,t4,0xffff
9d00a320:	00ce0019 	multu	a2,t6
9d00a324:	00002012 	mflo	a0
9d00a328:	00094c00 	sll	t1,t1,0x10
9d00a32c:	00087c02 	srl	t7,t0,0x10
9d00a330:	012f4825 	or	t1,t1,t7
9d00a334:	0124782b 	sltu	t7,t1,a0
9d00a338:	11e00006 	beqz	t7,9d00a354 <i20>
9d00a33c:	01244823 	subu	t1,t1,a0

9d00a340 <b21>:
9d00a340:	25ceffff 	addiu	t6,t6,-1
9d00a344:	012c4821 	addu	t1,t1,t4
9d00a348:	012c082b 	sltu	at,t1,t4
9d00a34c:	1020fffc 	beqz	at,9d00a340 <b21>
9d00a350:	00000000 	nop

9d00a354 <i20>:
9d00a354:	00e001f4 	teq	a3,zero,0x7
9d00a358:	0127001b 	divu	zero,t1,a3
9d00a35c:	00003812 	mflo	a3
9d00a360:	00004810 	mfhi	t1
9d00a364:	00c70019 	multu	a2,a3
9d00a368:	00002012 	mflo	a0
9d00a36c:	00094c00 	sll	t1,t1,0x10
9d00a370:	310fffff 	andi	t7,t0,0xffff
9d00a374:	012f4825 	or	t1,t1,t7
9d00a378:	0124782b 	sltu	t7,t1,a0
9d00a37c:	11e00006 	beqz	t7,9d00a398 <i22>
9d00a380:	01244823 	subu	t1,t1,a0

9d00a384 <b23>:
9d00a384:	24e7ffff 	addiu	a3,a3,-1
9d00a388:	012c4821 	addu	t1,t1,t4
9d00a38c:	012c082b 	sltu	at,t1,t4
9d00a390:	1020fffc 	beqz	at,9d00a384 <b23>
9d00a394:	00000000 	nop

9d00a398 <i22>:
9d00a398:	000e7400 	sll	t6,t6,0x10
9d00a39c:	01c77021 	addu	t6,t6,a3
9d00a3a0:	01cb0019 	multu	t6,t3
9d00a3a4:	00003812 	mflo	a3
9d00a3a8:	00002010 	mfhi	a0
9d00a3ac:	24080000 	li	t0,0
9d00a3b0:	0107782b 	sltu	t7,t0,a3
9d00a3b4:	01074023 	subu	t0,t0,a3
9d00a3b8:	012f102b 	sltu	v0,t1,t7
9d00a3bc:	012f4823 	subu	t1,t1,t7
9d00a3c0:	0124782b 	sltu	t7,t1,a0
9d00a3c4:	01e27825 	or	t7,t7,v0
9d00a3c8:	11e0000b 	beqz	t7,9d00a3f8 <i24>
9d00a3cc:	01244823 	subu	t1,t1,a0

9d00a3d0 <Dlab3>:
9d00a3d0:	25ceffff 	addiu	t6,t6,-1
9d00a3d4:	010b4021 	addu	t0,t0,t3
9d00a3d8:	010b782b 	sltu	t7,t0,t3
9d00a3dc:	012c4821 	addu	t1,t1,t4
9d00a3e0:	012f4821 	addu	t1,t1,t7
9d00a3e4:	112c0002 	beq	t1,t4,9d00a3f0 <L31>
9d00a3e8:	00000000 	nop
9d00a3ec:	012c782b 	sltu	t7,t1,t4

9d00a3f0 <L31>:
9d00a3f0:	11e0fff7 	beqz	t7,9d00a3d0 <Dlab3>
9d00a3f4:	00000000 	nop

9d00a3f8 <i24>:
9d00a3f8:	152c0006 	bne	t1,t4,9d00a414 <i25>
9d00a3fc:	00000000 	nop
9d00a400:	000b2025 	or	a0,zero,t3
9d00a404:	00084825 	or	t1,zero,t0
9d00a408:	240d0000 	li	t5,0
9d00a40c:	1000002a 	b	9d00a4b8 <e25>
9d00a410:	000d3825 	or	a3,zero,t5

9d00a414 <i25>:
9d00a414:	000c3c02 	srl	a3,t4,0x10
9d00a418:	00e001f4 	teq	a3,zero,0x7
9d00a41c:	0127001b 	divu	zero,t1,a3
9d00a420:	00006812 	mflo	t5
9d00a424:	00004810 	mfhi	t1
9d00a428:	3186ffff 	andi	a2,t4,0xffff
9d00a42c:	00cd0019 	multu	a2,t5
9d00a430:	00002012 	mflo	a0
9d00a434:	00094c00 	sll	t1,t1,0x10
9d00a438:	00087c02 	srl	t7,t0,0x10
9d00a43c:	012f4825 	or	t1,t1,t7
9d00a440:	0124782b 	sltu	t7,t1,a0
9d00a444:	11e00006 	beqz	t7,9d00a460 <i26>
9d00a448:	01244823 	subu	t1,t1,a0

9d00a44c <b27>:
9d00a44c:	25adffff 	addiu	t5,t5,-1
9d00a450:	012c4821 	addu	t1,t1,t4
9d00a454:	012c082b 	sltu	at,t1,t4
9d00a458:	1020fffc 	beqz	at,9d00a44c <b27>
9d00a45c:	00000000 	nop

9d00a460 <i26>:
9d00a460:	00e001f4 	teq	a3,zero,0x7
9d00a464:	0127001b 	divu	zero,t1,a3
9d00a468:	00003812 	mflo	a3
9d00a46c:	00004810 	mfhi	t1
9d00a470:	00c70019 	multu	a2,a3
9d00a474:	00002012 	mflo	a0
9d00a478:	00094c00 	sll	t1,t1,0x10
9d00a47c:	310fffff 	andi	t7,t0,0xffff
9d00a480:	012f4825 	or	t1,t1,t7
9d00a484:	0124782b 	sltu	t7,t1,a0
9d00a488:	11e00006 	beqz	t7,9d00a4a4 <i28>
9d00a48c:	01244823 	subu	t1,t1,a0

9d00a490 <b29>:
9d00a490:	24e7ffff 	addiu	a3,a3,-1
9d00a494:	012c4821 	addu	t1,t1,t4
9d00a498:	012c082b 	sltu	at,t1,t4
9d00a49c:	1020fffc 	beqz	at,9d00a490 <b29>
9d00a4a0:	00000000 	nop

9d00a4a4 <i28>:
9d00a4a4:	000d6c00 	sll	t5,t5,0x10
9d00a4a8:	01a76821 	addu	t5,t5,a3
9d00a4ac:	01ab0019 	multu	t5,t3
9d00a4b0:	00003812 	mflo	a3
9d00a4b4:	00002010 	mfhi	a0

9d00a4b8 <e25>:
9d00a4b8:	24080000 	li	t0,0
9d00a4bc:	0107782b 	sltu	t7,t0,a3
9d00a4c0:	01074023 	subu	t0,t0,a3
9d00a4c4:	012f102b 	sltu	v0,t1,t7
9d00a4c8:	012f4823 	subu	t1,t1,t7
9d00a4cc:	0124782b 	sltu	t7,t1,a0
9d00a4d0:	01e27825 	or	t7,t7,v0
9d00a4d4:	11e0000b 	beqz	t7,9d00a504 <i30>
9d00a4d8:	01244823 	subu	t1,t1,a0

9d00a4dc <Dlab4>:
9d00a4dc:	25adffff 	addiu	t5,t5,-1
9d00a4e0:	010b4021 	addu	t0,t0,t3
9d00a4e4:	010b782b 	sltu	t7,t0,t3
9d00a4e8:	012c4821 	addu	t1,t1,t4
9d00a4ec:	012f4821 	addu	t1,t1,t7
9d00a4f0:	112c0002 	beq	t1,t4,9d00a4fc <L32>
9d00a4f4:	00000000 	nop
9d00a4f8:	012c782b 	sltu	t7,t1,t4

9d00a4fc <L32>:
9d00a4fc:	11e0fff7 	beqz	t7,9d00a4dc <Dlab4>
9d00a500:	00000000 	nop

9d00a504 <i30>:
9d00a504:	05c00006 	bltz	t6,9d00a520 <i31>
9d00a508:	00000000 	nop
9d00a50c:	01a0782a 	slt	t7,t5,zero
9d00a510:	01ad6821 	addu	t5,t5,t5
9d00a514:	01ce7021 	addu	t6,t6,t6
9d00a518:	01cf7021 	addu	t6,t6,t7
9d00a51c:	254affff 	addiu	t2,t2,-1

9d00a520 <i31>:
9d00a520:	01287825 	or	t7,t1,t0
9d00a524:	11e00002 	beqz	t7,9d00a530 <i32>
9d00a528:	00000000 	nop
9d00a52c:	35ad0001 	ori	t5,t5,0x1

9d00a530 <i32>:
9d00a530:	000e4825 	or	t1,zero,t6
9d00a534:	000d4025 	or	t0,zero,t5
9d00a538:	254fffff 	addiu	t7,t2,-1
9d00a53c:	2de107fe 	sltiu	at,t7,2046
9d00a540:	10200015 	beqz	at,9d00a598 <Doveund>
9d00a544:	00000000 	nop
9d00a548:	25080400 	addiu	t0,t0,1024
9d00a54c:	2d0f0400 	sltiu	t7,t0,1024
9d00a550:	012f4821 	addu	t1,t1,t7
9d00a554:	012f782b 	sltu	t7,t1,t7
9d00a558:	014f5021 	addu	t2,t2,t7

9d00a55c <Dlab8>:
9d00a55c:	00087ac2 	srl	t7,t0,0xb
9d00a560:	31ef0001 	andi	t7,t7,0x1
9d00a564:	010f4023 	subu	t0,t0,t7
9d00a568:	000822c2 	srl	a0,t0,0xb
9d00a56c:	00097d40 	sll	t7,t1,0x15
9d00a570:	008f2025 	or	a0,a0,t7
9d00a574:	00097840 	sll	t7,t1,0x1
9d00a578:	000f7b02 	srl	t7,t7,0xc
9d00a57c:	00af2825 	or	a1,a1,t7
9d00a580:	000a7d00 	sll	t7,t2,0x14
9d00a584:	00af2825 	or	a1,a1,t7

9d00a588 <Dret>:
9d00a588:	00041025 	or	v0,zero,a0
9d00a58c:	00051825 	or	v1,zero,a1

9d00a590 <D999>:
9d00a590:	03e00008 	jr	ra
9d00a594:	00000000 	nop

9d00a598 <Doveund>:
9d00a598:	1d400044 	bgtz	t2,9d00a6ac <Dinf>
9d00a59c:	00000000 	nop
9d00a5a0:	240e0001 	li	t6,1
9d00a5a4:	01ca7023 	subu	t6,t6,t2

9d00a5a8 <L33>:
9d00a5a8:	2dc10020 	sltiu	at,t6,32
9d00a5ac:	14200007 	bnez	at,9d00a5cc <L34>
9d00a5b0:	00000000 	nop
9d00a5b4:	21ceffe0 	addi	t6,t6,-32
9d00a5b8:	0008202b 	sltu	a0,zero,t0
9d00a5bc:	1009000d 	beq	zero,t1,9d00a5f4 <L35>
9d00a5c0:	01244025 	or	t0,t1,a0
9d00a5c4:	1000fff8 	b	9d00a5a8 <L33>
9d00a5c8:	34090000 	li	t1,0x0

9d00a5cc <L34>:
9d00a5cc:	11c00009 	beqz	t6,9d00a5f4 <L35>
9d00a5d0:	00000000 	nop
9d00a5d4:	000e3022 	neg	a2,t6
9d00a5d8:	00c82004 	sllv	a0,t0,a2
9d00a5dc:	00c93004 	sllv	a2,t1,a2
9d00a5e0:	01c84006 	srlv	t0,t0,t6
9d00a5e4:	01c94806 	srlv	t1,t1,t6
9d00a5e8:	10800002 	beqz	a0,9d00a5f4 <L35>
9d00a5ec:	00c84025 	or	t0,a2,t0
9d00a5f0:	35080002 	ori	t0,t0,0x2

9d00a5f4 <L35>:
9d00a5f4:	25080400 	addiu	t0,t0,1024
9d00a5f8:	2d0f0400 	sltiu	t7,t0,1024
9d00a5fc:	012f4821 	addu	t1,t1,t7
9d00a600:	1000ffd6 	b	9d00a55c <Dlab8>
9d00a604:	000957c2 	srl	t2,t1,0x1f

9d00a608 <DspecA>:
9d00a608:	0100782a 	slt	t7,t0,zero
9d00a60c:	01084021 	addu	t0,t0,t0
9d00a610:	01294821 	addu	t1,t1,t1
9d00a614:	15400017 	bnez	t2,9d00a674 <i33>
9d00a618:	012f4821 	addu	t1,t1,t7
9d00a61c:	01287825 	or	t7,t1,t0
9d00a620:	11e00014 	beqz	t7,9d00a674 <i33>
9d00a624:	00000000 	nop
9d00a628:	15200008 	bnez	t1,9d00a64c <L36>
9d00a62c:	00000000 	nop
9d00a630:	15000003 	bnez	t0,9d00a640 <L37>
9d00a634:	00000000 	nop
9d00a638:	1000ff29 	b	9d00a2e0 <Dlab1>
9d00a63c:	240a0000 	li	t2,0

9d00a640 <L37>:
9d00a640:	01004825 	move	t1,t0
9d00a644:	24080000 	li	t0,0
9d00a648:	254affe0 	addiu	t2,t2,-32

9d00a64c <L36>:
9d00a64c:	712e7020 	clz	t6,t1
9d00a650:	11c0ff23 	beqz	t6,9d00a2e0 <Dlab1>
9d00a654:	00000000 	nop
9d00a658:	014e5023 	subu	t2,t2,t6
9d00a65c:	000e3022 	neg	a2,t6
9d00a660:	00c83006 	srlv	a2,t0,a2
9d00a664:	01c84004 	sllv	t0,t0,t6
9d00a668:	01c94804 	sllv	t1,t1,t6
9d00a66c:	1000ff1c 	b	9d00a2e0 <Dlab1>
9d00a670:	01264825 	or	t1,t1,a2

9d00a674 <i33>:
9d00a674:	154d0005 	bne	t2,t5,9d00a68c <i35>
9d00a678:	00000000 	nop
9d00a67c:	000c7840 	sll	t7,t4,0x1
9d00a680:	01eb7825 	or	t7,t7,t3
9d00a684:	11e0002b 	beqz	t7,9d00a734 <Dnan>
9d00a688:	00000000 	nop

9d00a68c <i35>:
9d00a68c:	240107ff 	li	at,2047
9d00a690:	11a1000a 	beq	t5,at,9d00a6bc <DspecB>
9d00a694:	00000000 	nop
9d00a698:	1140ffbb 	beqz	t2,9d00a588 <Dret>
9d00a69c:	00000000 	nop
9d00a6a0:	01287825 	or	t7,t1,t0
9d00a6a4:	15e00023 	bnez	t7,9d00a734 <Dnan>
9d00a6a8:	00000000 	nop

9d00a6ac <Dinf>:
9d00a6ac:	3c017ff0 	lui	at,0x7ff0
9d00a6b0:	00a12825 	or	a1,a1,at
9d00a6b4:	1000ffb4 	b	9d00a588 <Dret>
9d00a6b8:	24040000 	li	a0,0

9d00a6bc <DspecB>:
9d00a6bc:	0160782a 	slt	t7,t3,zero
9d00a6c0:	016b5821 	addu	t3,t3,t3
9d00a6c4:	018c6021 	addu	t4,t4,t4
9d00a6c8:	15a00017 	bnez	t5,9d00a728 <i36>
9d00a6cc:	018f6021 	addu	t4,t4,t7
9d00a6d0:	018b7825 	or	t7,t4,t3
9d00a6d4:	11e0fff5 	beqz	t7,9d00a6ac <Dinf>
9d00a6d8:	00000000 	nop
9d00a6dc:	15800008 	bnez	t4,9d00a700 <L39>
9d00a6e0:	00000000 	nop
9d00a6e4:	15600003 	bnez	t3,9d00a6f4 <L40>
9d00a6e8:	00000000 	nop
9d00a6ec:	1000ff00 	b	9d00a2f0 <Dlab2>
9d00a6f0:	240d0000 	li	t5,0

9d00a6f4 <L40>:
9d00a6f4:	01606025 	move	t4,t3
9d00a6f8:	240b0000 	li	t3,0
9d00a6fc:	25adffe0 	addiu	t5,t5,-32

9d00a700 <L39>:
9d00a700:	718e7020 	clz	t6,t4
9d00a704:	11c0fefa 	beqz	t6,9d00a2f0 <Dlab2>
9d00a708:	00000000 	nop
9d00a70c:	01ae6823 	subu	t5,t5,t6
9d00a710:	000e3022 	neg	a2,t6
9d00a714:	00cb3006 	srlv	a2,t3,a2
9d00a718:	01cb5804 	sllv	t3,t3,t6
9d00a71c:	01cc6004 	sllv	t4,t4,t6
9d00a720:	1000fef3 	b	9d00a2f0 <Dlab2>
9d00a724:	01866025 	or	t4,t4,a2

9d00a728 <i36>:
9d00a728:	018b7825 	or	t7,t4,t3
9d00a72c:	11e00002 	beqz	t7,9d00a738 <i38>
9d00a730:	00000000 	nop

9d00a734 <Dnan>:
9d00a734:	3c05fff8 	lui	a1,0xfff8

9d00a738 <i38>:
9d00a738:	1000ff93 	b	9d00a588 <Dret>
9d00a73c:	24040000 	li	a0,0
9d00a740:	00000000 	nop

Disassembly of section .text.dreml:

9d00a744 <dreml>:
9d00a744:	27bdffa8 	addiu	sp,sp,-88
9d00a748:	afa70064 	sw	a3,100(sp)
9d00a74c:	afa5005c 	sw	a1,92(sp)
9d00a750:	afbe0050 	sw	s8,80(sp)
9d00a754:	afb10034 	sw	s1,52(sp)
9d00a758:	97be005e 	lhu	s8,94(sp)
9d00a75c:	97b10066 	lhu	s1,102(sp)
9d00a760:	afb40040 	sw	s4,64(sp)
9d00a764:	afb00030 	sw	s0,48(sp)
9d00a768:	24147ff0 	li	s4,32752
9d00a76c:	32307fff 	andi	s0,s1,0x7fff
9d00a770:	33c27ff0 	andi	v0,s8,0x7ff0
9d00a774:	afbf0054 	sw	ra,84(sp)
9d00a778:	afb7004c 	sw	s7,76(sp)
9d00a77c:	afb60048 	sw	s6,72(sp)
9d00a780:	afb50044 	sw	s5,68(sp)
9d00a784:	afb3003c 	sw	s3,60(sp)
9d00a788:	afb20038 	sw	s2,56(sp)
9d00a78c:	afa60060 	sw	a2,96(sp)
9d00a790:	afa40058 	sw	a0,88(sp)
9d00a794:	105400a6 	beq	v0,s4,9d00aa30 <dreml+0x2ec>
9d00a798:	a7b00066 	sh	s0,102(sp)
9d00a79c:	8fb20060 	lw	s2,96(sp)
9d00a7a0:	8fb30064 	lw	s3,100(sp)
9d00a7a4:	00003025 	move	a2,zero
9d00a7a8:	00003825 	move	a3,zero
9d00a7ac:	02402025 	move	a0,s2
9d00a7b0:	0f40373c 	jal	9d00dcf0 <__eqdf2>
9d00a7b4:	02602825 	move	a1,s3
9d00a7b8:	10400088 	beqz	v0,9d00a9dc <dreml+0x298>
9d00a7bc:	32317ff0 	andi	s1,s1,0x7ff0
9d00a7c0:	123400b3 	beq	s1,s4,9d00aa90 <dreml+0x34c>
9d00a7c4:	00108103 	sra	s0,s0,0x4
9d00a7c8:	321007fe 	andi	s0,s0,0x7fe
9d00a7cc:	120000cb 	beqz	s0,9d00aafc <dreml+0x3b8>
9d00a7d0:	3c109d00 	lui	s0,0x9d00
9d00a7d4:	8e067558 	lw	a2,30040(s0)
9d00a7d8:	8e07755c 	lw	a3,30044(s0)
9d00a7dc:	02402025 	move	a0,s2
9d00a7e0:	0f4030ed 	jal	9d00c3b4 <__muldf3>
9d00a7e4:	02602825 	move	a1,s3
9d00a7e8:	afa20020 	sw	v0,32(sp)
9d00a7ec:	3c029d00 	lui	v0,0x9d00
9d00a7f0:	8c467560 	lw	a2,30048(v0)
9d00a7f4:	8c477564 	lw	a3,30052(v0)
9d00a7f8:	02402025 	move	a0,s2
9d00a7fc:	02602825 	move	a1,s3
9d00a800:	0f40373c 	jal	9d00dcf0 <__eqdf2>
9d00a804:	afa30024 	sw	v1,36(sp)
9d00a808:	044100aa 	bgez	v0,9d00aab4 <dreml+0x370>
9d00a80c:	33c87fff 	andi	t0,s8,0x7fff
9d00a810:	02403025 	move	a2,s2
9d00a814:	02603825 	move	a3,s3
9d00a818:	02402025 	move	a0,s2
9d00a81c:	02602825 	move	a1,s3
9d00a820:	0f402d06 	jal	9d00b418 <__adddf3>
9d00a824:	afa80018 	sw	t0,24(sp)
9d00a828:	8fa80018 	lw	t0,24(sp)
9d00a82c:	8fb00058 	lw	s0,88(sp)
9d00a830:	7c1e7004 	ins	s8,zero,0x0,0xf
9d00a834:	a7a8005e 	sh	t0,94(sp)
9d00a838:	8fb1005c 	lw	s1,92(sp)
9d00a83c:	00402025 	move	a0,v0
9d00a840:	0040a825 	move	s5,v0
9d00a844:	00602825 	move	a1,v1
9d00a848:	7c1e1620 	seh	v0,s8
9d00a84c:	02003025 	move	a2,s0
9d00a850:	02203825 	move	a3,s1
9d00a854:	0003b402 	srl	s6,v1,0x10
9d00a858:	0060a025 	move	s4,v1
9d00a85c:	0f403787 	jal	9d00de1c <dpcmplt>
9d00a860:	afa20028 	sw	v0,40(sp)
9d00a864:	32d77ff0 	andi	s7,s6,0x7ff0
9d00a868:	04400003 	bltz	v0,9d00a878 <dreml+0x134>
9d00a86c:	8fa80018 	lw	t0,24(sp)
9d00a870:	10000029 	b	9d00a918 <dreml+0x1d4>
9d00a874:	8fb40020 	lw	s4,32(sp)
9d00a878:	31037ff0 	andi	v1,t0,0x7ff0
9d00a87c:	02c31821 	addu	v1,s6,v1
9d00a880:	00771823 	subu	v1,v1,s7
9d00a884:	307effff 	andi	s8,v1,0xffff
9d00a888:	afb40014 	sw	s4,20(sp)
9d00a88c:	afb50010 	sw	s5,16(sp)
9d00a890:	a7be0016 	sh	s8,22(sp)
9d00a894:	8fa80010 	lw	t0,16(sp)
9d00a898:	8fa90014 	lw	t1,20(sp)
9d00a89c:	02003025 	move	a2,s0
9d00a8a0:	01002025 	move	a0,t0
9d00a8a4:	01202825 	move	a1,t1
9d00a8a8:	02203825 	move	a3,s1
9d00a8ac:	afa80018 	sw	t0,24(sp)
9d00a8b0:	0f40373c 	jal	9d00dcf0 <__eqdf2>
9d00a8b4:	afa9001c 	sw	t1,28(sp)
9d00a8b8:	02002025 	move	a0,s0
9d00a8bc:	02202825 	move	a1,s1
9d00a8c0:	27c3fff0 	addiu	v1,s8,-16
9d00a8c4:	8fa80018 	lw	t0,24(sp)
9d00a8c8:	18400004 	blez	v0,9d00a8dc <dreml+0x198>
9d00a8cc:	8fa9001c 	lw	t1,28(sp)
9d00a8d0:	a7a30016 	sh	v1,22(sp)
9d00a8d4:	8fa80010 	lw	t0,16(sp)
9d00a8d8:	8fa90014 	lw	t1,20(sp)
9d00a8dc:	01003025 	move	a2,t0
9d00a8e0:	0f402d04 	jal	9d00b410 <__subdf3>
9d00a8e4:	01203825 	move	a3,t1
9d00a8e8:	00403025 	move	a2,v0
9d00a8ec:	02a02025 	move	a0,s5
9d00a8f0:	02802825 	move	a1,s4
9d00a8f4:	00603825 	move	a3,v1
9d00a8f8:	00408025 	move	s0,v0
9d00a8fc:	00608825 	move	s1,v1
9d00a900:	afa20058 	sw	v0,88(sp)
9d00a904:	0f403787 	jal	9d00de1c <dpcmplt>
9d00a908:	afa3005c 	sw	v1,92(sp)
9d00a90c:	0440ffda 	bltz	v0,9d00a878 <dreml+0x134>
9d00a910:	97a8005e 	lhu	t0,94(sp)
9d00a914:	8fb40020 	lw	s4,32(sp)
9d00a918:	8fb50024 	lw	s5,36(sp)
9d00a91c:	02002025 	move	a0,s0
9d00a920:	02803025 	move	a2,s4
9d00a924:	02a03825 	move	a3,s5
9d00a928:	0f40373c 	jal	9d00dcf0 <__eqdf2>
9d00a92c:	02202825 	move	a1,s1
9d00a930:	18400017 	blez	v0,9d00a990 <dreml+0x24c>
9d00a934:	97a2005e 	lhu	v0,94(sp)
9d00a938:	02002025 	move	a0,s0
9d00a93c:	02202825 	move	a1,s1
9d00a940:	02403025 	move	a2,s2
9d00a944:	0f402d04 	jal	9d00b410 <__subdf3>
9d00a948:	02603825 	move	a3,s3
9d00a94c:	00402025 	move	a0,v0
9d00a950:	02803025 	move	a2,s4
9d00a954:	02a03825 	move	a3,s5
9d00a958:	00602825 	move	a1,v1
9d00a95c:	00408025 	move	s0,v0
9d00a960:	0f40373c 	jal	9d00dcf0 <__eqdf2>
9d00a964:	00608825 	move	s1,v1
9d00a968:	04420089 	bltzl	v0,9d00ab90 <dreml+0x44c>
9d00a96c:	afb00058 	sw	s0,88(sp)
9d00a970:	02403025 	move	a2,s2
9d00a974:	02603825 	move	a3,s3
9d00a978:	02002025 	move	a0,s0
9d00a97c:	0f402d04 	jal	9d00b410 <__subdf3>
9d00a980:	02202825 	move	a1,s1
9d00a984:	afa20058 	sw	v0,88(sp)
9d00a988:	afa3005c 	sw	v1,92(sp)
9d00a98c:	97a2005e 	lhu	v0,94(sp)
9d00a990:	8fa30028 	lw	v1,40(sp)
9d00a994:	0062f026 	xor	s8,v1,v0
9d00a998:	a7be005e 	sh	s8,94(sp)
9d00a99c:	8fb20058 	lw	s2,88(sp)
9d00a9a0:	8fb3005c 	lw	s3,92(sp)
9d00a9a4:	8fbf0054 	lw	ra,84(sp)
9d00a9a8:	02401025 	move	v0,s2
9d00a9ac:	02601825 	move	v1,s3
9d00a9b0:	8fbe0050 	lw	s8,80(sp)
9d00a9b4:	8fb7004c 	lw	s7,76(sp)
9d00a9b8:	8fb60048 	lw	s6,72(sp)
9d00a9bc:	8fb50044 	lw	s5,68(sp)
9d00a9c0:	8fb40040 	lw	s4,64(sp)
9d00a9c4:	8fb3003c 	lw	s3,60(sp)
9d00a9c8:	8fb20038 	lw	s2,56(sp)
9d00a9cc:	8fb10034 	lw	s1,52(sp)
9d00a9d0:	8fb00030 	lw	s0,48(sp)
9d00a9d4:	03e00008 	jr	ra
9d00a9d8:	27bd0058 	addiu	sp,sp,88
9d00a9dc:	00003025 	move	a2,zero
9d00a9e0:	00003825 	move	a3,zero
9d00a9e4:	00c02025 	move	a0,a2
9d00a9e8:	0f4028a3 	jal	9d00a28c <__divdf3>
9d00a9ec:	00e02825 	move	a1,a3
9d00a9f0:	00409025 	move	s2,v0
9d00a9f4:	00609825 	move	s3,v1
9d00a9f8:	8fbf0054 	lw	ra,84(sp)
9d00a9fc:	02401025 	move	v0,s2
9d00aa00:	02601825 	move	v1,s3
9d00aa04:	8fbe0050 	lw	s8,80(sp)
9d00aa08:	8fb7004c 	lw	s7,76(sp)
9d00aa0c:	8fb60048 	lw	s6,72(sp)
9d00aa10:	8fb50044 	lw	s5,68(sp)
9d00aa14:	8fb40040 	lw	s4,64(sp)
9d00aa18:	8fb3003c 	lw	s3,60(sp)
9d00aa1c:	8fb20038 	lw	s2,56(sp)
9d00aa20:	8fb10034 	lw	s1,52(sp)
9d00aa24:	8fb00030 	lw	s0,48(sp)
9d00aa28:	03e00008 	jr	ra
9d00aa2c:	27bd0058 	addiu	sp,sp,88
9d00aa30:	8fa60060 	lw	a2,96(sp)
9d00aa34:	0f402d04 	jal	9d00b410 <__subdf3>
9d00aa38:	8fa70064 	lw	a3,100(sp)
9d00aa3c:	00403025 	move	a2,v0
9d00aa40:	00603825 	move	a3,v1
9d00aa44:	00402025 	move	a0,v0
9d00aa48:	0f402d04 	jal	9d00b410 <__subdf3>
9d00aa4c:	00602825 	move	a1,v1
9d00aa50:	8fbf0054 	lw	ra,84(sp)
9d00aa54:	00409025 	move	s2,v0
9d00aa58:	00609825 	move	s3,v1
9d00aa5c:	02401025 	move	v0,s2
9d00aa60:	02601825 	move	v1,s3
9d00aa64:	8fbe0050 	lw	s8,80(sp)
9d00aa68:	8fb7004c 	lw	s7,76(sp)
9d00aa6c:	8fb60048 	lw	s6,72(sp)
9d00aa70:	8fb50044 	lw	s5,68(sp)
9d00aa74:	8fb40040 	lw	s4,64(sp)
9d00aa78:	8fb3003c 	lw	s3,60(sp)
9d00aa7c:	8fb20038 	lw	s2,56(sp)
9d00aa80:	8fb10034 	lw	s1,52(sp)
9d00aa84:	8fb00030 	lw	s0,48(sp)
9d00aa88:	03e00008 	jr	ra
9d00aa8c:	27bd0058 	addiu	sp,sp,88
9d00aa90:	02403025 	move	a2,s2
9d00aa94:	02603825 	move	a3,s3
9d00aa98:	02402025 	move	a0,s2
9d00aa9c:	0f40373c 	jal	9d00dcf0 <__eqdf2>
9d00aaa0:	02602825 	move	a1,s3
9d00aaa4:	1440ffd5 	bnez	v0,9d00a9fc <dreml+0x2b8>
9d00aaa8:	8fbf0054 	lw	ra,84(sp)
9d00aaac:	1000ffbc 	b	9d00a9a0 <dreml+0x25c>
9d00aab0:	8fb20058 	lw	s2,88(sp)
9d00aab4:	8e067558 	lw	a2,30040(s0)
9d00aab8:	8e07755c 	lw	a3,30044(s0)
9d00aabc:	8fa40058 	lw	a0,88(sp)
9d00aac0:	0f4030ed 	jal	9d00c3b4 <__muldf3>
9d00aac4:	8fa5005c 	lw	a1,92(sp)
9d00aac8:	8fa60020 	lw	a2,32(sp)
9d00aacc:	8fa70024 	lw	a3,36(sp)
9d00aad0:	00402025 	move	a0,v0
9d00aad4:	0f4029d1 	jal	9d00a744 <dreml>
9d00aad8:	00602825 	move	a1,v1
9d00aadc:	00403025 	move	a2,v0
9d00aae0:	00603825 	move	a3,v1
9d00aae4:	00402025 	move	a0,v0
9d00aae8:	0f402d06 	jal	9d00b418 <__adddf3>
9d00aaec:	00602825 	move	a1,v1
9d00aaf0:	00409025 	move	s2,v0
9d00aaf4:	1000ffc0 	b	9d00a9f8 <dreml+0x2b4>
9d00aaf8:	00609825 	move	s3,v1
9d00aafc:	3c029d00 	lui	v0,0x9d00
9d00ab00:	8c447550 	lw	a0,30032(v0)
9d00ab04:	8c457554 	lw	a1,30036(v0)
9d00ab08:	0f403544 	jal	9d00d510 <__mchp_ldexp>
9d00ab0c:	24060036 	li	a2,54
9d00ab10:	00403025 	move	a2,v0
9d00ab14:	02402025 	move	a0,s2
9d00ab18:	02602825 	move	a1,s3
9d00ab1c:	00603825 	move	a3,v1
9d00ab20:	00408025 	move	s0,v0
9d00ab24:	0f4030ed 	jal	9d00c3b4 <__muldf3>
9d00ab28:	00608825 	move	s1,v1
9d00ab2c:	8fa40058 	lw	a0,88(sp)
9d00ab30:	8fa5005c 	lw	a1,92(sp)
9d00ab34:	00403025 	move	a2,v0
9d00ab38:	00603825 	move	a3,v1
9d00ab3c:	00409025 	move	s2,v0
9d00ab40:	0f4029d1 	jal	9d00a744 <dreml>
9d00ab44:	00609825 	move	s3,v1
9d00ab48:	00402025 	move	a0,v0
9d00ab4c:	02003025 	move	a2,s0
9d00ab50:	02203825 	move	a3,s1
9d00ab54:	0f4030ed 	jal	9d00c3b4 <__muldf3>
9d00ab58:	00602825 	move	a1,v1
9d00ab5c:	00402025 	move	a0,v0
9d00ab60:	02403025 	move	a2,s2
9d00ab64:	02603825 	move	a3,s3
9d00ab68:	0f4029d1 	jal	9d00a744 <dreml>
9d00ab6c:	00602825 	move	a1,v1
9d00ab70:	00402025 	move	a0,v0
9d00ab74:	02003025 	move	a2,s0
9d00ab78:	02203825 	move	a3,s1
9d00ab7c:	0f4028a3 	jal	9d00a28c <__divdf3>
9d00ab80:	00602825 	move	a1,v1
9d00ab84:	00409025 	move	s2,v0
9d00ab88:	1000ff9b 	b	9d00a9f8 <dreml+0x2b4>
9d00ab8c:	00609825 	move	s3,v1
9d00ab90:	1000ff7e 	b	9d00a98c <dreml+0x248>
9d00ab94:	afb1005c 	sw	s1,92(sp)

Disassembly of section .text:

9d00ab98 <__divdi3>:
9d00ab98:	04a10007 	bgez	a1,9d00abb8 <__divdi3+0x20>
9d00ab9c:	00005025 	move	t2,zero
9d00aba0:	00041023 	negu	v0,a0
9d00aba4:	0002182b 	sltu	v1,zero,v0
9d00aba8:	00052823 	negu	a1,a1
9d00abac:	00402025 	move	a0,v0
9d00abb0:	00a32823 	subu	a1,a1,v1
9d00abb4:	240affff 	li	t2,-1
9d00abb8:	04e10008 	bgez	a3,9d00abdc <__divdi3+0x44>
9d00abbc:	00c04025 	move	t0,a2
9d00abc0:	00061023 	negu	v0,a2
9d00abc4:	0002182b 	sltu	v1,zero,v0
9d00abc8:	00073823 	negu	a3,a3
9d00abcc:	000a5027 	nor	t2,zero,t2
9d00abd0:	00403025 	move	a2,v0
9d00abd4:	00e33823 	subu	a3,a3,v1
9d00abd8:	00c04025 	move	t0,a2
9d00abdc:	00e01825 	move	v1,a3
9d00abe0:	00804825 	move	t1,a0
9d00abe4:	14e000ab 	bnez	a3,9d00ae94 <__divdi3+0x2fc>
9d00abe8:	00a01025 	move	v0,a1
9d00abec:	00a6302b 	sltu	a2,a1,a2
9d00abf0:	10c0003c 	beqz	a2,9d00ace4 <__divdi3+0x14c>
9d00abf4:	00000000 	nop
9d00abf8:	71052820 	clz	a1,t0
9d00abfc:	10a00006 	beqz	a1,9d00ac18 <__divdi3+0x80>
9d00ac00:	00a22004 	sllv	a0,v0,a1
9d00ac04:	00051023 	negu	v0,a1
9d00ac08:	00491006 	srlv	v0,t1,v0
9d00ac0c:	00a84004 	sllv	t0,t0,a1
9d00ac10:	00441025 	or	v0,v0,a0
9d00ac14:	00a94804 	sllv	t1,t1,a1
9d00ac18:	00083402 	srl	a2,t0,0x10
9d00ac1c:	0046001b 	divu	zero,v0,a2
9d00ac20:	00c001f4 	teq	a2,zero,0x7
9d00ac24:	310bffff 	andi	t3,t0,0xffff
9d00ac28:	00091402 	srl	v0,t1,0x10
9d00ac2c:	00003812 	mflo	a3
9d00ac30:	00002010 	mfhi	a0
9d00ac34:	00042400 	sll	a0,a0,0x10
9d00ac38:	00821025 	or	v0,a0,v0
9d00ac3c:	71676002 	mul	t4,t3,a3
9d00ac40:	004c202b 	sltu	a0,v0,t4
9d00ac44:	1080000a 	beqz	a0,9d00ac70 <__divdi3+0xd8>
9d00ac48:	00e02825 	move	a1,a3
9d00ac4c:	00481021 	addu	v0,v0,t0
9d00ac50:	0048202b 	sltu	a0,v0,t0
9d00ac54:	14800006 	bnez	a0,9d00ac70 <__divdi3+0xd8>
9d00ac58:	24e5ffff 	addiu	a1,a3,-1
9d00ac5c:	004c202b 	sltu	a0,v0,t4
9d00ac60:	50800004 	beqzl	a0,9d00ac74 <__divdi3+0xdc>
9d00ac64:	004c1023 	subu	v0,v0,t4
9d00ac68:	24e5fffe 	addiu	a1,a3,-2
9d00ac6c:	00481021 	addu	v0,v0,t0
9d00ac70:	004c1023 	subu	v0,v0,t4
9d00ac74:	0046001b 	divu	zero,v0,a2
9d00ac78:	00c001f4 	teq	a2,zero,0x7
9d00ac7c:	3129ffff 	andi	t1,t1,0xffff
9d00ac80:	00001012 	mflo	v0
9d00ac84:	00003010 	mfhi	a2
9d00ac88:	00063400 	sll	a2,a2,0x10
9d00ac8c:	00c94825 	or	t1,a2,t1
9d00ac90:	71625802 	mul	t3,t3,v0
9d00ac94:	012b302b 	sltu	a2,t1,t3
9d00ac98:	10c00008 	beqz	a2,9d00acbc <__divdi3+0x124>
9d00ac9c:	00402025 	move	a0,v0
9d00aca0:	01094821 	addu	t1,t0,t1
9d00aca4:	0128402b 	sltu	t0,t1,t0
9d00aca8:	15000004 	bnez	t0,9d00acbc <__divdi3+0x124>
9d00acac:	2444ffff 	addiu	a0,v0,-1
9d00acb0:	012b482b 	sltu	t1,t1,t3
9d00acb4:	55200001 	bnezl	t1,9d00acbc <__divdi3+0x124>
9d00acb8:	2444fffe 	addiu	a0,v0,-2
9d00acbc:	00051400 	sll	v0,a1,0x10
9d00acc0:	00441025 	or	v0,v0,a0
9d00acc4:	11400005 	beqz	t2,9d00acdc <__divdi3+0x144>
9d00acc8:	00000000 	nop
9d00accc:	00021023 	negu	v0,v0
9d00acd0:	0002202b 	sltu	a0,zero,v0
9d00acd4:	00031823 	negu	v1,v1
9d00acd8:	00641823 	subu	v1,v1,a0
9d00acdc:	03e00008 	jr	ra
9d00ace0:	00000000 	nop
9d00ace4:	15000006 	bnez	t0,9d00ad00 <__divdi3+0x168>
9d00ace8:	710b5820 	clz	t3,t0
9d00acec:	24080001 	li	t0,1
9d00acf0:	0107001b 	divu	zero,t0,a3
9d00acf4:	00e001f4 	teq	a3,zero,0x7
9d00acf8:	00004012 	mflo	t0
9d00acfc:	710b5820 	clz	t3,t0
9d00ad00:	1560002d 	bnez	t3,9d00adb8 <__divdi3+0x220>
9d00ad04:	24030001 	li	v1,1
9d00ad08:	00a82823 	subu	a1,a1,t0
9d00ad0c:	00083c02 	srl	a3,t0,0x10
9d00ad10:	00a7001b 	divu	zero,a1,a3
9d00ad14:	00e001f4 	teq	a3,zero,0x7
9d00ad18:	310bffff 	andi	t3,t0,0xffff
9d00ad1c:	00091402 	srl	v0,t1,0x10
9d00ad20:	00002812 	mflo	a1
9d00ad24:	00002010 	mfhi	a0
9d00ad28:	00042400 	sll	a0,a0,0x10
9d00ad2c:	00821025 	or	v0,a0,v0
9d00ad30:	71656002 	mul	t4,t3,a1
9d00ad34:	004c202b 	sltu	a0,v0,t4
9d00ad38:	1080000a 	beqz	a0,9d00ad64 <__divdi3+0x1cc>
9d00ad3c:	00a03025 	move	a2,a1
9d00ad40:	00481021 	addu	v0,v0,t0
9d00ad44:	0048202b 	sltu	a0,v0,t0
9d00ad48:	14800006 	bnez	a0,9d00ad64 <__divdi3+0x1cc>
9d00ad4c:	24a6ffff 	addiu	a2,a1,-1
9d00ad50:	004c202b 	sltu	a0,v0,t4
9d00ad54:	50800004 	beqzl	a0,9d00ad68 <__divdi3+0x1d0>
9d00ad58:	004c1023 	subu	v0,v0,t4
9d00ad5c:	24a6fffe 	addiu	a2,a1,-2
9d00ad60:	00481021 	addu	v0,v0,t0
9d00ad64:	004c1023 	subu	v0,v0,t4
9d00ad68:	0047001b 	divu	zero,v0,a3
9d00ad6c:	00e001f4 	teq	a3,zero,0x7
9d00ad70:	3129ffff 	andi	t1,t1,0xffff
9d00ad74:	00001012 	mflo	v0
9d00ad78:	00003810 	mfhi	a3
9d00ad7c:	00073c00 	sll	a3,a3,0x10
9d00ad80:	00e93825 	or	a3,a3,t1
9d00ad84:	71622802 	mul	a1,t3,v0
9d00ad88:	00e5482b 	sltu	t1,a3,a1
9d00ad8c:	11200008 	beqz	t1,9d00adb0 <__divdi3+0x218>
9d00ad90:	00402025 	move	a0,v0
9d00ad94:	01073821 	addu	a3,t0,a3
9d00ad98:	00e8402b 	sltu	t0,a3,t0
9d00ad9c:	15000004 	bnez	t0,9d00adb0 <__divdi3+0x218>
9d00ada0:	2444ffff 	addiu	a0,v0,-1
9d00ada4:	00e5382b 	sltu	a3,a3,a1
9d00ada8:	54e00001 	bnezl	a3,9d00adb0 <__divdi3+0x218>
9d00adac:	2444fffe 	addiu	a0,v0,-2
9d00adb0:	1000ffc3 	b	9d00acc0 <__divdi3+0x128>
9d00adb4:	00061400 	sll	v0,a2,0x10
9d00adb8:	24070020 	li	a3,32
9d00adbc:	00eb3823 	subu	a3,a3,t3
9d00adc0:	01684004 	sllv	t0,t0,t3
9d00adc4:	01651004 	sllv	v0,a1,t3
9d00adc8:	00081c02 	srl	v1,t0,0x10
9d00adcc:	00e52806 	srlv	a1,a1,a3
9d00add0:	00a3001b 	divu	zero,a1,v1
9d00add4:	006001f4 	teq	v1,zero,0x7
9d00add8:	3106ffff 	andi	a2,t0,0xffff
9d00addc:	00e44806 	srlv	t1,a0,a3
9d00ade0:	01224825 	or	t1,t1,v0
9d00ade4:	00091402 	srl	v0,t1,0x10
9d00ade8:	00002812 	mflo	a1
9d00adec:	00003810 	mfhi	a3
9d00adf0:	00073c00 	sll	a3,a3,0x10
9d00adf4:	00e23825 	or	a3,a3,v0
9d00adf8:	70c56002 	mul	t4,a2,a1
9d00adfc:	00ec682b 	sltu	t5,a3,t4
9d00ae00:	11a0000a 	beqz	t5,9d00ae2c <__divdi3+0x294>
9d00ae04:	00a01025 	move	v0,a1
9d00ae08:	00e83821 	addu	a3,a3,t0
9d00ae0c:	00e8682b 	sltu	t5,a3,t0
9d00ae10:	15a00006 	bnez	t5,9d00ae2c <__divdi3+0x294>
9d00ae14:	24a2ffff 	addiu	v0,a1,-1
9d00ae18:	00ec682b 	sltu	t5,a3,t4
9d00ae1c:	51a00004 	beqzl	t5,9d00ae30 <__divdi3+0x298>
9d00ae20:	00ec3823 	subu	a3,a3,t4
9d00ae24:	24a2fffe 	addiu	v0,a1,-2
9d00ae28:	00e83821 	addu	a3,a3,t0
9d00ae2c:	00ec3823 	subu	a3,a3,t4
9d00ae30:	00e3001b 	divu	zero,a3,v1
9d00ae34:	006001f4 	teq	v1,zero,0x7
9d00ae38:	3125ffff 	andi	a1,t1,0xffff
9d00ae3c:	00001812 	mflo	v1
9d00ae40:	00003810 	mfhi	a3
9d00ae44:	00073c00 	sll	a3,a3,0x10
9d00ae48:	00e52825 	or	a1,a3,a1
9d00ae4c:	70c33002 	mul	a2,a2,v1
9d00ae50:	00a6482b 	sltu	t1,a1,a2
9d00ae54:	1120000a 	beqz	t1,9d00ae80 <__divdi3+0x2e8>
9d00ae58:	00603825 	move	a3,v1
9d00ae5c:	00a82821 	addu	a1,a1,t0
9d00ae60:	00a8482b 	sltu	t1,a1,t0
9d00ae64:	15200006 	bnez	t1,9d00ae80 <__divdi3+0x2e8>
9d00ae68:	2467ffff 	addiu	a3,v1,-1
9d00ae6c:	00a6482b 	sltu	t1,a1,a2
9d00ae70:	51200004 	beqzl	t1,9d00ae84 <__divdi3+0x2ec>
9d00ae74:	00021c00 	sll	v1,v0,0x10
9d00ae78:	2467fffe 	addiu	a3,v1,-2
9d00ae7c:	00a82821 	addu	a1,a1,t0
9d00ae80:	00021c00 	sll	v1,v0,0x10
9d00ae84:	01644804 	sllv	t1,a0,t3
9d00ae88:	00a62823 	subu	a1,a1,a2
9d00ae8c:	1000ff9f 	b	9d00ad0c <__divdi3+0x174>
9d00ae90:	00671825 	or	v1,v1,a3
9d00ae94:	00a7402b 	sltu	t0,a1,a3
9d00ae98:	00001825 	move	v1,zero
9d00ae9c:	1500ff89 	bnez	t0,9d00acc4 <__divdi3+0x12c>
9d00aea0:	00001025 	move	v0,zero
9d00aea4:	70eb5820 	clz	t3,a3
9d00aea8:	15600007 	bnez	t3,9d00aec8 <__divdi3+0x330>
9d00aeac:	24090020 	li	t1,32
9d00aeb0:	00e5282b 	sltu	a1,a3,a1
9d00aeb4:	14a0ff83 	bnez	a1,9d00acc4 <__divdi3+0x12c>
9d00aeb8:	24020001 	li	v0,1
9d00aebc:	0086102b 	sltu	v0,a0,a2
9d00aec0:	1000ff80 	b	9d00acc4 <__divdi3+0x12c>
9d00aec4:	38420001 	xori	v0,v0,0x1
9d00aec8:	012b4823 	subu	t1,t1,t3
9d00aecc:	01261006 	srlv	v0,a2,t1
9d00aed0:	01673804 	sllv	a3,a3,t3
9d00aed4:	00473825 	or	a3,v0,a3
9d00aed8:	00074402 	srl	t0,a3,0x10
9d00aedc:	01651004 	sllv	v0,a1,t3
9d00aee0:	01252806 	srlv	a1,a1,t1
9d00aee4:	00a8001b 	divu	zero,a1,t0
9d00aee8:	010001f4 	teq	t0,zero,0x7
9d00aeec:	30ecffff 	andi	t4,a3,0xffff
9d00aef0:	01241806 	srlv	v1,a0,t1
9d00aef4:	00621025 	or	v0,v1,v0
9d00aef8:	00021c02 	srl	v1,v0,0x10
9d00aefc:	00002812 	mflo	a1
9d00af00:	00004810 	mfhi	t1
9d00af04:	00094c00 	sll	t1,t1,0x10
9d00af08:	01234825 	or	t1,t1,v1
9d00af0c:	71856802 	mul	t5,t4,a1
9d00af10:	012d702b 	sltu	t6,t1,t5
9d00af14:	11c0000a 	beqz	t6,9d00af40 <__divdi3+0x3a8>
9d00af18:	00a01825 	move	v1,a1
9d00af1c:	01274821 	addu	t1,t1,a3
9d00af20:	0127702b 	sltu	t6,t1,a3
9d00af24:	15c00006 	bnez	t6,9d00af40 <__divdi3+0x3a8>
9d00af28:	24a3ffff 	addiu	v1,a1,-1
9d00af2c:	012d702b 	sltu	t6,t1,t5
9d00af30:	51c00004 	beqzl	t6,9d00af44 <__divdi3+0x3ac>
9d00af34:	012d4823 	subu	t1,t1,t5
9d00af38:	24a3fffe 	addiu	v1,a1,-2
9d00af3c:	01274821 	addu	t1,t1,a3
9d00af40:	012d4823 	subu	t1,t1,t5
9d00af44:	0128001b 	divu	zero,t1,t0
9d00af48:	010001f4 	teq	t0,zero,0x7
9d00af4c:	3045ffff 	andi	a1,v0,0xffff
9d00af50:	00004012 	mflo	t0
9d00af54:	00004810 	mfhi	t1
9d00af58:	00094c00 	sll	t1,t1,0x10
9d00af5c:	01252825 	or	a1,t1,a1
9d00af60:	71886002 	mul	t4,t4,t0
9d00af64:	00ac102b 	sltu	v0,a1,t4
9d00af68:	1040000a 	beqz	v0,9d00af94 <__divdi3+0x3fc>
9d00af6c:	01004825 	move	t1,t0
9d00af70:	00a72821 	addu	a1,a1,a3
9d00af74:	00a7102b 	sltu	v0,a1,a3
9d00af78:	14400006 	bnez	v0,9d00af94 <__divdi3+0x3fc>
9d00af7c:	2509ffff 	addiu	t1,t0,-1
9d00af80:	00ac102b 	sltu	v0,a1,t4
9d00af84:	10400004 	beqz	v0,9d00af98 <__divdi3+0x400>
9d00af88:	00031400 	sll	v0,v1,0x10
9d00af8c:	2509fffe 	addiu	t1,t0,-2
9d00af90:	00a72821 	addu	a1,a1,a3
9d00af94:	00031400 	sll	v0,v1,0x10
9d00af98:	01663004 	sllv	a2,a2,t3
9d00af9c:	00491025 	or	v0,v0,t1
9d00afa0:	00c20019 	multu	a2,v0
9d00afa4:	00ac2823 	subu	a1,a1,t4
9d00afa8:	00003810 	mfhi	a3
9d00afac:	00a7182b 	sltu	v1,a1,a3
9d00afb0:	14600007 	bnez	v1,9d00afd0 <__divdi3+0x438>
9d00afb4:	00003012 	mflo	a2
9d00afb8:	14a7ff42 	bne	a1,a3,9d00acc4 <__divdi3+0x12c>
9d00afbc:	00001825 	move	v1,zero
9d00afc0:	01642004 	sllv	a0,a0,t3
9d00afc4:	0086202b 	sltu	a0,a0,a2
9d00afc8:	1080ff3e 	beqz	a0,9d00acc4 <__divdi3+0x12c>
9d00afcc:	00000000 	nop
9d00afd0:	2442ffff 	addiu	v0,v0,-1
9d00afd4:	1000ff3b 	b	9d00acc4 <__divdi3+0x12c>
9d00afd8:	00001825 	move	v1,zero

9d00afdc <__moddi3>:
9d00afdc:	04a10007 	bgez	a1,9d00affc <__moddi3+0x20>
9d00afe0:	00006025 	move	t4,zero
9d00afe4:	00041023 	negu	v0,a0
9d00afe8:	0002482b 	sltu	t1,zero,v0
9d00afec:	00052823 	negu	a1,a1
9d00aff0:	00402025 	move	a0,v0
9d00aff4:	00a92823 	subu	a1,a1,t1
9d00aff8:	240cffff 	li	t4,-1
9d00affc:	04e10006 	bgez	a3,9d00b018 <__moddi3+0x3c>
9d00b000:	00c04825 	move	t1,a2
9d00b004:	00063023 	negu	a2,a2
9d00b008:	0006102b 	sltu	v0,zero,a2
9d00b00c:	00073823 	negu	a3,a3
9d00b010:	00e23823 	subu	a3,a3,v0
9d00b014:	00c04825 	move	t1,a2
9d00b018:	00801025 	move	v0,a0
9d00b01c:	14e0009c 	bnez	a3,9d00b290 <__moddi3+0x2b4>
9d00b020:	00a01825 	move	v1,a1
9d00b024:	00a6302b 	sltu	a2,a1,a2
9d00b028:	10c00039 	beqz	a2,9d00b110 <__moddi3+0x134>
9d00b02c:	712a5020 	clz	t2,t1
9d00b030:	51400008 	beqzl	t2,9d00b054 <__moddi3+0x78>
9d00b034:	00092402 	srl	a0,t1,0x10
9d00b038:	01451804 	sllv	v1,a1,t2
9d00b03c:	000a2823 	negu	a1,t2
9d00b040:	00a42806 	srlv	a1,a0,a1
9d00b044:	01494804 	sllv	t1,t1,t2
9d00b048:	00a31825 	or	v1,a1,v1
9d00b04c:	01441004 	sllv	v0,a0,t2
9d00b050:	00092402 	srl	a0,t1,0x10
9d00b054:	0064001b 	divu	zero,v1,a0
9d00b058:	008001f4 	teq	a0,zero,0x7
9d00b05c:	3127ffff 	andi	a3,t1,0xffff
9d00b060:	00001812 	mflo	v1
9d00b064:	00002810 	mfhi	a1
9d00b068:	70673002 	mul	a2,v1,a3
9d00b06c:	00051c00 	sll	v1,a1,0x10
9d00b070:	00022c02 	srl	a1,v0,0x10
9d00b074:	00651825 	or	v1,v1,a1
9d00b078:	0066282b 	sltu	a1,v1,a2
9d00b07c:	50a00008 	beqzl	a1,9d00b0a0 <__moddi3+0xc4>
9d00b080:	00661823 	subu	v1,v1,a2
9d00b084:	00691821 	addu	v1,v1,t1
9d00b088:	0069282b 	sltu	a1,v1,t1
9d00b08c:	14a00003 	bnez	a1,9d00b09c <__moddi3+0xc0>
9d00b090:	0066282b 	sltu	a1,v1,a2
9d00b094:	54a00001 	bnezl	a1,9d00b09c <__moddi3+0xc0>
9d00b098:	00691821 	addu	v1,v1,t1
9d00b09c:	00661823 	subu	v1,v1,a2
9d00b0a0:	0064001b 	divu	zero,v1,a0
9d00b0a4:	008001f4 	teq	a0,zero,0x7
9d00b0a8:	3042ffff 	andi	v0,v0,0xffff
9d00b0ac:	00001812 	mflo	v1
9d00b0b0:	00003010 	mfhi	a2
9d00b0b4:	70672002 	mul	a0,v1,a3
9d00b0b8:	00061c00 	sll	v1,a2,0x10
9d00b0bc:	00621025 	or	v0,v1,v0
9d00b0c0:	0044182b 	sltu	v1,v0,a0
9d00b0c4:	50600008 	beqzl	v1,9d00b0e8 <__moddi3+0x10c>
9d00b0c8:	00441023 	subu	v0,v0,a0
9d00b0cc:	00491021 	addu	v0,v0,t1
9d00b0d0:	0049182b 	sltu	v1,v0,t1
9d00b0d4:	14600003 	bnez	v1,9d00b0e4 <__moddi3+0x108>
9d00b0d8:	0044182b 	sltu	v1,v0,a0
9d00b0dc:	54600001 	bnezl	v1,9d00b0e4 <__moddi3+0x108>
9d00b0e0:	00491021 	addu	v0,v0,t1
9d00b0e4:	00441023 	subu	v0,v0,a0
9d00b0e8:	01421006 	srlv	v0,v0,t2
9d00b0ec:	00001825 	move	v1,zero
9d00b0f0:	11800005 	beqz	t4,9d00b108 <__moddi3+0x12c>
9d00b0f4:	00000000 	nop
9d00b0f8:	00021023 	negu	v0,v0
9d00b0fc:	0002202b 	sltu	a0,zero,v0
9d00b100:	00031823 	negu	v1,v1
9d00b104:	00641823 	subu	v1,v1,a0
9d00b108:	03e00008 	jr	ra
9d00b10c:	00000000 	nop
9d00b110:	15200006 	bnez	t1,9d00b12c <__moddi3+0x150>
9d00b114:	00000000 	nop
9d00b118:	24090001 	li	t1,1
9d00b11c:	0127001b 	divu	zero,t1,a3
9d00b120:	00e001f4 	teq	a3,zero,0x7
9d00b124:	00004812 	mflo	t1
9d00b128:	712a5020 	clz	t2,t1
9d00b12c:	15400029 	bnez	t2,9d00b1d4 <__moddi3+0x1f8>
9d00b130:	24070020 	li	a3,32
9d00b134:	00a92823 	subu	a1,a1,t1
9d00b138:	00092402 	srl	a0,t1,0x10
9d00b13c:	00a4001b 	divu	zero,a1,a0
9d00b140:	008001f4 	teq	a0,zero,0x7
9d00b144:	3127ffff 	andi	a3,t1,0xffff
9d00b148:	00002812 	mflo	a1
9d00b14c:	00001810 	mfhi	v1
9d00b150:	70a73002 	mul	a2,a1,a3
9d00b154:	00032c00 	sll	a1,v1,0x10
9d00b158:	00021c02 	srl	v1,v0,0x10
9d00b15c:	00a32825 	or	a1,a1,v1
9d00b160:	00a6182b 	sltu	v1,a1,a2
9d00b164:	50600008 	beqzl	v1,9d00b188 <__moddi3+0x1ac>
9d00b168:	00a63023 	subu	a2,a1,a2
9d00b16c:	00a92821 	addu	a1,a1,t1
9d00b170:	00a9182b 	sltu	v1,a1,t1
9d00b174:	14600003 	bnez	v1,9d00b184 <__moddi3+0x1a8>
9d00b178:	00a6182b 	sltu	v1,a1,a2
9d00b17c:	54600001 	bnezl	v1,9d00b184 <__moddi3+0x1a8>
9d00b180:	00a92821 	addu	a1,a1,t1
9d00b184:	00a63023 	subu	a2,a1,a2
9d00b188:	00c4001b 	divu	zero,a2,a0
9d00b18c:	008001f4 	teq	a0,zero,0x7
9d00b190:	3042ffff 	andi	v0,v0,0xffff
9d00b194:	00003012 	mflo	a2
9d00b198:	00002810 	mfhi	a1
9d00b19c:	70c71802 	mul	v1,a2,a3
9d00b1a0:	00053400 	sll	a2,a1,0x10
9d00b1a4:	00c21025 	or	v0,a2,v0
9d00b1a8:	0043202b 	sltu	a0,v0,v1
9d00b1ac:	5080ffce 	beqzl	a0,9d00b0e8 <__moddi3+0x10c>
9d00b1b0:	00431023 	subu	v0,v0,v1
9d00b1b4:	00491021 	addu	v0,v0,t1
9d00b1b8:	0049202b 	sltu	a0,v0,t1
9d00b1bc:	14800003 	bnez	a0,9d00b1cc <__moddi3+0x1f0>
9d00b1c0:	0043202b 	sltu	a0,v0,v1
9d00b1c4:	54800001 	bnezl	a0,9d00b1cc <__moddi3+0x1f0>
9d00b1c8:	00491021 	addu	v0,v0,t1
9d00b1cc:	1000ffc6 	b	9d00b0e8 <__moddi3+0x10c>
9d00b1d0:	00431023 	subu	v0,v0,v1
9d00b1d4:	00ea3823 	subu	a3,a3,t2
9d00b1d8:	01494804 	sllv	t1,t1,t2
9d00b1dc:	00e41806 	srlv	v1,a0,a3
9d00b1e0:	00093402 	srl	a2,t1,0x10
9d00b1e4:	00e53806 	srlv	a3,a1,a3
9d00b1e8:	00e6001b 	divu	zero,a3,a2
9d00b1ec:	00c001f4 	teq	a2,zero,0x7
9d00b1f0:	01451004 	sllv	v0,a1,t2
9d00b1f4:	3128ffff 	andi	t0,t1,0xffff
9d00b1f8:	00621825 	or	v1,v1,v0
9d00b1fc:	00032c02 	srl	a1,v1,0x10
9d00b200:	00003812 	mflo	a3
9d00b204:	00005810 	mfhi	t3
9d00b208:	70e81002 	mul	v0,a3,t0
9d00b20c:	000b3c00 	sll	a3,t3,0x10
9d00b210:	00e53825 	or	a3,a3,a1
9d00b214:	00e2282b 	sltu	a1,a3,v0
9d00b218:	50a00008 	beqzl	a1,9d00b23c <__moddi3+0x260>
9d00b21c:	00e23823 	subu	a3,a3,v0
9d00b220:	00e93821 	addu	a3,a3,t1
9d00b224:	00e9282b 	sltu	a1,a3,t1
9d00b228:	14a00003 	bnez	a1,9d00b238 <__moddi3+0x25c>
9d00b22c:	00e2282b 	sltu	a1,a3,v0
9d00b230:	54a00001 	bnezl	a1,9d00b238 <__moddi3+0x25c>
9d00b234:	00e93821 	addu	a3,a3,t1
9d00b238:	00e23823 	subu	a3,a3,v0
9d00b23c:	00e6001b 	divu	zero,a3,a2
9d00b240:	00c001f4 	teq	a2,zero,0x7
9d00b244:	3065ffff 	andi	a1,v1,0xffff
9d00b248:	00003012 	mflo	a2
9d00b24c:	00003810 	mfhi	a3
9d00b250:	00073c00 	sll	a3,a3,0x10
9d00b254:	00e52825 	or	a1,a3,a1
9d00b258:	70c83002 	mul	a2,a2,t0
9d00b25c:	00a6102b 	sltu	v0,a1,a2
9d00b260:	10400009 	beqz	v0,9d00b288 <__moddi3+0x2ac>
9d00b264:	01441004 	sllv	v0,a0,t2
9d00b268:	00a92821 	addu	a1,a1,t1
9d00b26c:	00a9102b 	sltu	v0,a1,t1
9d00b270:	14400005 	bnez	v0,9d00b288 <__moddi3+0x2ac>
9d00b274:	01441004 	sllv	v0,a0,t2
9d00b278:	00a6102b 	sltu	v0,a1,a2
9d00b27c:	54400001 	bnezl	v0,9d00b284 <__moddi3+0x2a8>
9d00b280:	00a92821 	addu	a1,a1,t1
9d00b284:	01441004 	sllv	v0,a0,t2
9d00b288:	1000ffab 	b	9d00b138 <__moddi3+0x15c>
9d00b28c:	00a62823 	subu	a1,a1,a2
9d00b290:	00a7402b 	sltu	t0,a1,a3
9d00b294:	1500ff96 	bnez	t0,9d00b0f0 <__moddi3+0x114>
9d00b298:	70ed6820 	clz	t5,a3
9d00b29c:	15a0000a 	bnez	t5,9d00b2c8 <__moddi3+0x2ec>
9d00b2a0:	00e5402b 	sltu	t0,a3,a1
9d00b2a4:	15000003 	bnez	t0,9d00b2b4 <__moddi3+0x2d8>
9d00b2a8:	0086402b 	sltu	t0,a0,a2
9d00b2ac:	1500ff90 	bnez	t0,9d00b0f0 <__moddi3+0x114>
9d00b2b0:	00000000 	nop
9d00b2b4:	00861023 	subu	v0,a0,a2
9d00b2b8:	00a72823 	subu	a1,a1,a3
9d00b2bc:	0082182b 	sltu	v1,a0,v0
9d00b2c0:	1000ff8b 	b	9d00b0f0 <__moddi3+0x114>
9d00b2c4:	00a31823 	subu	v1,a1,v1
9d00b2c8:	240b0020 	li	t3,32
9d00b2cc:	016d5823 	subu	t3,t3,t5
9d00b2d0:	01664006 	srlv	t0,a2,t3
9d00b2d4:	01a73804 	sllv	a3,a3,t5
9d00b2d8:	01073825 	or	a3,t0,a3
9d00b2dc:	01a51004 	sllv	v0,a1,t5
9d00b2e0:	00074c02 	srl	t1,a3,0x10
9d00b2e4:	01652806 	srlv	a1,a1,t3
9d00b2e8:	00a9001b 	divu	zero,a1,t1
9d00b2ec:	012001f4 	teq	t1,zero,0x7
9d00b2f0:	30e8ffff 	andi	t0,a3,0xffff
9d00b2f4:	01641806 	srlv	v1,a0,t3
9d00b2f8:	00621825 	or	v1,v1,v0
9d00b2fc:	00031402 	srl	v0,v1,0x10
9d00b300:	00002812 	mflo	a1
9d00b304:	00005010 	mfhi	t2
9d00b308:	000a5400 	sll	t2,t2,0x10
9d00b30c:	01425025 	or	t2,t2,v0
9d00b310:	71057002 	mul	t6,t0,a1
9d00b314:	014e782b 	sltu	t7,t2,t6
9d00b318:	11e0000a 	beqz	t7,9d00b344 <__moddi3+0x368>
9d00b31c:	00a01025 	move	v0,a1
9d00b320:	01475021 	addu	t2,t2,a3
9d00b324:	0147782b 	sltu	t7,t2,a3
9d00b328:	15e00006 	bnez	t7,9d00b344 <__moddi3+0x368>
9d00b32c:	24a2ffff 	addiu	v0,a1,-1
9d00b330:	014e782b 	sltu	t7,t2,t6
9d00b334:	51e00004 	beqzl	t7,9d00b348 <__moddi3+0x36c>
9d00b338:	014e5023 	subu	t2,t2,t6
9d00b33c:	24a2fffe 	addiu	v0,a1,-2
9d00b340:	01475021 	addu	t2,t2,a3
9d00b344:	014e5023 	subu	t2,t2,t6
9d00b348:	0149001b 	divu	zero,t2,t1
9d00b34c:	012001f4 	teq	t1,zero,0x7
9d00b350:	00004812 	mflo	t1
9d00b354:	00005010 	mfhi	t2
9d00b358:	000a5400 	sll	t2,t2,0x10
9d00b35c:	71092802 	mul	a1,t0,t1
9d00b360:	3068ffff 	andi	t0,v1,0xffff
9d00b364:	01484025 	or	t0,t2,t0
9d00b368:	0105182b 	sltu	v1,t0,a1
9d00b36c:	1060000a 	beqz	v1,9d00b398 <__moddi3+0x3bc>
9d00b370:	01205025 	move	t2,t1
9d00b374:	01074021 	addu	t0,t0,a3
9d00b378:	0107182b 	sltu	v1,t0,a3
9d00b37c:	14600006 	bnez	v1,9d00b398 <__moddi3+0x3bc>
9d00b380:	252affff 	addiu	t2,t1,-1
9d00b384:	0105182b 	sltu	v1,t0,a1
9d00b388:	10600004 	beqz	v1,9d00b39c <__moddi3+0x3c0>
9d00b38c:	00027400 	sll	t6,v0,0x10
9d00b390:	252afffe 	addiu	t2,t1,-2
9d00b394:	01074021 	addu	t0,t0,a3
9d00b398:	00027400 	sll	t6,v0,0x10
9d00b39c:	01ca7025 	or	t6,t6,t2
9d00b3a0:	01a63004 	sllv	a2,a2,t5
9d00b3a4:	01c60019 	multu	t6,a2
9d00b3a8:	01054023 	subu	t0,t0,a1
9d00b3ac:	01a41804 	sllv	v1,a0,t5
9d00b3b0:	00007810 	mfhi	t7
9d00b3b4:	010f102b 	sltu	v0,t0,t7
9d00b3b8:	01e02825 	move	a1,t7
9d00b3bc:	00007012 	mflo	t6
9d00b3c0:	14400006 	bnez	v0,9d00b3dc <__moddi3+0x400>
9d00b3c4:	00002012 	mflo	a0
9d00b3c8:	150f0009 	bne	t0,t7,9d00b3f0 <__moddi3+0x414>
9d00b3cc:	00642023 	subu	a0,v1,a0
9d00b3d0:	006e102b 	sltu	v0,v1,t6
9d00b3d4:	50400007 	beqzl	v0,9d00b3f4 <__moddi3+0x418>
9d00b3d8:	0064182b 	sltu	v1,v1,a0
9d00b3dc:	01c62023 	subu	a0,t6,a2
9d00b3e0:	01e73823 	subu	a3,t7,a3
9d00b3e4:	01c4702b 	sltu	t6,t6,a0
9d00b3e8:	00ee2823 	subu	a1,a3,t6
9d00b3ec:	00642023 	subu	a0,v1,a0
9d00b3f0:	0064182b 	sltu	v1,v1,a0
9d00b3f4:	01054023 	subu	t0,t0,a1
9d00b3f8:	01031823 	subu	v1,t0,v1
9d00b3fc:	01631004 	sllv	v0,v1,t3
9d00b400:	01a42006 	srlv	a0,a0,t5
9d00b404:	00441025 	or	v0,v0,a0
9d00b408:	1000ff39 	b	9d00b0f0 <__moddi3+0x114>
9d00b40c:	01a31806 	srlv	v1,v1,t5

Disassembly of section .text.dp32subadd:

9d00b410 <__subdf3>:
9d00b410:	3c018000 00e13826                       ...<&8..

9d00b418 <__adddf3>:
9d00b418:	00055840 000b5d42 000552c0 00047d42     @X..B]...R..B}..
9d00b428:	014f5025 00044ac0 3c088000 01485025     %PO..J.....<%PH.
9d00b438:	00077040 000e7542 00076ac0 00067d42     @p..Bu...j..B}..
9d00b448:	01af6825 000662c0 01a86825 256fffff     %h...b..%h....o%
9d00b458:	2de107fe 1020008d 00000000              ...-.. .....

9d00b464 <Blab1>:
9d00b464:	25cfffff 	addiu	t7,t6,-1
9d00b468:	2de107fe 	sltiu	at,t7,2046
9d00b46c:	102000bb 	beqz	at,9d00b75c <BspecB>
9d00b470:	00000000 	nop

9d00b474 <Blab2>:
9d00b474:	3c018000 	lui	at,0x8000
9d00b478:	00a12824 	and	a1,a1,at
9d00b47c:	016e4023 	subu	t0,t3,t6
9d00b480:	1100002c 	beqz	t0,9d00b534 <Badd3>
9d00b484:	00000000 	nop
9d00b488:	19000015 	blez	t0,9d00b4e0 <i1>
9d00b48c:	00000000 	nop

9d00b490 <L1>:
9d00b490:	2d010020 	sltiu	at,t0,32
9d00b494:	14200007 	bnez	at,9d00b4b4 <L2>
9d00b498:	00000000 	nop
9d00b49c:	2108ffe0 	addi	t0,t0,-32
9d00b4a0:	000c302b 	sltu	a2,zero,t4
9d00b4a4:	100d0023 	beq	zero,t5,9d00b534 <Badd3>
9d00b4a8:	01a66025 	or	t4,t5,a2
9d00b4ac:	1000fff8 	b	9d00b490 <L1>
9d00b4b0:	340d0000 	li	t5,0x0

9d00b4b4 <L2>:
9d00b4b4:	1100001f 	beqz	t0,9d00b534 <Badd3>
9d00b4b8:	00000000 	nop
9d00b4bc:	00082022 	neg	a0,t0
9d00b4c0:	008c3004 	sllv	a2,t4,a0
9d00b4c4:	008d2004 	sllv	a0,t5,a0
9d00b4c8:	010c6006 	srlv	t4,t4,t0
9d00b4cc:	010d6806 	srlv	t5,t5,t0
9d00b4d0:	10c00018 	beqz	a2,9d00b534 <Badd3>
9d00b4d4:	008c6025 	or	t4,a0,t4
9d00b4d8:	10000016 	b	9d00b534 <Badd3>
9d00b4dc:	358c0002 	ori	t4,t4,0x2

9d00b4e0 <i1>:
9d00b4e0:	000e5825 	or	t3,zero,t6
9d00b4e4:	00084023 	negu	t0,t0

9d00b4e8 <L4>:
9d00b4e8:	2d010020 	sltiu	at,t0,32
9d00b4ec:	14200007 	bnez	at,9d00b50c <L5>
9d00b4f0:	00000000 	nop
9d00b4f4:	2108ffe0 	addi	t0,t0,-32
9d00b4f8:	0009302b 	sltu	a2,zero,t1
9d00b4fc:	100a000d 	beq	zero,t2,9d00b534 <Badd3>
9d00b500:	01464825 	or	t1,t2,a2
9d00b504:	1000fff8 	b	9d00b4e8 <L4>
9d00b508:	340a0000 	li	t2,0x0

9d00b50c <L5>:
9d00b50c:	11000009 	beqz	t0,9d00b534 <Badd3>
9d00b510:	00000000 	nop
9d00b514:	00082022 	neg	a0,t0
9d00b518:	00893004 	sllv	a2,t1,a0
9d00b51c:	008a2004 	sllv	a0,t2,a0
9d00b520:	01094806 	srlv	t1,t1,t0
9d00b524:	010a5006 	srlv	t2,t2,t0
9d00b528:	10c00002 	beqz	a2,9d00b534 <Badd3>
9d00b52c:	00894825 	or	t1,a0,t1
9d00b530:	35290002 	ori	t1,t1,0x2

9d00b534 <Badd3>:
9d00b534:	00a77826 	xor	t7,a1,a3
9d00b538:	05e0001c 	bltz	t7,9d00b5ac <Bsub1>
9d00b53c:	00000000 	nop
9d00b540:	012c4821 	addu	t1,t1,t4
9d00b544:	012c782b 	sltu	t7,t1,t4
9d00b548:	014d5021 	addu	t2,t2,t5
9d00b54c:	014f5021 	addu	t2,t2,t7
9d00b550:	114d0002 	beq	t2,t5,9d00b55c <L7>
9d00b554:	00000000 	nop
9d00b558:	014d782b 	sltu	t7,t2,t5

9d00b55c <L7>:
9d00b55c:	11e00037 	beqz	t7,9d00b63c <Bres>
9d00b560:	00000000 	nop
9d00b564:	312f0001 	andi	t7,t1,0x1
9d00b568:	11e00002 	beqz	t7,9d00b574 <i3>
9d00b56c:	00000000 	nop
9d00b570:	35290002 	ori	t1,t1,0x2

9d00b574 <i3>:
9d00b574:	00094842 	srl	t1,t1,0x1
9d00b578:	000a7fc0 	sll	t7,t2,0x1f
9d00b57c:	012f4825 	or	t1,t1,t7
9d00b580:	000a5042 	srl	t2,t2,0x1
9d00b584:	3c018000 	lui	at,0x8000
9d00b588:	01415025 	or	t2,t2,at
9d00b58c:	256b0001 	addiu	t3,t3,1
9d00b590:	240107ff 	li	at,2047
9d00b594:	15610029 	bne	t3,at,9d00b63c <Bres>
9d00b598:	00000000 	nop
9d00b59c:	3c017ff0 	lui	at,0x7ff0
9d00b5a0:	00a12825 	or	a1,a1,at
9d00b5a4:	10000037 	b	9d00b684 <BretA>
9d00b5a8:	24040000 	li	a0,0

9d00b5ac <Bsub1>:
9d00b5ac:	012c782b 	sltu	t7,t1,t4
9d00b5b0:	012c4823 	subu	t1,t1,t4
9d00b5b4:	014f102b 	sltu	v0,t2,t7
9d00b5b8:	014f5023 	subu	t2,t2,t7
9d00b5bc:	014d782b 	sltu	t7,t2,t5
9d00b5c0:	01e27825 	or	t7,t7,v0
9d00b5c4:	11e00007 	beqz	t7,9d00b5e4 <i5>
9d00b5c8:	014d5023 	subu	t2,t2,t5
9d00b5cc:	3c018000 	lui	at,0x8000
9d00b5d0:	00a12826 	xor	a1,a1,at
9d00b5d4:	0009782b 	sltu	t7,zero,t1
9d00b5d8:	00094823 	negu	t1,t1
9d00b5dc:	000a5023 	negu	t2,t2
9d00b5e0:	014f5023 	subu	t2,t2,t7

9d00b5e4 <i5>:
9d00b5e4:	15400008 	bnez	t2,9d00b608 <L8>
9d00b5e8:	00000000 	nop
9d00b5ec:	15200003 	bnez	t1,9d00b5fc <L9>
9d00b5f0:	00000000 	nop
9d00b5f4:	1000000d 	b	9d00b62c <L10>
9d00b5f8:	240b0000 	li	t3,0

9d00b5fc <L9>:
9d00b5fc:	01205025 	move	t2,t1
9d00b600:	24090000 	li	t1,0
9d00b604:	256bffe0 	addiu	t3,t3,-32

9d00b608 <L8>:
9d00b608:	71484020 	clz	t0,t2
9d00b60c:	11000007 	beqz	t0,9d00b62c <L10>
9d00b610:	00000000 	nop
9d00b614:	01685823 	subu	t3,t3,t0
9d00b618:	00082022 	neg	a0,t0
9d00b61c:	00892006 	srlv	a0,t1,a0
9d00b620:	01094804 	sllv	t1,t1,t0
9d00b624:	010a5004 	sllv	t2,t2,t0
9d00b628:	01445025 	or	t2,t2,a0

9d00b62c <L10>:
9d00b62c:	01497825 	or	t7,t2,t1
9d00b630:	15e00002 	bnez	t7,9d00b63c <Bres>
9d00b634:	00000000 	nop
9d00b638:	24050000 	li	a1,0

9d00b63c <Bres>:
9d00b63c:	19600068 	blez	t3,9d00b7e0 <Bund>
9d00b640:	00000000 	nop

9d00b644 <Blab8>:
9d00b644:	25290400 	addiu	t1,t1,1024
9d00b648:	2d2f0400 	sltiu	t7,t1,1024
9d00b64c:	014f5021 	addu	t2,t2,t7
9d00b650:	014f782b 	sltu	t7,t2,t7
9d00b654:	016f5821 	addu	t3,t3,t7
9d00b658:	00097ac2 	srl	t7,t1,0xb
9d00b65c:	31ef0001 	andi	t7,t7,0x1
9d00b660:	012f4823 	subu	t1,t1,t7
9d00b664:	000922c2 	srl	a0,t1,0xb
9d00b668:	000a7d40 	sll	t7,t2,0x15
9d00b66c:	008f2025 	or	a0,a0,t7
9d00b670:	000a7840 	sll	t7,t2,0x1
9d00b674:	000f7b02 	srl	t7,t7,0xc
9d00b678:	00af2825 	or	a1,a1,t7
9d00b67c:	000b7d00 	sll	t7,t3,0x14
9d00b680:	00af2825 	or	a1,a1,t7

9d00b684 <BretA>:
9d00b684:	00041025 	or	v0,zero,a0
9d00b688:	00051825 	or	v1,zero,a1

9d00b68c <B999>:
9d00b68c:	03e00008 	jr	ra
9d00b690:	00000000 	nop

9d00b694 <BspecA>:
9d00b694:	0120782a 	slt	t7,t1,zero
9d00b698:	01294821 	addu	t1,t1,t1
9d00b69c:	014a5021 	addu	t2,t2,t2
9d00b6a0:	15600023 	bnez	t3,9d00b730 <i7>
9d00b6a4:	014f5021 	addu	t2,t2,t7
9d00b6a8:	01497825 	or	t7,t2,t1
9d00b6ac:	11e00014 	beqz	t7,9d00b700 <i8>
9d00b6b0:	00000000 	nop
9d00b6b4:	15400008 	bnez	t2,9d00b6d8 <L11>
9d00b6b8:	00000000 	nop
9d00b6bc:	15200003 	bnez	t1,9d00b6cc <L12>
9d00b6c0:	00000000 	nop
9d00b6c4:	1000ff67 	b	9d00b464 <Blab1>
9d00b6c8:	240b0000 	li	t3,0

9d00b6cc <L12>:
9d00b6cc:	01205025 	move	t2,t1
9d00b6d0:	24090000 	li	t1,0
9d00b6d4:	256bffe0 	addiu	t3,t3,-32

9d00b6d8 <L11>:
9d00b6d8:	71484020 	clz	t0,t2
9d00b6dc:	1100ff61 	beqz	t0,9d00b464 <Blab1>
9d00b6e0:	00000000 	nop
9d00b6e4:	01685823 	subu	t3,t3,t0
9d00b6e8:	00082022 	neg	a0,t0
9d00b6ec:	00892006 	srlv	a0,t1,a0
9d00b6f0:	01094804 	sllv	t1,t1,t0
9d00b6f4:	010a5004 	sllv	t2,t2,t0
9d00b6f8:	1000ff5a 	b	9d00b464 <Blab1>
9d00b6fc:	01445025 	or	t2,t2,a0

9d00b700 <i8>:
9d00b700:	240107ff 	li	at,2047
9d00b704:	11c10015 	beq	t6,at,9d00b75c <BspecB>
9d00b708:	00000000 	nop
9d00b70c:	00e74021 	addu	t0,a3,a3
9d00b710:	01067825 	or	t7,t0,a2
9d00b714:	15e00003 	bnez	t7,9d00b724 <BretB>
9d00b718:	00000000 	nop
9d00b71c:	04e0ffd9 	bltz	a3,9d00b684 <BretA>
9d00b720:	00000000 	nop

9d00b724 <BretB>:
9d00b724:	00061025 	or	v0,zero,a2
9d00b728:	1000ffd8 	b	9d00b68c <B999>
9d00b72c:	00071825 	or	v1,zero,a3

9d00b730 <i7>:
9d00b730:	01497825 	or	t7,t2,t1
9d00b734:	15e00027 	bnez	t7,9d00b7d4 <Bnan>
9d00b738:	00000000 	nop
9d00b73c:	240107ff 	li	at,2047
9d00b740:	15c1ffd0 	bne	t6,at,9d00b684 <BretA>
9d00b744:	00000000 	nop
9d00b748:	00a77826 	xor	t7,a1,a3
9d00b74c:	05e00021 	bltz	t7,9d00b7d4 <Bnan>
9d00b750:	00000000 	nop
9d00b754:	1000fff3 	b	9d00b724 <BretB>
9d00b758:	00000000 	nop

9d00b75c <BspecB>:
9d00b75c:	0180782a 	slt	t7,t4,zero
9d00b760:	018c6021 	addu	t4,t4,t4
9d00b764:	01ad6821 	addu	t5,t5,t5
9d00b768:	15c00017 	bnez	t6,9d00b7c8 <i11>
9d00b76c:	01af6821 	addu	t5,t5,t7
9d00b770:	01ac7825 	or	t7,t5,t4
9d00b774:	11e0ffc3 	beqz	t7,9d00b684 <BretA>
9d00b778:	00000000 	nop
9d00b77c:	15a00008 	bnez	t5,9d00b7a0 <L14>
9d00b780:	00000000 	nop
9d00b784:	15800003 	bnez	t4,9d00b794 <L15>
9d00b788:	00000000 	nop
9d00b78c:	1000ff39 	b	9d00b474 <Blab2>
9d00b790:	240e0000 	li	t6,0

9d00b794 <L15>:
9d00b794:	01806825 	move	t5,t4
9d00b798:	240c0000 	li	t4,0
9d00b79c:	25ceffe0 	addiu	t6,t6,-32

9d00b7a0 <L14>:
9d00b7a0:	71a84020 	clz	t0,t5
9d00b7a4:	1100ff33 	beqz	t0,9d00b474 <Blab2>
9d00b7a8:	00000000 	nop
9d00b7ac:	01c87023 	subu	t6,t6,t0
9d00b7b0:	00082022 	neg	a0,t0
9d00b7b4:	008c2006 	srlv	a0,t4,a0
9d00b7b8:	010c6004 	sllv	t4,t4,t0
9d00b7bc:	010d6804 	sllv	t5,t5,t0
9d00b7c0:	1000ff2c 	b	9d00b474 <Blab2>
9d00b7c4:	01a46825 	or	t5,t5,a0

9d00b7c8 <i11>:
9d00b7c8:	01ac7825 	or	t7,t5,t4
9d00b7cc:	11e0ffd5 	beqz	t7,9d00b724 <BretB>
9d00b7d0:	00000000 	nop

9d00b7d4 <Bnan>:
9d00b7d4:	3c05fff8 	lui	a1,0xfff8
9d00b7d8:	1000ffaa 	b	9d00b684 <BretA>
9d00b7dc:	24040000 	li	a0,0

9d00b7e0 <Bund>:
9d00b7e0:	24080001 	li	t0,1
9d00b7e4:	010b4023 	subu	t0,t0,t3

9d00b7e8 <L17>:
9d00b7e8:	2d010020 	sltiu	at,t0,32
9d00b7ec:	14200007 	bnez	at,9d00b80c <L18>
9d00b7f0:	00000000 	nop
9d00b7f4:	2108ffe0 	addi	t0,t0,-32
9d00b7f8:	0009302b 	sltu	a2,zero,t1
9d00b7fc:	100a000d 	beq	zero,t2,9d00b834 <L19>
9d00b800:	01464825 	or	t1,t2,a2
9d00b804:	1000fff8 	b	9d00b7e8 <L17>
9d00b808:	340a0000 	li	t2,0x0

9d00b80c <L18>:
9d00b80c:	11000009 	beqz	t0,9d00b834 <L19>
9d00b810:	00000000 	nop
9d00b814:	00082022 	neg	a0,t0
9d00b818:	00893004 	sllv	a2,t1,a0
9d00b81c:	008a2004 	sllv	a0,t2,a0
9d00b820:	01094806 	srlv	t1,t1,t0
9d00b824:	010a5006 	srlv	t2,t2,t0
9d00b828:	10c00002 	beqz	a2,9d00b834 <L19>
9d00b82c:	00894825 	or	t1,a0,t1
9d00b830:	35290002 	ori	t1,t1,0x2

9d00b834 <L19>:
9d00b834:	1000ff83 	b	9d00b644 <Blab8>
9d00b838:	240b0000 	li	t3,0
9d00b83c:	00000000 	nop

Disassembly of section .text.__scan_fp:

9d00b840 <__scan_fp>:
9d00b840:	8cc2000c 	lw	v0,12(a2)
9d00b844:	27bdffb0 	addiu	sp,sp,-80
9d00b848:	afb40038 	sw	s4,56(sp)
9d00b84c:	afb00028 	sw	s0,40(sp)
9d00b850:	00e0a025 	move	s4,a3
9d00b854:	8cd00010 	lw	s0,16(a2)
9d00b858:	afb70044 	sw	s7,68(sp)
9d00b85c:	afb60040 	sw	s6,64(sp)
9d00b860:	afb5003c 	sw	s5,60(sp)
9d00b864:	afb30034 	sw	s3,52(sp)
9d00b868:	afb20030 	sw	s2,48(sp)
9d00b86c:	afb1002c 	sw	s1,44(sp)
9d00b870:	00809825 	move	s3,a0
9d00b874:	8cd10008 	lw	s1,8(a2)
9d00b878:	afbf004c 	sw	ra,76(sp)
9d00b87c:	afbe0048 	sw	s8,72(sp)
9d00b880:	afa50054 	sw	a1,84(sp)
9d00b884:	0f403b2d 	jal	9d00ecb4 <__skipws>
9d00b888:	afa20018 	sw	v0,24(sp)
9d00b88c:	8e840000 	lw	a0,0(s4)
9d00b890:	2603ffff 	addiu	v1,s0,-1
9d00b894:	0071880a 	movz	s1,v1,s1
9d00b898:	00821021 	addu	v0,a0,v0
9d00b89c:	ae820000 	sw	v0,0(s4)
9d00b8a0:	0071102a 	slt	v0,v1,s1
9d00b8a4:	0222180a 	movz	v1,s1,v0
9d00b8a8:	8fb10018 	lw	s1,24(sp)
9d00b8ac:	afa30024 	sw	v1,36(sp)
9d00b8b0:	24170001 	li	s7,1
9d00b8b4:	00008025 	move	s0,zero
9d00b8b8:	0000b025 	move	s6,zero
9d00b8bc:	00009025 	move	s2,zero
9d00b8c0:	0000a825 	move	s5,zero
9d00b8c4:	afa00020 	sw	zero,32(sp)
9d00b8c8:	8fa20024 	lw	v0,36(sp)
9d00b8cc:	0202102a 	slt	v0,s0,v0
9d00b8d0:	10400017 	beqz	v0,9d00b930 <__scan_fp+0xf0>
9d00b8d4:	afb0001c 	sw	s0,28(sp)
9d00b8d8:	8e62003c 	lw	v0,60(s3)
9d00b8dc:	8e63004c 	lw	v1,76(s3)
9d00b8e0:	0043182b 	sltu	v1,v0,v1
9d00b8e4:	10600024 	beqz	v1,9d00b978 <__scan_fp+0x138>
9d00b8e8:	24430001 	addiu	v1,v0,1
9d00b8ec:	ae63003c 	sw	v1,60(s3)
9d00b8f0:	905e0000 	lbu	s8,0(v0)
9d00b8f4:	27c2ffd5 	addiu	v0,s8,-43
9d00b8f8:	7c020844 	ins	v0,zero,0x1,0x1
9d00b8fc:	00521025 	or	v0,v0,s2
9d00b900:	5440003a 	bnezl	v0,9d00b9ec <__scan_fp+0x1ac>
9d00b904:	8fa20020 	lw	v0,32(sp)
9d00b908:	52000030 	beqzl	s0,9d00b9cc <__scan_fp+0x18c>
9d00b90c:	a23e0000 	sb	s8,0(s1)
9d00b910:	52b0002e 	beql	s5,s0,9d00b9cc <__scan_fp+0x18c>
9d00b914:	a23e0000 	sb	s8,0(s1)
9d00b918:	8e62004c 	lw	v0,76(s3)
9d00b91c:	10400005 	beqz	v0,9d00b934 <__scan_fp+0xf4>
9d00b920:	8fa20018 	lw	v0,24(sp)
9d00b924:	8e62003c 	lw	v0,60(s3)
9d00b928:	2442ffff 	addiu	v0,v0,-1
9d00b92c:	ae62003c 	sw	v0,60(s3)
9d00b930:	8fa20018 	lw	v0,24(sp)
9d00b934:	8fa3001c 	lw	v1,28(sp)
9d00b938:	27a50010 	addiu	a1,sp,16
9d00b93c:	00402025 	move	a0,v0
9d00b940:	00439821 	addu	s3,v0,v1
9d00b944:	0f40413f 	jal	9d0104fc <strtold>
9d00b948:	a2600000 	sb	zero,0(s3)
9d00b94c:	8fa40054 	lw	a0,84(sp)
9d00b950:	ac820000 	sw	v0,0(a0)
9d00b954:	ac830004 	sw	v1,4(a0)
9d00b958:	8fa20018 	lw	v0,24(sp)
9d00b95c:	8fa30010 	lw	v1,16(sp)
9d00b960:	0062a026 	xor	s4,v1,v0
9d00b964:	2402fffe 	li	v0,-2
9d00b968:	24030001 	li	v1,1
9d00b96c:	0054180a 	movz	v1,v0,s4
9d00b970:	10000009 	b	9d00b998 <__scan_fp+0x158>
9d00b974:	0060f025 	move	s8,v1
9d00b978:	0f403a56 	jal	9d00e958 <__shgetc>
9d00b97c:	02602025 	move	a0,s3
9d00b980:	0040f025 	move	s8,v0
9d00b984:	2402ffff 	li	v0,-1
9d00b988:	17c2ffda 	bne	s8,v0,9d00b8f4 <__scan_fp+0xb4>
9d00b98c:	8fa2001c 	lw	v0,28(sp)
9d00b990:	1440ffe8 	bnez	v0,9d00b934 <__scan_fp+0xf4>
9d00b994:	8fa20018 	lw	v0,24(sp)
9d00b998:	8fbf004c 	lw	ra,76(sp)
9d00b99c:	03c01025 	move	v0,s8
9d00b9a0:	8fb70044 	lw	s7,68(sp)
9d00b9a4:	8fbe0048 	lw	s8,72(sp)
9d00b9a8:	8fb60040 	lw	s6,64(sp)
9d00b9ac:	8fb5003c 	lw	s5,60(sp)
9d00b9b0:	8fb40038 	lw	s4,56(sp)
9d00b9b4:	8fb30034 	lw	s3,52(sp)
9d00b9b8:	8fb20030 	lw	s2,48(sp)
9d00b9bc:	8fb1002c 	lw	s1,44(sp)
9d00b9c0:	8fb00028 	lw	s0,40(sp)
9d00b9c4:	03e00008 	jr	ra
9d00b9c8:	27bd0050 	addiu	sp,sp,80
9d00b9cc:	8e820000 	lw	v0,0(s4)
9d00b9d0:	24120001 	li	s2,1
9d00b9d4:	24420001 	addiu	v0,v0,1
9d00b9d8:	ae820000 	sw	v0,0(s4)
9d00b9dc:	26100001 	addiu	s0,s0,1
9d00b9e0:	26f70001 	addiu	s7,s7,1
9d00b9e4:	1000ffb8 	b	9d00b8c8 <__scan_fp+0x88>
9d00b9e8:	26310001 	addiu	s1,s1,1
9d00b9ec:	1440000c 	bnez	v0,9d00ba20 <__scan_fp+0x1e0>
9d00b9f0:	2402002e 	li	v0,46
9d00b9f4:	17c2000a 	bne	s8,v0,9d00ba20 <__scan_fp+0x1e0>
9d00b9f8:	00000000 	nop
9d00b9fc:	56a0ffc7 	bnezl	s5,9d00b91c <__scan_fp+0xdc>
9d00ba00:	8e62004c 	lw	v0,76(s3)
9d00ba04:	a23e0000 	sb	s8,0(s1)
9d00ba08:	8e820000 	lw	v0,0(s4)
9d00ba0c:	24420001 	addiu	v0,v0,1
9d00ba10:	ae820000 	sw	v0,0(s4)
9d00ba14:	24020001 	li	v0,1
9d00ba18:	1000fff0 	b	9d00b9dc <__scan_fp+0x19c>
9d00ba1c:	afa20020 	sw	v0,32(sp)
9d00ba20:	16a0004c 	bnez	s5,9d00bb54 <__scan_fp+0x314>
9d00ba24:	00000000 	nop
9d00ba28:	12c0000e 	beqz	s6,9d00ba64 <__scan_fp+0x224>
9d00ba2c:	03c02025 	move	a0,s8
9d00ba30:	0f40414d 	jal	9d010534 <tolower>
9d00ba34:	00000000 	nop
9d00ba38:	38420070 	xori	v0,v0,0x70
9d00ba3c:	2c420001 	sltiu	v0,v0,1
9d00ba40:	10400042 	beqz	v0,9d00bb4c <__scan_fp+0x30c>
9d00ba44:	26420001 	addiu	v0,s2,1
9d00ba48:	a23e0000 	sb	s8,0(s1)
9d00ba4c:	8e820000 	lw	v0,0(s4)
9d00ba50:	00009025 	move	s2,zero
9d00ba54:	02e0a825 	move	s5,s7
9d00ba58:	24420001 	addiu	v0,v0,1
9d00ba5c:	1000ffdf 	b	9d00b9dc <__scan_fp+0x19c>
9d00ba60:	ae820000 	sw	v0,0(s4)
9d00ba64:	0f40414d 	jal	9d010534 <tolower>
9d00ba68:	00000000 	nop
9d00ba6c:	1000fff3 	b	9d00ba3c <__scan_fp+0x1fc>
9d00ba70:	38420065 	xori	v0,v0,0x65
9d00ba74:	0f40414d 	jal	9d010534 <tolower>
9d00ba78:	03c02025 	move	a0,s8
9d00ba7c:	24040078 	li	a0,120
9d00ba80:	14440034 	bne	v0,a0,9d00bb54 <__scan_fp+0x314>
9d00ba84:	24020030 	li	v0,48
9d00ba88:	8224ffff 	lb	a0,-1(s1)
9d00ba8c:	14820031 	bne	a0,v0,9d00bb54 <__scan_fp+0x314>
9d00ba90:	00000000 	nop
9d00ba94:	a23e0000 	sb	s8,0(s1)
9d00ba98:	8e820000 	lw	v0,0(s4)
9d00ba9c:	24160001 	li	s6,1
9d00baa0:	24420001 	addiu	v0,v0,1
9d00baa4:	1000ffcd 	b	9d00b9dc <__scan_fp+0x19c>
9d00baa8:	ae820000 	sw	v0,0(s4)
9d00baac:	2c42000a 	sltiu	v0,v0,10
9d00bab0:	1000002d 	b	9d00bb68 <__scan_fp+0x328>
9d00bab4:	38420001 	xori	v0,v0,0x1
9d00bab8:	0f403a56 	jal	9d00e958 <__shgetc>
9d00babc:	02602025 	move	a0,s3
9d00bac0:	00408825 	move	s1,v0
9d00bac4:	2402ffff 	li	v0,-1
9d00bac8:	5222ff9a 	beql	s1,v0,9d00b934 <__scan_fp+0xf4>
9d00bacc:	8fa20018 	lw	v0,24(sp)
9d00bad0:	10000044 	b	9d00bbe4 <__scan_fp+0x3a4>
9d00bad4:	02202025 	move	a0,s1
9d00bad8:	0f40414d 	jal	9d010534 <tolower>
9d00badc:	00000000 	nop
9d00bae0:	00171880 	sll	v1,s7,0x2
9d00bae4:	03a31821 	addu	v1,sp,v1
9d00bae8:	8c630010 	lw	v1,16(v1)
9d00baec:	00761821 	addu	v1,v1,s6
9d00baf0:	80630000 	lb	v1,0(v1)
9d00baf4:	14430045 	bne	v0,v1,9d00bc0c <__scan_fp+0x3cc>
9d00baf8:	0255102a 	slt	v0,s2,s5
9d00bafc:	8fa20018 	lw	v0,24(sp)
9d00bb00:	26d60001 	addiu	s6,s6,1
9d00bb04:	0055a821 	addu	s5,v0,s5
9d00bb08:	24020003 	li	v0,3
9d00bb0c:	16c2002b 	bne	s6,v0,9d00bbbc <__scan_fp+0x37c>
9d00bb10:	a2b10000 	sb	s1,0(s5)
9d00bb14:	26020003 	addiu	v0,s0,3
9d00bb18:	afa2001c 	sw	v0,28(sp)
9d00bb1c:	8e820000 	lw	v0,0(s4)
9d00bb20:	24420003 	addiu	v0,v0,3
9d00bb24:	1000ff82 	b	9d00b930 <__scan_fp+0xf0>
9d00bb28:	ae820000 	sw	v0,0(s4)
9d00bb2c:	1000fff3 	b	9d00bafc <__scan_fp+0x2bc>
9d00bb30:	0000b825 	move	s7,zero
9d00bb34:	1000fff1 	b	9d00bafc <__scan_fp+0x2bc>
9d00bb38:	24170001 	li	s7,1
9d00bb3c:	8e820000 	lw	v0,0(s4)
9d00bb40:	24420001 	addiu	v0,v0,1
9d00bb44:	1000ffa5 	b	9d00b9dc <__scan_fp+0x19c>
9d00bb48:	ae820000 	sw	v0,0(s4)
9d00bb4c:	1050ffc9 	beq	v0,s0,9d00ba74 <__scan_fp+0x234>
9d00bb50:	00000000 	nop
9d00bb54:	12c0ffd5 	beqz	s6,9d00baac <__scan_fp+0x26c>
9d00bb58:	27c2ffd0 	addiu	v0,s8,-48
9d00bb5c:	0f404110 	jal	9d010440 <isxdigit>
9d00bb60:	03c02025 	move	a0,s8
9d00bb64:	2c420001 	sltiu	v0,v0,1
9d00bb68:	5040fff4 	beqzl	v0,9d00bb3c <__scan_fp+0x2fc>
9d00bb6c:	a23e0000 	sb	s8,0(s1)
9d00bb70:	8e62004c 	lw	v0,76(s3)
9d00bb74:	10400004 	beqz	v0,9d00bb88 <__scan_fp+0x348>
9d00bb78:	00000000 	nop
9d00bb7c:	8e62003c 	lw	v0,60(s3)
9d00bb80:	2442ffff 	addiu	v0,v0,-1
9d00bb84:	ae62003c 	sw	v0,60(s3)
9d00bb88:	1612ff69 	bne	s0,s2,9d00b930 <__scan_fp+0xf0>
9d00bb8c:	3c029d00 	lui	v0,0x9d00
9d00bb90:	244274cc 	addiu	v0,v0,29900
9d00bb94:	afa20010 	sw	v0,16(sp)
9d00bb98:	8fa20024 	lw	v0,36(sp)
9d00bb9c:	26120002 	addiu	s2,s0,2
9d00bba0:	0242102a 	slt	v0,s2,v0
9d00bba4:	1040ff62 	beqz	v0,9d00b930 <__scan_fp+0xf0>
9d00bba8:	3c029d00 	lui	v0,0x9d00
9d00bbac:	244274d0 	addiu	v0,v0,29904
9d00bbb0:	afa20014 	sw	v0,20(sp)
9d00bbb4:	0000b025 	move	s6,zero
9d00bbb8:	2417ffff 	li	s7,-1
9d00bbbc:	8e62003c 	lw	v0,60(s3)
9d00bbc0:	8e63004c 	lw	v1,76(s3)
9d00bbc4:	0043182b 	sltu	v1,v0,v1
9d00bbc8:	1060ffbb 	beqz	v1,9d00bab8 <__scan_fp+0x278>
9d00bbcc:	02d0a821 	addu	s5,s6,s0
9d00bbd0:	24430001 	addiu	v1,v0,1
9d00bbd4:	ae63003c 	sw	v1,60(s3)
9d00bbd8:	90510000 	lbu	s1,0(v0)
9d00bbdc:	2402ffff 	li	v0,-1
9d00bbe0:	02202025 	move	a0,s1
9d00bbe4:	16e2ffbc 	bne	s7,v0,9d00bad8 <__scan_fp+0x298>
9d00bbe8:	00000000 	nop
9d00bbec:	0f40414d 	jal	9d010534 <tolower>
9d00bbf0:	00000000 	nop
9d00bbf4:	00408825 	move	s1,v0
9d00bbf8:	24020069 	li	v0,105
9d00bbfc:	1222ffcb 	beq	s1,v0,9d00bb2c <__scan_fp+0x2ec>
9d00bc00:	2402006e 	li	v0,110
9d00bc04:	1222ffcb 	beq	s1,v0,9d00bb34 <__scan_fp+0x2f4>
9d00bc08:	0255102a 	slt	v0,s2,s5
9d00bc0c:	1440ffc2 	bnez	v0,9d00bb18 <__scan_fp+0x2d8>
9d00bc10:	26020003 	addiu	v0,s0,3
9d00bc14:	26b5ffff 	addiu	s5,s5,-1
9d00bc18:	02b0102a 	slt	v0,s5,s0
9d00bc1c:	1440ff45 	bnez	v0,9d00b934 <__scan_fp+0xf4>
9d00bc20:	8fa20018 	lw	v0,24(sp)
9d00bc24:	8e62004c 	lw	v0,76(s3)
9d00bc28:	5040fffb 	beqzl	v0,9d00bc18 <__scan_fp+0x3d8>
9d00bc2c:	26b5ffff 	addiu	s5,s5,-1
9d00bc30:	8e62003c 	lw	v0,60(s3)
9d00bc34:	2442ffff 	addiu	v0,v0,-1
9d00bc38:	1000fff6 	b	9d00bc14 <__scan_fp+0x3d4>
9d00bc3c:	ae62003c 	sw	v0,60(s3)

Disassembly of section .text:

9d00bc40 <__udivdi3>:
9d00bc40:	00c04025 	move	t0,a2
9d00bc44:	00e01825 	move	v1,a3
9d00bc48:	00805025 	move	t2,a0
9d00bc4c:	14e00098 	bnez	a3,9d00beb0 <__udivdi3+0x270>
9d00bc50:	00a01025 	move	v0,a1
9d00bc54:	00a6302b 	sltu	a2,a1,a2
9d00bc58:	10c00035 	beqz	a2,9d00bd30 <__udivdi3+0xf0>
9d00bc5c:	00000000 	nop
9d00bc60:	71052820 	clz	a1,t0
9d00bc64:	10a00006 	beqz	a1,9d00bc80 <__udivdi3+0x40>
9d00bc68:	00052023 	negu	a0,a1
9d00bc6c:	008a2006 	srlv	a0,t2,a0
9d00bc70:	00a21004 	sllv	v0,v0,a1
9d00bc74:	00a84004 	sllv	t0,t0,a1
9d00bc78:	00821025 	or	v0,a0,v0
9d00bc7c:	00aa5004 	sllv	t2,t2,a1
9d00bc80:	00083402 	srl	a2,t0,0x10
9d00bc84:	0046001b 	divu	zero,v0,a2
9d00bc88:	00c001f4 	teq	a2,zero,0x7
9d00bc8c:	3105ffff 	andi	a1,t0,0xffff
9d00bc90:	000a2402 	srl	a0,t2,0x10
9d00bc94:	00003812 	mflo	a3
9d00bc98:	00001010 	mfhi	v0
9d00bc9c:	00021400 	sll	v0,v0,0x10
9d00bca0:	00442025 	or	a0,v0,a0
9d00bca4:	70a74802 	mul	t1,a1,a3
9d00bca8:	0089582b 	sltu	t3,a0,t1
9d00bcac:	1160000a 	beqz	t3,9d00bcd8 <__udivdi3+0x98>
9d00bcb0:	00e01025 	move	v0,a3
9d00bcb4:	00882021 	addu	a0,a0,t0
9d00bcb8:	0088582b 	sltu	t3,a0,t0
9d00bcbc:	15600006 	bnez	t3,9d00bcd8 <__udivdi3+0x98>
9d00bcc0:	24e2ffff 	addiu	v0,a3,-1
9d00bcc4:	0089582b 	sltu	t3,a0,t1
9d00bcc8:	51600004 	beqzl	t3,9d00bcdc <__udivdi3+0x9c>
9d00bccc:	00892023 	subu	a0,a0,t1
9d00bcd0:	24e2fffe 	addiu	v0,a3,-2
9d00bcd4:	00882021 	addu	a0,a0,t0
9d00bcd8:	00892023 	subu	a0,a0,t1
9d00bcdc:	0086001b 	divu	zero,a0,a2
9d00bce0:	00c001f4 	teq	a2,zero,0x7
9d00bce4:	00003010 	mfhi	a2
9d00bce8:	00063400 	sll	a2,a2,0x10
9d00bcec:	00002012 	mflo	a0
9d00bcf0:	70a43802 	mul	a3,a1,a0
9d00bcf4:	3145ffff 	andi	a1,t2,0xffff
9d00bcf8:	00c52825 	or	a1,a2,a1
9d00bcfc:	00a7482b 	sltu	t1,a1,a3
9d00bd00:	11200008 	beqz	t1,9d00bd24 <__udivdi3+0xe4>
9d00bd04:	00803025 	move	a2,a0
9d00bd08:	01052821 	addu	a1,t0,a1
9d00bd0c:	00a8402b 	sltu	t0,a1,t0
9d00bd10:	15000004 	bnez	t0,9d00bd24 <__udivdi3+0xe4>
9d00bd14:	2486ffff 	addiu	a2,a0,-1
9d00bd18:	00a7282b 	sltu	a1,a1,a3
9d00bd1c:	54a00001 	bnezl	a1,9d00bd24 <__udivdi3+0xe4>
9d00bd20:	2486fffe 	addiu	a2,a0,-2
9d00bd24:	00021400 	sll	v0,v0,0x10
9d00bd28:	03e00008 	jr	ra
9d00bd2c:	00461025 	or	v0,v0,a2
9d00bd30:	15000004 	bnez	t0,9d00bd44 <__udivdi3+0x104>
9d00bd34:	24020001 	li	v0,1
9d00bd38:	0048001b 	divu	zero,v0,t0
9d00bd3c:	010001f4 	teq	t0,zero,0x7
9d00bd40:	00004012 	mflo	t0
9d00bd44:	710b5820 	clz	t3,t0
9d00bd48:	15600023 	bnez	t3,9d00bdd8 <__udivdi3+0x198>
9d00bd4c:	24070020 	li	a3,32
9d00bd50:	00a82823 	subu	a1,a1,t0
9d00bd54:	24030001 	li	v1,1
9d00bd58:	00083402 	srl	a2,t0,0x10
9d00bd5c:	00a6001b 	divu	zero,a1,a2
9d00bd60:	00c001f4 	teq	a2,zero,0x7
9d00bd64:	3107ffff 	andi	a3,t0,0xffff
9d00bd68:	000a2402 	srl	a0,t2,0x10
9d00bd6c:	00002812 	mflo	a1
9d00bd70:	00001010 	mfhi	v0
9d00bd74:	00021400 	sll	v0,v0,0x10
9d00bd78:	00442025 	or	a0,v0,a0
9d00bd7c:	70e54802 	mul	t1,a3,a1
9d00bd80:	0089582b 	sltu	t3,a0,t1
9d00bd84:	1160000a 	beqz	t3,9d00bdb0 <__udivdi3+0x170>
9d00bd88:	00a01025 	move	v0,a1
9d00bd8c:	00882021 	addu	a0,a0,t0
9d00bd90:	0088582b 	sltu	t3,a0,t0
9d00bd94:	15600006 	bnez	t3,9d00bdb0 <__udivdi3+0x170>
9d00bd98:	24a2ffff 	addiu	v0,a1,-1
9d00bd9c:	0089582b 	sltu	t3,a0,t1
9d00bda0:	51600004 	beqzl	t3,9d00bdb4 <__udivdi3+0x174>
9d00bda4:	00892023 	subu	a0,a0,t1
9d00bda8:	24a2fffe 	addiu	v0,a1,-2
9d00bdac:	00882021 	addu	a0,a0,t0
9d00bdb0:	00892023 	subu	a0,a0,t1
9d00bdb4:	0086001b 	divu	zero,a0,a2
9d00bdb8:	00c001f4 	teq	a2,zero,0x7
9d00bdbc:	314affff 	andi	t2,t2,0xffff
9d00bdc0:	00002810 	mfhi	a1
9d00bdc4:	00052c00 	sll	a1,a1,0x10
9d00bdc8:	00aa2825 	or	a1,a1,t2
9d00bdcc:	00002012 	mflo	a0
9d00bdd0:	1000ffca 	b	9d00bcfc <__udivdi3+0xbc>
9d00bdd4:	70e43802 	mul	a3,a3,a0
9d00bdd8:	00eb3823 	subu	a3,a3,t3
9d00bddc:	01684004 	sllv	t0,t0,t3
9d00bde0:	00e44806 	srlv	t1,a0,a3
9d00bde4:	00083402 	srl	a2,t0,0x10
9d00bde8:	00e53806 	srlv	a3,a1,a3
9d00bdec:	00e6001b 	divu	zero,a3,a2
9d00bdf0:	00c001f4 	teq	a2,zero,0x7
9d00bdf4:	01651004 	sllv	v0,a1,t3
9d00bdf8:	01224825 	or	t1,t1,v0
9d00bdfc:	3102ffff 	andi	v0,t0,0xffff
9d00be00:	00091c02 	srl	v1,t1,0x10
9d00be04:	00002812 	mflo	a1
9d00be08:	00003810 	mfhi	a3
9d00be0c:	00073c00 	sll	a3,a3,0x10
9d00be10:	00e33825 	or	a3,a3,v1
9d00be14:	70455002 	mul	t2,v0,a1
9d00be18:	00ea602b 	sltu	t4,a3,t2
9d00be1c:	1180000a 	beqz	t4,9d00be48 <__udivdi3+0x208>
9d00be20:	00a01825 	move	v1,a1
9d00be24:	00e83821 	addu	a3,a3,t0
9d00be28:	00e8602b 	sltu	t4,a3,t0
9d00be2c:	15800006 	bnez	t4,9d00be48 <__udivdi3+0x208>
9d00be30:	24a3ffff 	addiu	v1,a1,-1
9d00be34:	00ea602b 	sltu	t4,a3,t2
9d00be38:	51800004 	beqzl	t4,9d00be4c <__udivdi3+0x20c>
9d00be3c:	00ea3823 	subu	a3,a3,t2
9d00be40:	24a3fffe 	addiu	v1,a1,-2
9d00be44:	00e83821 	addu	a3,a3,t0
9d00be48:	00ea3823 	subu	a3,a3,t2
9d00be4c:	00e6001b 	divu	zero,a3,a2
9d00be50:	00c001f4 	teq	a2,zero,0x7
9d00be54:	3125ffff 	andi	a1,t1,0xffff
9d00be58:	00003012 	mflo	a2
9d00be5c:	00003810 	mfhi	a3
9d00be60:	00073c00 	sll	a3,a3,0x10
9d00be64:	00e52825 	or	a1,a3,a1
9d00be68:	70461002 	mul	v0,v0,a2
9d00be6c:	00a2482b 	sltu	t1,a1,v0
9d00be70:	1120000a 	beqz	t1,9d00be9c <__udivdi3+0x25c>
9d00be74:	00c03825 	move	a3,a2
9d00be78:	00a82821 	addu	a1,a1,t0
9d00be7c:	00a8482b 	sltu	t1,a1,t0
9d00be80:	15200006 	bnez	t1,9d00be9c <__udivdi3+0x25c>
9d00be84:	24c7ffff 	addiu	a3,a2,-1
9d00be88:	00a2482b 	sltu	t1,a1,v0
9d00be8c:	51200004 	beqzl	t1,9d00bea0 <__udivdi3+0x260>
9d00be90:	00031c00 	sll	v1,v1,0x10
9d00be94:	24c7fffe 	addiu	a3,a2,-2
9d00be98:	00a82821 	addu	a1,a1,t0
9d00be9c:	00031c00 	sll	v1,v1,0x10
9d00bea0:	01645004 	sllv	t2,a0,t3
9d00bea4:	00a22823 	subu	a1,a1,v0
9d00bea8:	1000ffab 	b	9d00bd58 <__udivdi3+0x118>
9d00beac:	00671825 	or	v1,v1,a3
9d00beb0:	00a7402b 	sltu	t0,a1,a3
9d00beb4:	00001825 	move	v1,zero
9d00beb8:	1500004e 	bnez	t0,9d00bff4 <__udivdi3+0x3b4>
9d00bebc:	00001025 	move	v0,zero
9d00bec0:	70ea5020 	clz	t2,a3
9d00bec4:	15400007 	bnez	t2,9d00bee4 <__udivdi3+0x2a4>
9d00bec8:	24090020 	li	t1,32
9d00becc:	00e5282b 	sltu	a1,a3,a1
9d00bed0:	14a00048 	bnez	a1,9d00bff4 <__udivdi3+0x3b4>
9d00bed4:	24020001 	li	v0,1
9d00bed8:	0086102b 	sltu	v0,a0,a2
9d00bedc:	03e00008 	jr	ra
9d00bee0:	38420001 	xori	v0,v0,0x1
9d00bee4:	012a4823 	subu	t1,t1,t2
9d00bee8:	01261006 	srlv	v0,a2,t1
9d00beec:	01473804 	sllv	a3,a3,t2
9d00bef0:	00473825 	or	a3,v0,a3
9d00bef4:	01451804 	sllv	v1,a1,t2
9d00bef8:	00074402 	srl	t0,a3,0x10
9d00befc:	01252806 	srlv	a1,a1,t1
9d00bf00:	00a8001b 	divu	zero,a1,t0
9d00bf04:	010001f4 	teq	t0,zero,0x7
9d00bf08:	30ebffff 	andi	t3,a3,0xffff
9d00bf0c:	01241006 	srlv	v0,a0,t1
9d00bf10:	00431025 	or	v0,v0,v1
9d00bf14:	00021c02 	srl	v1,v0,0x10
9d00bf18:	00002812 	mflo	a1
9d00bf1c:	00004810 	mfhi	t1
9d00bf20:	00094c00 	sll	t1,t1,0x10
9d00bf24:	01234825 	or	t1,t1,v1
9d00bf28:	71656002 	mul	t4,t3,a1
9d00bf2c:	012c682b 	sltu	t5,t1,t4
9d00bf30:	11a0000a 	beqz	t5,9d00bf5c <__udivdi3+0x31c>
9d00bf34:	00a01825 	move	v1,a1
9d00bf38:	01274821 	addu	t1,t1,a3
9d00bf3c:	0127682b 	sltu	t5,t1,a3
9d00bf40:	15a00006 	bnez	t5,9d00bf5c <__udivdi3+0x31c>
9d00bf44:	24a3ffff 	addiu	v1,a1,-1
9d00bf48:	012c682b 	sltu	t5,t1,t4
9d00bf4c:	51a00004 	beqzl	t5,9d00bf60 <__udivdi3+0x320>
9d00bf50:	012c4823 	subu	t1,t1,t4
9d00bf54:	24a3fffe 	addiu	v1,a1,-2
9d00bf58:	01274821 	addu	t1,t1,a3
9d00bf5c:	012c4823 	subu	t1,t1,t4
9d00bf60:	0128001b 	divu	zero,t1,t0
9d00bf64:	010001f4 	teq	t0,zero,0x7
9d00bf68:	3045ffff 	andi	a1,v0,0xffff
9d00bf6c:	00004012 	mflo	t0
9d00bf70:	00004810 	mfhi	t1
9d00bf74:	00094c00 	sll	t1,t1,0x10
9d00bf78:	01252825 	or	a1,t1,a1
9d00bf7c:	71685802 	mul	t3,t3,t0
9d00bf80:	00ab102b 	sltu	v0,a1,t3
9d00bf84:	1040000a 	beqz	v0,9d00bfb0 <__udivdi3+0x370>
9d00bf88:	01004825 	move	t1,t0
9d00bf8c:	00a72821 	addu	a1,a1,a3
9d00bf90:	00a7102b 	sltu	v0,a1,a3
9d00bf94:	14400006 	bnez	v0,9d00bfb0 <__udivdi3+0x370>
9d00bf98:	2509ffff 	addiu	t1,t0,-1
9d00bf9c:	00ab102b 	sltu	v0,a1,t3
9d00bfa0:	10400004 	beqz	v0,9d00bfb4 <__udivdi3+0x374>
9d00bfa4:	00031400 	sll	v0,v1,0x10
9d00bfa8:	2509fffe 	addiu	t1,t0,-2
9d00bfac:	00a72821 	addu	a1,a1,a3
9d00bfb0:	00031400 	sll	v0,v1,0x10
9d00bfb4:	01463004 	sllv	a2,a2,t2
9d00bfb8:	00491025 	or	v0,v0,t1
9d00bfbc:	00c20019 	multu	a2,v0
9d00bfc0:	00ab2823 	subu	a1,a1,t3
9d00bfc4:	00003810 	mfhi	a3
9d00bfc8:	00a7182b 	sltu	v1,a1,a3
9d00bfcc:	14600007 	bnez	v1,9d00bfec <__udivdi3+0x3ac>
9d00bfd0:	00003012 	mflo	a2
9d00bfd4:	14a70007 	bne	a1,a3,9d00bff4 <__udivdi3+0x3b4>
9d00bfd8:	00001825 	move	v1,zero
9d00bfdc:	01442004 	sllv	a0,a0,t2
9d00bfe0:	0086202b 	sltu	a0,a0,a2
9d00bfe4:	10800003 	beqz	a0,9d00bff4 <__udivdi3+0x3b4>
9d00bfe8:	00000000 	nop
9d00bfec:	2442ffff 	addiu	v0,v0,-1
9d00bff0:	00001825 	move	v1,zero
9d00bff4:	03e00008 	jr	ra
9d00bff8:	00000000 	nop

9d00bffc <__umoddi3>:
9d00bffc:	00c04825 	move	t1,a2
9d00c000:	00801025 	move	v0,a0
9d00c004:	14e0008b 	bnez	a3,9d00c234 <__umoddi3+0x238>
9d00c008:	00a01825 	move	v1,a1
9d00c00c:	00a6302b 	sltu	a2,a1,a2
9d00c010:	10c00033 	beqz	a2,9d00c0e0 <__umoddi3+0xe4>
9d00c014:	712a5020 	clz	t2,t1
9d00c018:	11400008 	beqz	t2,9d00c03c <__umoddi3+0x40>
9d00c01c:	00095c02 	srl	t3,t1,0x10
9d00c020:	01451804 	sllv	v1,a1,t2
9d00c024:	000a2823 	negu	a1,t2
9d00c028:	00a42806 	srlv	a1,a0,a1
9d00c02c:	01494804 	sllv	t1,t1,t2
9d00c030:	00a31825 	or	v1,a1,v1
9d00c034:	01441004 	sllv	v0,a0,t2
9d00c038:	00095c02 	srl	t3,t1,0x10
9d00c03c:	006b001b 	divu	zero,v1,t3
9d00c040:	016001f4 	teq	t3,zero,0x7
9d00c044:	3124ffff 	andi	a0,t1,0xffff
9d00c048:	00001812 	mflo	v1
9d00c04c:	00002810 	mfhi	a1
9d00c050:	70643002 	mul	a2,v1,a0
9d00c054:	00051c00 	sll	v1,a1,0x10
9d00c058:	00022c02 	srl	a1,v0,0x10
9d00c05c:	00651825 	or	v1,v1,a1
9d00c060:	0066282b 	sltu	a1,v1,a2
9d00c064:	50a00008 	beqzl	a1,9d00c088 <__umoddi3+0x8c>
9d00c068:	00661823 	subu	v1,v1,a2
9d00c06c:	00691821 	addu	v1,v1,t1
9d00c070:	0069282b 	sltu	a1,v1,t1
9d00c074:	14a00003 	bnez	a1,9d00c084 <__umoddi3+0x88>
9d00c078:	0066282b 	sltu	a1,v1,a2
9d00c07c:	54a00001 	bnezl	a1,9d00c084 <__umoddi3+0x88>
9d00c080:	00691821 	addu	v1,v1,t1
9d00c084:	00661823 	subu	v1,v1,a2
9d00c088:	006b001b 	divu	zero,v1,t3
9d00c08c:	016001f4 	teq	t3,zero,0x7
9d00c090:	3042ffff 	andi	v0,v0,0xffff
9d00c094:	00003010 	mfhi	a2
9d00c098:	00001812 	mflo	v1
9d00c09c:	70645802 	mul	t3,v1,a0
9d00c0a0:	00061c00 	sll	v1,a2,0x10
9d00c0a4:	00621025 	or	v0,v1,v0
9d00c0a8:	004b182b 	sltu	v1,v0,t3
9d00c0ac:	50600009 	beqzl	v1,9d00c0d4 <__umoddi3+0xd8>
9d00c0b0:	004b1023 	subu	v0,v0,t3
9d00c0b4:	00491021 	addu	v0,v0,t1
9d00c0b8:	0049182b 	sltu	v1,v0,t1
9d00c0bc:	54600005 	bnezl	v1,9d00c0d4 <__umoddi3+0xd8>
9d00c0c0:	004b1023 	subu	v0,v0,t3
9d00c0c4:	004b182b 	sltu	v1,v0,t3
9d00c0c8:	54600001 	bnezl	v1,9d00c0d0 <__umoddi3+0xd4>
9d00c0cc:	00491021 	addu	v0,v0,t1
9d00c0d0:	004b1023 	subu	v0,v0,t3
9d00c0d4:	01421006 	srlv	v0,v0,t2
9d00c0d8:	03e00008 	jr	ra
9d00c0dc:	00001825 	move	v1,zero
9d00c0e0:	15200004 	bnez	t1,9d00c0f4 <__umoddi3+0xf8>
9d00c0e4:	24030001 	li	v1,1
9d00c0e8:	0069001b 	divu	zero,v1,t1
9d00c0ec:	012001f4 	teq	t1,zero,0x7
9d00c0f0:	00004812 	mflo	t1
9d00c0f4:	712a5020 	clz	t2,t1
9d00c0f8:	1540001f 	bnez	t2,9d00c178 <__umoddi3+0x17c>
9d00c0fc:	24070020 	li	a3,32
9d00c100:	00a92823 	subu	a1,a1,t1
9d00c104:	00095c02 	srl	t3,t1,0x10
9d00c108:	00ab001b 	divu	zero,a1,t3
9d00c10c:	016001f4 	teq	t3,zero,0x7
9d00c110:	3124ffff 	andi	a0,t1,0xffff
9d00c114:	00002812 	mflo	a1
9d00c118:	00001810 	mfhi	v1
9d00c11c:	70a43002 	mul	a2,a1,a0
9d00c120:	00032c00 	sll	a1,v1,0x10
9d00c124:	00021c02 	srl	v1,v0,0x10
9d00c128:	00a32825 	or	a1,a1,v1
9d00c12c:	00a6182b 	sltu	v1,a1,a2
9d00c130:	50600008 	beqzl	v1,9d00c154 <__umoddi3+0x158>
9d00c134:	00a63023 	subu	a2,a1,a2
9d00c138:	00a92821 	addu	a1,a1,t1
9d00c13c:	00a9182b 	sltu	v1,a1,t1
9d00c140:	14600003 	bnez	v1,9d00c150 <__umoddi3+0x154>
9d00c144:	00a6182b 	sltu	v1,a1,a2
9d00c148:	54600001 	bnezl	v1,9d00c150 <__umoddi3+0x154>
9d00c14c:	00a92821 	addu	a1,a1,t1
9d00c150:	00a63023 	subu	a2,a1,a2
9d00c154:	00cb001b 	divu	zero,a2,t3
9d00c158:	016001f4 	teq	t3,zero,0x7
9d00c15c:	3042ffff 	andi	v0,v0,0xffff
9d00c160:	00002810 	mfhi	a1
9d00c164:	00003012 	mflo	a2
9d00c168:	70c45802 	mul	t3,a2,a0
9d00c16c:	00053400 	sll	a2,a1,0x10
9d00c170:	1000ffcd 	b	9d00c0a8 <__umoddi3+0xac>
9d00c174:	00c21025 	or	v0,a2,v0
9d00c178:	00ea3823 	subu	a3,a3,t2
9d00c17c:	01494804 	sllv	t1,t1,t2
9d00c180:	00e41806 	srlv	v1,a0,a3
9d00c184:	00093402 	srl	a2,t1,0x10
9d00c188:	00e53806 	srlv	a3,a1,a3
9d00c18c:	00e6001b 	divu	zero,a3,a2
9d00c190:	00c001f4 	teq	a2,zero,0x7
9d00c194:	01451004 	sllv	v0,a1,t2
9d00c198:	3128ffff 	andi	t0,t1,0xffff
9d00c19c:	00621825 	or	v1,v1,v0
9d00c1a0:	00032c02 	srl	a1,v1,0x10
9d00c1a4:	00003812 	mflo	a3
9d00c1a8:	00006010 	mfhi	t4
9d00c1ac:	70e81002 	mul	v0,a3,t0
9d00c1b0:	000c3c00 	sll	a3,t4,0x10
9d00c1b4:	00e53825 	or	a3,a3,a1
9d00c1b8:	00e2282b 	sltu	a1,a3,v0
9d00c1bc:	50a00008 	beqzl	a1,9d00c1e0 <__umoddi3+0x1e4>
9d00c1c0:	00e23823 	subu	a3,a3,v0
9d00c1c4:	00e93821 	addu	a3,a3,t1
9d00c1c8:	00e9282b 	sltu	a1,a3,t1
9d00c1cc:	14a00003 	bnez	a1,9d00c1dc <__umoddi3+0x1e0>
9d00c1d0:	00e2282b 	sltu	a1,a3,v0
9d00c1d4:	54a00001 	bnezl	a1,9d00c1dc <__umoddi3+0x1e0>
9d00c1d8:	00e93821 	addu	a3,a3,t1
9d00c1dc:	00e23823 	subu	a3,a3,v0
9d00c1e0:	00e6001b 	divu	zero,a3,a2
9d00c1e4:	00c001f4 	teq	a2,zero,0x7
9d00c1e8:	3065ffff 	andi	a1,v1,0xffff
9d00c1ec:	00003012 	mflo	a2
9d00c1f0:	00003810 	mfhi	a3
9d00c1f4:	00073c00 	sll	a3,a3,0x10
9d00c1f8:	00e52825 	or	a1,a3,a1
9d00c1fc:	70c83002 	mul	a2,a2,t0
9d00c200:	00a6102b 	sltu	v0,a1,a2
9d00c204:	10400009 	beqz	v0,9d00c22c <__umoddi3+0x230>
9d00c208:	01441004 	sllv	v0,a0,t2
9d00c20c:	00a92821 	addu	a1,a1,t1
9d00c210:	00a9102b 	sltu	v0,a1,t1
9d00c214:	14400005 	bnez	v0,9d00c22c <__umoddi3+0x230>
9d00c218:	01441004 	sllv	v0,a0,t2
9d00c21c:	00a6102b 	sltu	v0,a1,a2
9d00c220:	54400001 	bnezl	v0,9d00c228 <__umoddi3+0x22c>
9d00c224:	00a92821 	addu	a1,a1,t1
9d00c228:	01441004 	sllv	v0,a0,t2
9d00c22c:	1000ffb5 	b	9d00c104 <__umoddi3+0x108>
9d00c230:	00a62823 	subu	a1,a1,a2
9d00c234:	00a7402b 	sltu	t0,a1,a3
9d00c238:	1500005c 	bnez	t0,9d00c3ac <__umoddi3+0x3b0>
9d00c23c:	70ee7020 	clz	t6,a3
9d00c240:	15c0000a 	bnez	t6,9d00c26c <__umoddi3+0x270>
9d00c244:	00e5402b 	sltu	t0,a3,a1
9d00c248:	15000003 	bnez	t0,9d00c258 <__umoddi3+0x25c>
9d00c24c:	0086402b 	sltu	t0,a0,a2
9d00c250:	15000056 	bnez	t0,9d00c3ac <__umoddi3+0x3b0>
9d00c254:	00000000 	nop
9d00c258:	00861023 	subu	v0,a0,a2
9d00c25c:	00a72823 	subu	a1,a1,a3
9d00c260:	0082182b 	sltu	v1,a0,v0
9d00c264:	03e00008 	jr	ra
9d00c268:	00a31823 	subu	v1,a1,v1
9d00c26c:	240b0020 	li	t3,32
9d00c270:	016e5823 	subu	t3,t3,t6
9d00c274:	01666006 	srlv	t4,a2,t3
9d00c278:	01c73804 	sllv	a3,a3,t6
9d00c27c:	01873825 	or	a3,t4,a3
9d00c280:	01c54004 	sllv	t0,a1,t6
9d00c284:	00074c02 	srl	t1,a3,0x10
9d00c288:	01652806 	srlv	a1,a1,t3
9d00c28c:	00a9001b 	divu	zero,a1,t1
9d00c290:	012001f4 	teq	t1,zero,0x7
9d00c294:	01641006 	srlv	v0,a0,t3
9d00c298:	00481025 	or	v0,v0,t0
9d00c29c:	30e8ffff 	andi	t0,a3,0xffff
9d00c2a0:	00026402 	srl	t4,v0,0x10
9d00c2a4:	00002812 	mflo	a1
9d00c2a8:	00005010 	mfhi	t2
9d00c2ac:	000a5400 	sll	t2,t2,0x10
9d00c2b0:	014c5025 	or	t2,t2,t4
9d00c2b4:	71051802 	mul	v1,t0,a1
9d00c2b8:	0143602b 	sltu	t4,t2,v1
9d00c2bc:	1180000a 	beqz	t4,9d00c2e8 <__umoddi3+0x2ec>
9d00c2c0:	00a06825 	move	t5,a1
9d00c2c4:	01475021 	addu	t2,t2,a3
9d00c2c8:	0147602b 	sltu	t4,t2,a3
9d00c2cc:	15800006 	bnez	t4,9d00c2e8 <__umoddi3+0x2ec>
9d00c2d0:	24adffff 	addiu	t5,a1,-1
9d00c2d4:	0143602b 	sltu	t4,t2,v1
9d00c2d8:	51800004 	beqzl	t4,9d00c2ec <__umoddi3+0x2f0>
9d00c2dc:	01435023 	subu	t2,t2,v1
9d00c2e0:	24adfffe 	addiu	t5,a1,-2
9d00c2e4:	01475021 	addu	t2,t2,a3
9d00c2e8:	01435023 	subu	t2,t2,v1
9d00c2ec:	0149001b 	divu	zero,t2,t1
9d00c2f0:	012001f4 	teq	t1,zero,0x7
9d00c2f4:	00004812 	mflo	t1
9d00c2f8:	00005010 	mfhi	t2
9d00c2fc:	000a5400 	sll	t2,t2,0x10
9d00c300:	71092802 	mul	a1,t0,t1
9d00c304:	3048ffff 	andi	t0,v0,0xffff
9d00c308:	01484025 	or	t0,t2,t0
9d00c30c:	0105102b 	sltu	v0,t0,a1
9d00c310:	1040000a 	beqz	v0,9d00c33c <__umoddi3+0x340>
9d00c314:	01205025 	move	t2,t1
9d00c318:	01074021 	addu	t0,t0,a3
9d00c31c:	0107102b 	sltu	v0,t0,a3
9d00c320:	14400006 	bnez	v0,9d00c33c <__umoddi3+0x340>
9d00c324:	252affff 	addiu	t2,t1,-1
9d00c328:	0105102b 	sltu	v0,t0,a1
9d00c32c:	10400004 	beqz	v0,9d00c340 <__umoddi3+0x344>
9d00c330:	000d6400 	sll	t4,t5,0x10
9d00c334:	252afffe 	addiu	t2,t1,-2
9d00c338:	01074021 	addu	t0,t0,a3
9d00c33c:	000d6400 	sll	t4,t5,0x10
9d00c340:	01c61004 	sllv	v0,a2,t6
9d00c344:	018a6025 	or	t4,t4,t2
9d00c348:	01820019 	multu	t4,v0
9d00c34c:	01054023 	subu	t0,t0,a1
9d00c350:	01c41804 	sllv	v1,a0,t6
9d00c354:	00006810 	mfhi	t5
9d00c358:	010d202b 	sltu	a0,t0,t5
9d00c35c:	01a02825 	move	a1,t5
9d00c360:	00006012 	mflo	t4
9d00c364:	14800005 	bnez	a0,9d00c37c <__umoddi3+0x380>
9d00c368:	00003012 	mflo	a2
9d00c36c:	150d0007 	bne	t0,t5,9d00c38c <__umoddi3+0x390>
9d00c370:	006c202b 	sltu	a0,v1,t4
9d00c374:	10800006 	beqz	a0,9d00c390 <__umoddi3+0x394>
9d00c378:	00663023 	subu	a2,v1,a2
9d00c37c:	01823023 	subu	a2,t4,v0
9d00c380:	01a73823 	subu	a3,t5,a3
9d00c384:	0186602b 	sltu	t4,t4,a2
9d00c388:	00ec2823 	subu	a1,a3,t4
9d00c38c:	00663023 	subu	a2,v1,a2
9d00c390:	0066182b 	sltu	v1,v1,a2
9d00c394:	01054023 	subu	t0,t0,a1
9d00c398:	01031823 	subu	v1,t0,v1
9d00c39c:	01631004 	sllv	v0,v1,t3
9d00c3a0:	01c63006 	srlv	a2,a2,t6
9d00c3a4:	00461025 	or	v0,v0,a2
9d00c3a8:	01c31806 	srlv	v1,v1,t6
9d00c3ac:	03e00008 	jr	ra
9d00c3b0:	00000000 	nop

Disassembly of section .text.dp32mul:

9d00c3b4 <__muldf3>:
9d00c3b4:	00055040 000a5542 00054ac0 00047d42     @P..BU...J..B}..
9d00c3c4:	012f4825 000442c0 3c0e8000 012e4825     %H/..B.....<%H..
9d00c3d4:	00076840 000d6d42 000762c0 00067d42     @h..Bm...b..B}..
9d00c3e4:	018f6025 00065ac0 018e6025 00a72826     %`...Z..%`..&(..
9d00c3f4:	00ae2824 254fffff 2de107fe 10200047     $(....O%...-G. .
9d00c404:	00000000                                ....

9d00c408 <Clab1>:
9d00c408:	25afffff 	addiu	t7,t5,-1
9d00c40c:	2de107fe 	sltiu	at,t7,2046
9d00c410:	1020006f 	beqz	at,9d00c5d0 <CspecB>
9d00c414:	00000000 	nop

9d00c418 <Clab2>:
9d00c418:	25affc02 	addiu	t7,t5,-1022
9d00c41c:	014f5021 	addu	t2,t2,t7
9d00c420:	012c0019 	multu	t1,t4
9d00c424:	00003812 	mflo	a3
9d00c428:	00007010 	mfhi	t6
9d00c42c:	010b0019 	multu	t0,t3
9d00c430:	00002012 	mflo	a0
9d00c434:	00003010 	mfhi	a2
9d00c438:	012b0019 	multu	t1,t3
9d00c43c:	00005812 	mflo	t3
9d00c440:	00006810 	mfhi	t5
9d00c444:	00cb3021 	addu	a2,a2,t3
9d00c448:	00cb782b 	sltu	t7,a2,t3
9d00c44c:	00ed3821 	addu	a3,a3,t5
9d00c450:	00ef3821 	addu	a3,a3,t7
9d00c454:	10ed0002 	beq	a3,t5,9d00c460 <L20>
9d00c458:	00000000 	nop
9d00c45c:	00ed782b 	sltu	t7,a3,t5

9d00c460 <L20>:
9d00c460:	01cf7021 	addu	t6,t6,t7
9d00c464:	010c0019 	multu	t0,t4
9d00c468:	00004012 	mflo	t0
9d00c46c:	00004810 	mfhi	t1
9d00c470:	00c83021 	addu	a2,a2,t0
9d00c474:	00c8782b 	sltu	t7,a2,t0
9d00c478:	00e93821 	addu	a3,a3,t1
9d00c47c:	00ef3821 	addu	a3,a3,t7
9d00c480:	10e90002 	beq	a3,t1,9d00c48c <L21>
9d00c484:	00000000 	nop
9d00c488:	00e9782b 	sltu	t7,a3,t1

9d00c48c <L21>:
9d00c48c:	01cf7021 	addu	t6,t6,t7
9d00c490:	00867825 	or	t7,a0,a2
9d00c494:	11e00002 	beqz	t7,9d00c4a0 <i13>
9d00c498:	00000000 	nop
9d00c49c:	34e70001 	ori	a3,a3,0x1

9d00c4a0 <i13>:
9d00c4a0:	000e4825 	or	t1,zero,t6
9d00c4a4:	05200006 	bltz	t1,9d00c4c0 <i14>
9d00c4a8:	00074025 	or	t0,zero,a3
9d00c4ac:	0100782a 	slt	t7,t0,zero
9d00c4b0:	01084021 	addu	t0,t0,t0
9d00c4b4:	01294821 	addu	t1,t1,t1
9d00c4b8:	012f4821 	addu	t1,t1,t7
9d00c4bc:	254affff 	addiu	t2,t2,-1

9d00c4c0 <i14>:
9d00c4c0:	254fffff 	addiu	t7,t2,-1
9d00c4c4:	2de107fe 	sltiu	at,t7,2046
9d00c4c8:	10200068 	beqz	at,9d00c66c <Coveund>
9d00c4cc:	00000000 	nop
9d00c4d0:	25080400 	addiu	t0,t0,1024
9d00c4d4:	2d0f0400 	sltiu	t7,t0,1024
9d00c4d8:	012f4821 	addu	t1,t1,t7
9d00c4dc:	012f782b 	sltu	t7,t1,t7
9d00c4e0:	014f5021 	addu	t2,t2,t7

9d00c4e4 <Clab8>:
9d00c4e4:	00087ac2 	srl	t7,t0,0xb
9d00c4e8:	31ef0001 	andi	t7,t7,0x1
9d00c4ec:	010f4023 	subu	t0,t0,t7
9d00c4f0:	000822c2 	srl	a0,t0,0xb
9d00c4f4:	00097d40 	sll	t7,t1,0x15
9d00c4f8:	008f2025 	or	a0,a0,t7
9d00c4fc:	00097840 	sll	t7,t1,0x1
9d00c500:	000f7b02 	srl	t7,t7,0xc
9d00c504:	00af2825 	or	a1,a1,t7
9d00c508:	000a7d00 	sll	t7,t2,0x14
9d00c50c:	00af2825 	or	a1,a1,t7

9d00c510 <Cret>:
9d00c510:	00041025 	or	v0,zero,a0
9d00c514:	00051825 	or	v1,zero,a1

9d00c518 <C999>:
9d00c518:	03e00008 	jr	ra
9d00c51c:	00000000 	nop

9d00c520 <CspecA>:
9d00c520:	0100782a 	slt	t7,t0,zero
9d00c524:	01084021 	addu	t0,t0,t0
9d00c528:	01294821 	addu	t1,t1,t1
9d00c52c:	1540001c 	bnez	t2,9d00c5a0 <i15>
9d00c530:	012f4821 	addu	t1,t1,t7
9d00c534:	01287825 	or	t7,t1,t0
9d00c538:	11e00014 	beqz	t7,9d00c58c <i16>
9d00c53c:	00000000 	nop
9d00c540:	15200008 	bnez	t1,9d00c564 <L22>
9d00c544:	00000000 	nop
9d00c548:	15000003 	bnez	t0,9d00c558 <L23>
9d00c54c:	00000000 	nop
9d00c550:	1000ffad 	b	9d00c408 <Clab1>
9d00c554:	240a0000 	li	t2,0

9d00c558 <L23>:
9d00c558:	01004825 	move	t1,t0
9d00c55c:	24080000 	li	t0,0
9d00c560:	254affe0 	addiu	t2,t2,-32

9d00c564 <L22>:
9d00c564:	712e7020 	clz	t6,t1
9d00c568:	11c0ffa7 	beqz	t6,9d00c408 <Clab1>
9d00c56c:	00000000 	nop
9d00c570:	014e5023 	subu	t2,t2,t6
9d00c574:	000e3822 	neg	a3,t6
9d00c578:	00e83806 	srlv	a3,t0,a3
9d00c57c:	01c84004 	sllv	t0,t0,t6
9d00c580:	01c94804 	sllv	t1,t1,t6
9d00c584:	1000ffa0 	b	9d00c408 <Clab1>
9d00c588:	01274825 	or	t1,t1,a3

9d00c58c <i16>:
9d00c58c:	240107ff 	li	at,2047
9d00c590:	11a10033 	beq	t5,at,9d00c660 <Cnan>
9d00c594:	00000000 	nop
9d00c598:	1000ffdd 	b	9d00c510 <Cret>
9d00c59c:	00000000 	nop

9d00c5a0 <i15>:
9d00c5a0:	01287825 	or	t7,t1,t0
9d00c5a4:	15e0002e 	bnez	t7,9d00c660 <Cnan>
9d00c5a8:	00000000 	nop
9d00c5ac:	15a00005 	bnez	t5,9d00c5c4 <i17>
9d00c5b0:	00000000 	nop
9d00c5b4:	000c7840 	sll	t7,t4,0x1
9d00c5b8:	01eb7825 	or	t7,t7,t3
9d00c5bc:	11e00028 	beqz	t7,9d00c660 <Cnan>
9d00c5c0:	00000000 	nop

9d00c5c4 <i17>:
9d00c5c4:	240107ff 	li	at,2047
9d00c5c8:	15a10021 	bne	t5,at,9d00c650 <Cinf>
9d00c5cc:	00000000 	nop

9d00c5d0 <CspecB>:
9d00c5d0:	0160782a 	slt	t7,t3,zero
9d00c5d4:	016b5821 	addu	t3,t3,t3
9d00c5d8:	018c6021 	addu	t4,t4,t4
9d00c5dc:	15a00019 	bnez	t5,9d00c644 <i18>
9d00c5e0:	018f6021 	addu	t4,t4,t7
9d00c5e4:	018b7825 	or	t7,t4,t3
9d00c5e8:	11e00014 	beqz	t7,9d00c63c <i19>
9d00c5ec:	00000000 	nop
9d00c5f0:	15800008 	bnez	t4,9d00c614 <L25>
9d00c5f4:	00000000 	nop
9d00c5f8:	15600003 	bnez	t3,9d00c608 <L26>
9d00c5fc:	00000000 	nop
9d00c600:	1000ff85 	b	9d00c418 <Clab2>
9d00c604:	240d0000 	li	t5,0

9d00c608 <L26>:
9d00c608:	01606025 	move	t4,t3
9d00c60c:	240b0000 	li	t3,0
9d00c610:	25adffe0 	addiu	t5,t5,-32

9d00c614 <L25>:
9d00c614:	71863020 	clz	a2,t4
9d00c618:	10c0ff7f 	beqz	a2,9d00c418 <Clab2>
9d00c61c:	00000000 	nop
9d00c620:	01a66823 	subu	t5,t5,a2
9d00c624:	00067022 	neg	t6,a2
9d00c628:	01cb7006 	srlv	t6,t3,t6
9d00c62c:	00cb5804 	sllv	t3,t3,a2
9d00c630:	00cc6004 	sllv	t4,t4,a2
9d00c634:	1000ff78 	b	9d00c418 <Clab2>
9d00c638:	018e6025 	or	t4,t4,t6

9d00c63c <i19>:
9d00c63c:	1000ffb4 	b	9d00c510 <Cret>
9d00c640:	24040000 	li	a0,0

9d00c644 <i18>:
9d00c644:	018b7825 	or	t7,t4,t3
9d00c648:	15e00005 	bnez	t7,9d00c660 <Cnan>
9d00c64c:	00000000 	nop

9d00c650 <Cinf>:
9d00c650:	3c017ff0 	lui	at,0x7ff0
9d00c654:	00a12825 	or	a1,a1,at
9d00c658:	1000ffad 	b	9d00c510 <Cret>
9d00c65c:	24040000 	li	a0,0

9d00c660 <Cnan>:
9d00c660:	3c05fff8 	lui	a1,0xfff8
9d00c664:	1000ffaa 	b	9d00c510 <Cret>
9d00c668:	24040000 	li	a0,0

9d00c66c <Coveund>:
9d00c66c:	1d40fff8 	bgtz	t2,9d00c650 <Cinf>
9d00c670:	00000000 	nop
9d00c674:	240e0001 	li	t6,1
9d00c678:	01ca7023 	subu	t6,t6,t2

9d00c67c <L28>:
9d00c67c:	2dc10020 	sltiu	at,t6,32
9d00c680:	14200007 	bnez	at,9d00c6a0 <L29>
9d00c684:	00000000 	nop
9d00c688:	21ceffe0 	addi	t6,t6,-32
9d00c68c:	0008302b 	sltu	a2,zero,t0
9d00c690:	1009000d 	beq	zero,t1,9d00c6c8 <L30>
9d00c694:	01264025 	or	t0,t1,a2
9d00c698:	1000fff8 	b	9d00c67c <L28>
9d00c69c:	34090000 	li	t1,0x0

9d00c6a0 <L29>:
9d00c6a0:	11c00009 	beqz	t6,9d00c6c8 <L30>
9d00c6a4:	00000000 	nop
9d00c6a8:	000e3822 	neg	a3,t6
9d00c6ac:	00e83004 	sllv	a2,t0,a3
9d00c6b0:	00e93804 	sllv	a3,t1,a3
9d00c6b4:	01c84006 	srlv	t0,t0,t6
9d00c6b8:	01c94806 	srlv	t1,t1,t6
9d00c6bc:	10c00002 	beqz	a2,9d00c6c8 <L30>
9d00c6c0:	00e84025 	or	t0,a3,t0
9d00c6c4:	35080002 	ori	t0,t0,0x2

9d00c6c8 <L30>:
9d00c6c8:	25080400 	addiu	t0,t0,1024
9d00c6cc:	2d0f0400 	sltiu	t7,t0,1024
9d00c6d0:	012f4821 	addu	t1,t1,t7
9d00c6d4:	1000ff83 	b	9d00c4e4 <Clab8>
9d00c6d8:	000957c2 	srl	t2,t1,0x1f
9d00c6dc:	00000000 	nop

Disassembly of section .text.libm:

9d00c6e0 <dpfmod>:
9d00c6e0:	00055040 000a5542 00054ac0 00047d42     @P..BU...J..B}..
9d00c6f0:	012f4825 000442c0 3c0e8000 012e4825     %H/..B.....<%H..
9d00c700:	00076840 000d6d42 000762c0 00067d42     @h..Bm...b..B}..
9d00c710:	018f6025 00065ac0 018e6025 01c57024     %`...Z..%`..$p..
9d00c720:	254fffff 2de107fe 10200056 00000000     ..O%...-V. .....

9d00c730 <Alab1>:
9d00c730:	25afffff 	addiu	t7,t5,-1
9d00c734:	2de107fe 	sltiu	at,t7,2046
9d00c738:	1020006e 	beqz	at,9d00c8f4 <AspecB>
9d00c73c:	00000000 	nop

9d00c740 <Alab2>:
9d00c740:	014d3823 	subu	a3,t2,t5
9d00c744:	04e0004b 	bltz	a3,9d00c874 <Aret2>
9d00c748:	00000000 	nop
9d00c74c:	00084042 	srl	t0,t0,0x1
9d00c750:	00097fc0 	sll	t7,t1,0x1f
9d00c754:	010f4025 	or	t0,t0,t7
9d00c758:	00094842 	srl	t1,t1,0x1
9d00c75c:	000b5842 	srl	t3,t3,0x1
9d00c760:	000c7fc0 	sll	t7,t4,0x1f
9d00c764:	016f5825 	or	t3,t3,t7
9d00c768:	000c6042 	srl	t4,t4,0x1

9d00c76c <b1>:
9d00c76c:	010b782b 	sltu	t7,t0,t3
9d00c770:	010b4023 	subu	t0,t0,t3
9d00c774:	012f102b 	sltu	v0,t1,t7
9d00c778:	012f4823 	subu	t1,t1,t7
9d00c77c:	012c782b 	sltu	t7,t1,t4
9d00c780:	01e27825 	or	t7,t7,v0
9d00c784:	11e00005 	beqz	t7,9d00c79c <i2>
9d00c788:	012c4823 	subu	t1,t1,t4
9d00c78c:	010b4021 	addu	t0,t0,t3
9d00c790:	010b782b 	sltu	t7,t0,t3
9d00c794:	012c4821 	addu	t1,t1,t4
9d00c798:	012f4821 	addu	t1,t1,t7

9d00c79c <i2>:
9d00c79c:	0100782a 	slt	t7,t0,zero
9d00c7a0:	01084021 	addu	t0,t0,t0
9d00c7a4:	01294821 	addu	t1,t1,t1
9d00c7a8:	012f4821 	addu	t1,t1,t7
9d00c7ac:	24e7ffff 	addiu	a3,a3,-1
9d00c7b0:	04e1ffee 	bgez	a3,9d00c76c <b1>
9d00c7b4:	00000000 	nop
9d00c7b8:	15200008 	bnez	t1,9d00c7dc <L1>
9d00c7bc:	000d5025 	or	t2,zero,t5
9d00c7c0:	15000003 	bnez	t0,9d00c7d0 <L2>
9d00c7c4:	00000000 	nop
9d00c7c8:	1000000d 	b	9d00c800 <L3>
9d00c7cc:	240a0000 	li	t2,0

9d00c7d0 <L2>:
9d00c7d0:	01004825 	move	t1,t0
9d00c7d4:	24080000 	li	t0,0
9d00c7d8:	254affe0 	addiu	t2,t2,-32

9d00c7dc <L1>:
9d00c7dc:	71273820 	clz	a3,t1
9d00c7e0:	10e00007 	beqz	a3,9d00c800 <L3>
9d00c7e4:	00000000 	nop
9d00c7e8:	01475023 	subu	t2,t2,a3
9d00c7ec:	00073022 	neg	a2,a3
9d00c7f0:	00c83006 	srlv	a2,t0,a2
9d00c7f4:	00e84004 	sllv	t0,t0,a3
9d00c7f8:	00e94804 	sllv	t1,t1,a3
9d00c7fc:	01264825 	or	t1,t1,a2

9d00c800 <L3>:
9d00c800:	1d400014 	bgtz	t2,9d00c854 <i3>
9d00c804:	00000000 	nop
9d00c808:	24070001 	li	a3,1
9d00c80c:	00ea3823 	subu	a3,a3,t2

9d00c810 <L4>:
9d00c810:	2ce10020 	sltiu	at,a3,32
9d00c814:	14200005 	bnez	at,9d00c82c <L5>
9d00c818:	00000000 	nop
9d00c81c:	00094025 	or	t0,zero,t1
9d00c820:	24090000 	li	t1,0
9d00c824:	1500fffa 	bnez	t0,9d00c810 <L4>
9d00c828:	24e7ffe0 	addiu	a3,a3,-32

9d00c82c <L5>:
9d00c82c:	10e00008 	beqz	a3,9d00c850 <L6>
9d00c830:	00000000 	nop
9d00c834:	00093025 	or	a2,zero,t1
9d00c838:	00e84006 	srlv	t0,t0,a3
9d00c83c:	00e94806 	srlv	t1,t1,a3
9d00c840:	240f0020 	li	t7,32
9d00c844:	01e73823 	subu	a3,t7,a3
9d00c848:	00e63004 	sllv	a2,a2,a3
9d00c84c:	01064025 	or	t0,t0,a2

9d00c850 <L6>:
9d00c850:	240a0000 	li	t2,0

9d00c854 <i3>:
9d00c854:	000822c2 	srl	a0,t0,0xb
9d00c858:	00097d40 	sll	t7,t1,0x15
9d00c85c:	008f2025 	or	a0,a0,t7
9d00c860:	00092840 	sll	a1,t1,0x1
9d00c864:	00052b02 	srl	a1,a1,0xc
9d00c868:	000a7d00 	sll	t7,t2,0x14
9d00c86c:	00af2825 	or	a1,a1,t7
9d00c870:	00ae2825 	or	a1,a1,t6

9d00c874 <Aret2>:
9d00c874:	00041025 	or	v0,zero,a0
9d00c878:	00051825 	or	v1,zero,a1

9d00c87c <A999>:
9d00c87c:	03e00008 	jr	ra
9d00c880:	00000000 	nop

9d00c884 <AspecA>:
9d00c884:	1540003b 	bnez	t2,9d00c974 <Anan>
9d00c888:	00000000 	nop
9d00c88c:	0100782a 	slt	t7,t0,zero
9d00c890:	01084021 	addu	t0,t0,t0
9d00c894:	01294821 	addu	t1,t1,t1
9d00c898:	012f4821 	addu	t1,t1,t7
9d00c89c:	01287825 	or	t7,t1,t0
9d00c8a0:	11e0ffa3 	beqz	t7,9d00c730 <Alab1>
9d00c8a4:	00000000 	nop
9d00c8a8:	15200008 	bnez	t1,9d00c8cc <L7>
9d00c8ac:	00000000 	nop
9d00c8b0:	15000003 	bnez	t0,9d00c8c0 <L8>
9d00c8b4:	00000000 	nop
9d00c8b8:	1000ff9d 	b	9d00c730 <Alab1>
9d00c8bc:	240a0000 	li	t2,0

9d00c8c0 <L8>:
9d00c8c0:	01004825 	move	t1,t0
9d00c8c4:	24080000 	li	t0,0
9d00c8c8:	254affe0 	addiu	t2,t2,-32

9d00c8cc <L7>:
9d00c8cc:	71273820 	clz	a3,t1
9d00c8d0:	10e0ff97 	beqz	a3,9d00c730 <Alab1>
9d00c8d4:	00000000 	nop
9d00c8d8:	01475023 	subu	t2,t2,a3
9d00c8dc:	00073022 	neg	a2,a3
9d00c8e0:	00c83006 	srlv	a2,t0,a2
9d00c8e4:	00e84004 	sllv	t0,t0,a3
9d00c8e8:	00e94804 	sllv	t1,t1,a3
9d00c8ec:	1000ff90 	b	9d00c730 <Alab1>
9d00c8f0:	01264825 	or	t1,t1,a2

9d00c8f4 <AspecB>:
9d00c8f4:	15a0001b 	bnez	t5,9d00c964 <i5>
9d00c8f8:	00000000 	nop
9d00c8fc:	0160782a 	slt	t7,t3,zero
9d00c900:	016b5821 	addu	t3,t3,t3
9d00c904:	018c6021 	addu	t4,t4,t4
9d00c908:	018f6021 	addu	t4,t4,t7
9d00c90c:	018b7825 	or	t7,t4,t3
9d00c910:	11e00018 	beqz	t7,9d00c974 <Anan>
9d00c914:	00000000 	nop
9d00c918:	15800008 	bnez	t4,9d00c93c <L10>
9d00c91c:	00000000 	nop
9d00c920:	15600003 	bnez	t3,9d00c930 <L11>
9d00c924:	00000000 	nop
9d00c928:	1000ff85 	b	9d00c740 <Alab2>
9d00c92c:	240d0000 	li	t5,0

9d00c930 <L11>:
9d00c930:	01606025 	move	t4,t3
9d00c934:	240b0000 	li	t3,0
9d00c938:	25adffe0 	addiu	t5,t5,-32

9d00c93c <L10>:
9d00c93c:	71873820 	clz	a3,t4
9d00c940:	10e0ff7f 	beqz	a3,9d00c740 <Alab2>
9d00c944:	00000000 	nop
9d00c948:	01a76823 	subu	t5,t5,a3
9d00c94c:	00073022 	neg	a2,a3
9d00c950:	00cb3006 	srlv	a2,t3,a2
9d00c954:	00eb5804 	sllv	t3,t3,a3
9d00c958:	00ec6004 	sllv	t4,t4,a3
9d00c95c:	1000ff78 	b	9d00c740 <Alab2>
9d00c960:	01866025 	or	t4,t4,a2

9d00c964 <i5>:
9d00c964:	000c7840 	sll	t7,t4,0x1
9d00c968:	01eb7825 	or	t7,t7,t3
9d00c96c:	11e0ffc1 	beqz	t7,9d00c874 <Aret2>
9d00c970:	00000000 	nop

9d00c974 <Anan>:
9d00c974:	3c05fff8 	lui	a1,0xfff8
9d00c978:	1000ffbe 	b	9d00c874 <Aret2>
9d00c97c:	24040000 	li	a0,0
9d00c980:	00000000 	nop

Disassembly of section .text.scanexp:

9d00c984 <scanexp>:
9d00c984:	8c82003c 	lw	v0,60(a0)
9d00c988:	8c83004c 	lw	v1,76(a0)
9d00c98c:	27bdffd0 	addiu	sp,sp,-48
9d00c990:	afb10014 	sw	s1,20(sp)
9d00c994:	0043182b 	sltu	v1,v0,v1
9d00c998:	afb00010 	sw	s0,16(sp)
9d00c99c:	afbf002c 	sw	ra,44(sp)
9d00c9a0:	afb60028 	sw	s6,40(sp)
9d00c9a4:	afb50024 	sw	s5,36(sp)
9d00c9a8:	afb40020 	sw	s4,32(sp)
9d00c9ac:	afb3001c 	sw	s3,28(sp)
9d00c9b0:	afb20018 	sw	s2,24(sp)
9d00c9b4:	00808025 	move	s0,a0
9d00c9b8:	10600033 	beqz	v1,9d00ca88 <scanexp+0x104>
9d00c9bc:	00a08825 	move	s1,a1
9d00c9c0:	24430001 	addiu	v1,v0,1
9d00c9c4:	ac83003c 	sw	v1,60(a0)
9d00c9c8:	90520000 	lbu	s2,0(v0)
9d00c9cc:	2642ffd5 	addiu	v0,s2,-43
9d00c9d0:	7c020844 	ins	v0,zero,0x1,0x1
9d00c9d4:	14400016 	bnez	v0,9d00ca30 <scanexp+0xac>
9d00c9d8:	0000a025 	move	s4,zero
9d00c9dc:	8e02003c 	lw	v0,60(s0)
9d00c9e0:	8e03004c 	lw	v1,76(s0)
9d00c9e4:	3a52002d 	xori	s2,s2,0x2d
9d00c9e8:	0043182b 	sltu	v1,v0,v1
9d00c9ec:	1060002a 	beqz	v1,9d00ca98 <scanexp+0x114>
9d00c9f0:	2e540001 	sltiu	s4,s2,1
9d00c9f4:	24430001 	addiu	v1,v0,1
9d00c9f8:	ae03003c 	sw	v1,60(s0)
9d00c9fc:	90520000 	lbu	s2,0(v0)
9d00ca00:	2642ffd0 	addiu	v0,s2,-48
9d00ca04:	2c42000a 	sltiu	v0,v0,10
9d00ca08:	1440000a 	bnez	v0,9d00ca34 <scanexp+0xb0>
9d00ca0c:	2642ffd0 	addiu	v0,s2,-48
9d00ca10:	12200009 	beqz	s1,9d00ca38 <scanexp+0xb4>
9d00ca14:	2c42000a 	sltiu	v0,v0,10
9d00ca18:	8e02004c 	lw	v0,76(s0)
9d00ca1c:	10400005 	beqz	v0,9d00ca34 <scanexp+0xb0>
9d00ca20:	2642ffd0 	addiu	v0,s2,-48
9d00ca24:	8e02003c 	lw	v0,60(s0)
9d00ca28:	2442ffff 	addiu	v0,v0,-1
9d00ca2c:	ae02003c 	sw	v0,60(s0)
9d00ca30:	2642ffd0 	addiu	v0,s2,-48
9d00ca34:	2c42000a 	sltiu	v0,v0,10
9d00ca38:	1440001b 	bnez	v0,9d00caa8 <scanexp+0x124>
9d00ca3c:	00009825 	move	s3,zero
9d00ca40:	8e02004c 	lw	v0,76(s0)
9d00ca44:	10400004 	beqz	v0,9d00ca58 <scanexp+0xd4>
9d00ca48:	3c158000 	lui	s5,0x8000
9d00ca4c:	8e02003c 	lw	v0,60(s0)
9d00ca50:	2442ffff 	addiu	v0,v0,-1
9d00ca54:	ae02003c 	sw	v0,60(s0)
9d00ca58:	8fbf002c 	lw	ra,44(sp)
9d00ca5c:	02601025 	move	v0,s3
9d00ca60:	02a01825 	move	v1,s5
9d00ca64:	8fb60028 	lw	s6,40(sp)
9d00ca68:	8fb50024 	lw	s5,36(sp)
9d00ca6c:	8fb40020 	lw	s4,32(sp)
9d00ca70:	8fb3001c 	lw	s3,28(sp)
9d00ca74:	8fb20018 	lw	s2,24(sp)
9d00ca78:	8fb10014 	lw	s1,20(sp)
9d00ca7c:	8fb00010 	lw	s0,16(sp)
9d00ca80:	03e00008 	jr	ra
9d00ca84:	27bd0030 	addiu	sp,sp,48
9d00ca88:	0f403a56 	jal	9d00e958 <__shgetc>
9d00ca8c:	00000000 	nop
9d00ca90:	1000ffce 	b	9d00c9cc <scanexp+0x48>
9d00ca94:	00409025 	move	s2,v0
9d00ca98:	0f403a56 	jal	9d00e958 <__shgetc>
9d00ca9c:	02002025 	move	a0,s0
9d00caa0:	1000ffd7 	b	9d00ca00 <scanexp+0x7c>
9d00caa4:	00409025 	move	s2,v0
9d00caa8:	3c150ccc 	lui	s5,0xccc
9d00caac:	36b5cccc 	ori	s5,s5,0xcccc
9d00cab0:	8e02003c 	lw	v0,60(s0)
9d00cab4:	8e03004c 	lw	v1,76(s0)
9d00cab8:	0043182b 	sltu	v1,v0,v1
9d00cabc:	1060001d 	beqz	v1,9d00cb34 <scanexp+0x1b0>
9d00cac0:	24430001 	addiu	v1,v0,1
9d00cac4:	ae03003c 	sw	v1,60(s0)
9d00cac8:	90510000 	lbu	s1,0(v0)
9d00cacc:	2402000a 	li	v0,10
9d00cad0:	72621802 	mul	v1,s3,v0
9d00cad4:	2622ffd0 	addiu	v0,s1,-48
9d00cad8:	2c42000a 	sltiu	v0,v0,10
9d00cadc:	00729821 	addu	s3,v1,s2
9d00cae0:	10400004 	beqz	v0,9d00caf4 <scanexp+0x170>
9d00cae4:	2673ffd0 	addiu	s3,s3,-48
9d00cae8:	0275102a 	slt	v0,s3,s5
9d00caec:	1440fff0 	bnez	v0,9d00cab0 <scanexp+0x12c>
9d00caf0:	02209025 	move	s2,s1
9d00caf4:	3c160147 	lui	s6,0x147
9d00caf8:	0013afc3 	sra	s5,s3,0x1f
9d00cafc:	36d6ae15 	ori	s6,s6,0xae15
9d00cb00:	2622ffd0 	addiu	v0,s1,-48
9d00cb04:	2c42000a 	sltiu	v0,v0,10
9d00cb08:	14400012 	bnez	v0,9d00cb54 <scanexp+0x1d0>
9d00cb0c:	02b6102a 	slt	v0,s5,s6
9d00cb10:	8e02004c 	lw	v0,76(s0)
9d00cb14:	54400040 	bnezl	v0,9d00cc18 <scanexp+0x294>
9d00cb18:	8e02003c 	lw	v0,60(s0)
9d00cb1c:	1280ffce 	beqz	s4,9d00ca58 <scanexp+0xd4>
9d00cb20:	00158823 	negu	s1,s5
9d00cb24:	00139823 	negu	s3,s3
9d00cb28:	0013102b 	sltu	v0,zero,s3
9d00cb2c:	1000ffca 	b	9d00ca58 <scanexp+0xd4>
9d00cb30:	0222a823 	subu	s5,s1,v0
9d00cb34:	0f403a56 	jal	9d00e958 <__shgetc>
9d00cb38:	02002025 	move	a0,s0
9d00cb3c:	1000ffe3 	b	9d00cacc <scanexp+0x148>
9d00cb40:	00408825 	move	s1,v0
9d00cb44:	0f403a56 	jal	9d00e958 <__shgetc>
9d00cb48:	02002025 	move	a0,s0
9d00cb4c:	10000012 	b	9d00cb98 <scanexp+0x214>
9d00cb50:	2403000a 	li	v1,10
9d00cb54:	10400026 	beqz	v0,9d00cbf0 <scanexp+0x26c>
9d00cb58:	26c2ffff 	addiu	v0,s6,-1
9d00cb5c:	16a20005 	bne	s5,v0,9d00cb74 <scanexp+0x1f0>
9d00cb60:	3c027ae1 	lui	v0,0x7ae1
9d00cb64:	244247ae 	addiu	v0,v0,18350
9d00cb68:	0262102b 	sltu	v0,s3,v0
9d00cb6c:	50400021 	beqzl	v0,9d00cbf4 <scanexp+0x270>
9d00cb70:	2631ffd0 	addiu	s1,s1,-48
9d00cb74:	8e02003c 	lw	v0,60(s0)
9d00cb78:	8e03004c 	lw	v1,76(s0)
9d00cb7c:	0043182b 	sltu	v1,v0,v1
9d00cb80:	1060fff0 	beqz	v1,9d00cb44 <scanexp+0x1c0>
9d00cb84:	00000000 	nop
9d00cb88:	24430001 	addiu	v1,v0,1
9d00cb8c:	ae03003c 	sw	v1,60(s0)
9d00cb90:	90420000 	lbu	v0,0(v0)
9d00cb94:	2403000a 	li	v1,10
9d00cb98:	00730019 	multu	v1,s3
9d00cb9c:	00009012 	mflo	s2
9d00cba0:	00009810 	mfhi	s3
9d00cba4:	70752002 	mul	a0,v1,s5
9d00cba8:	00939821 	addu	s3,a0,s3
9d00cbac:	001127c3 	sra	a0,s1,0x1f
9d00cbb0:	02518821 	addu	s1,s2,s1
9d00cbb4:	0232182b 	sltu	v1,s1,s2
9d00cbb8:	02642021 	addu	a0,s3,a0
9d00cbbc:	00641821 	addu	v1,v1,a0
9d00cbc0:	2633ffd0 	addiu	s3,s1,-48
9d00cbc4:	0271882b 	sltu	s1,s3,s1
9d00cbc8:	2463ffff 	addiu	v1,v1,-1
9d00cbcc:	0223a821 	addu	s5,s1,v1
9d00cbd0:	1000ffcb 	b	9d00cb00 <scanexp+0x17c>
9d00cbd4:	00408825 	move	s1,v0
9d00cbd8:	8e03004c 	lw	v1,76(s0)
9d00cbdc:	0043182b 	sltu	v1,v0,v1
9d00cbe0:	10600009 	beqz	v1,9d00cc08 <scanexp+0x284>
9d00cbe4:	24430001 	addiu	v1,v0,1
9d00cbe8:	ae03003c 	sw	v1,60(s0)
9d00cbec:	90510000 	lbu	s1,0(v0)
9d00cbf0:	2631ffd0 	addiu	s1,s1,-48
9d00cbf4:	2e31000a 	sltiu	s1,s1,10
9d00cbf8:	5620fff7 	bnezl	s1,9d00cbd8 <scanexp+0x254>
9d00cbfc:	8e02003c 	lw	v0,60(s0)
9d00cc00:	1000ffc4 	b	9d00cb14 <scanexp+0x190>
9d00cc04:	8e02004c 	lw	v0,76(s0)
9d00cc08:	0f403a56 	jal	9d00e958 <__shgetc>
9d00cc0c:	02002025 	move	a0,s0
9d00cc10:	1000fff7 	b	9d00cbf0 <scanexp+0x26c>
9d00cc14:	00408825 	move	s1,v0
9d00cc18:	2442ffff 	addiu	v0,v0,-1
9d00cc1c:	1000ffbf 	b	9d00cb1c <scanexp+0x198>
9d00cc20:	ae02003c 	sw	v0,60(s0)

Disassembly of section .text.fpsubadd:

9d00cc24 <__subsf3>:
9d00cc24:	3c018000 00a12826                       ...<&(..

9d00cc2c <__addsf3>:
9d00cc2c:	00044dc2 312900ff 00055dc2 316b00ff     .M....)1.]....k1
9d00cc3c:	3c078000 00044200 01074025 00055200     ...<.B..%@...R..
9d00cc4c:	01475025 252dffff 2da100fe 10200061     %PG...-%...-a. .
9d00cc5c:	00000000                                ....

9d00cc60 <Blab1>:
9d00cc60:	256dffff 	addiu	t5,t3,-1
9d00cc64:	2da100fe 	sltiu	at,t5,254
9d00cc68:	10200077 	beqz	at,9d00ce48 <BspecB>
9d00cc6c:	00000000 	nop

9d00cc70 <Blab2>:
9d00cc70:	012b6023 	subu	t4,t1,t3
9d00cc74:	0580000d 	bltz	t4,9d00ccac <i1>
9d00cc78:	00000000 	nop
9d00cc7c:	29810020 	slti	at,t4,32
9d00cc80:	14200003 	bnez	at,9d00cc90 <i2>
9d00cc84:	00000000 	nop
9d00cc88:	10000015 	b	9d00cce0 <e1>
9d00cc8c:	240a0002 	li	t2,2

9d00cc90 <i2>:
9d00cc90:	000a3025 	or	a2,zero,t2
9d00cc94:	018a5006 	srlv	t2,t2,t4
9d00cc98:	018a6804 	sllv	t5,t2,t4
9d00cc9c:	11a60010 	beq	t5,a2,9d00cce0 <e1>
9d00cca0:	00000000 	nop
9d00cca4:	1000000e 	b	9d00cce0 <e1>
9d00cca8:	354a0002 	ori	t2,t2,0x2

9d00ccac <i1>:
9d00ccac:	000b4825 	or	t1,zero,t3
9d00ccb0:	000c6023 	negu	t4,t4
9d00ccb4:	29810020 	slti	at,t4,32
9d00ccb8:	14200003 	bnez	at,9d00ccc8 <i4>
9d00ccbc:	00000000 	nop
9d00ccc0:	10000007 	b	9d00cce0 <e1>
9d00ccc4:	24080002 	li	t0,2

9d00ccc8 <i4>:
9d00ccc8:	00083025 	or	a2,zero,t0
9d00cccc:	01884006 	srlv	t0,t0,t4
9d00ccd0:	01886804 	sllv	t5,t0,t4
9d00ccd4:	11a60002 	beq	t5,a2,9d00cce0 <e1>
9d00ccd8:	00000000 	nop
9d00ccdc:	35080002 	ori	t0,t0,0x2

9d00cce0 <e1>:
9d00cce0:	00876024 	and	t4,a0,a3
9d00cce4:	01856826 	xor	t5,t4,a1
9d00cce8:	05a00010 	bltz	t5,9d00cd2c <Bsub1>
9d00ccec:	00000000 	nop
9d00ccf0:	010a4021 	addu	t0,t0,t2
9d00ccf4:	010a682b 	sltu	t5,t0,t2
9d00ccf8:	11a00017 	beqz	t5,9d00cd58 <Bres>
9d00ccfc:	00000000 	nop
9d00cd00:	310d0001 	andi	t5,t0,0x1
9d00cd04:	11a00002 	beqz	t5,9d00cd10 <i7>
9d00cd08:	00000000 	nop
9d00cd0c:	35080002 	ori	t0,t0,0x2

9d00cd10 <i7>:
9d00cd10:	00084042 	srl	t0,t0,0x1
9d00cd14:	25290001 	addiu	t1,t1,1
9d00cd18:	240100ff 	li	at,255
9d00cd1c:	1521000e 	bne	t1,at,9d00cd58 <Bres>
9d00cd20:	00000000 	nop
9d00cd24:	1000000c 	b	9d00cd58 <Bres>
9d00cd28:	24080000 	li	t0,0

9d00cd2c <Bsub1>:
9d00cd2c:	010a682b 	sltu	t5,t0,t2
9d00cd30:	11a00004 	beqz	t5,9d00cd44 <i9>
9d00cd34:	010a4023 	subu	t0,t0,t2
9d00cd38:	00084023 	negu	t0,t0
9d00cd3c:	10000003 	b	9d00cd4c <e9>
9d00cd40:	01876026 	xor	t4,t4,a3

9d00cd44 <i9>:
9d00cd44:	11000050 	beqz	t0,9d00ce88 <Bzer>
9d00cd48:	00000000 	nop

9d00cd4c <e9>:
9d00cd4c:	71063020 	clz	a2,t0
9d00cd50:	01264823 	subu	t1,t1,a2
9d00cd54:	00c84004 	sllv	t0,t0,a2

9d00cd58 <Bres>:
9d00cd58:	1920000e 	blez	t1,9d00cd94 <Bund>
9d00cd5c:	00000000 	nop

9d00cd60 <Blab12>:
9d00cd60:	25080080 	addiu	t0,t0,128
9d00cd64:	2d0d0080 	sltiu	t5,t0,128
9d00cd68:	012d4821 	addu	t1,t1,t5
9d00cd6c:	00086a02 	srl	t5,t0,0x8
9d00cd70:	31ad0001 	andi	t5,t5,0x1
9d00cd74:	010d4023 	subu	t0,t0,t5
9d00cd78:	00084040 	sll	t0,t0,0x1
9d00cd7c:	00084242 	srl	t0,t0,0x9
9d00cd80:	00096dc0 	sll	t5,t1,0x17
9d00cd84:	010d4025 	or	t0,t0,t5
9d00cd88:	010c1025 	or	v0,t0,t4

9d00cd8c <B999>:
9d00cd8c:	03e00008 	jr	ra
9d00cd90:	00000000 	nop

9d00cd94 <Bund>:
9d00cd94:	24060001 	li	a2,1
9d00cd98:	00c93023 	subu	a2,a2,t1
9d00cd9c:	2cc10020 	sltiu	at,a2,32
9d00cda0:	10200039 	beqz	at,9d00ce88 <Bzer>
9d00cda4:	00000000 	nop
9d00cda8:	3c018000 	lui	at,0x8000
9d00cdac:	01014025 	or	t0,t0,at
9d00cdb0:	240d0020 	li	t5,32
9d00cdb4:	01a66823 	subu	t5,t5,a2
9d00cdb8:	01a84804 	sllv	t1,t0,t5
9d00cdbc:	11200002 	beqz	t1,9d00cdc8 <i10>
9d00cdc0:	00c84006 	srlv	t0,t0,a2
9d00cdc4:	35080001 	ori	t0,t0,0x1

9d00cdc8 <i10>:
9d00cdc8:	24090000 	li	t1,0
9d00cdcc:	250d0080 	addiu	t5,t0,128
9d00cdd0:	05a1ffe3 	bgez	t5,9d00cd60 <Blab12>
9d00cdd4:	00000000 	nop
9d00cdd8:	1000ffe1 	b	9d00cd60 <Blab12>
9d00cddc:	24090001 	li	t1,1

9d00cde0 <BspecA>:
9d00cde0:	1520000e 	bnez	t1,9d00ce1c <i12>
9d00cde4:	00000000 	nop
9d00cde8:	01084021 	addu	t0,t0,t0
9d00cdec:	11000005 	beqz	t0,9d00ce04 <i13>
9d00cdf0:	00000000 	nop
9d00cdf4:	710c6020 	clz	t4,t0
9d00cdf8:	012c4823 	subu	t1,t1,t4
9d00cdfc:	1000ff98 	b	9d00cc60 <Blab1>
9d00ce00:	01884004 	sllv	t0,t0,t4

9d00ce04 <i13>:
9d00ce04:	240100ff 	li	at,255
9d00ce08:	1161000f 	beq	t3,at,9d00ce48 <BspecB>
9d00ce0c:	00000000 	nop
9d00ce10:	3c018000 	lui	at,0x8000
9d00ce14:	14a10018 	bne	a1,at,9d00ce78 <BretB>
9d00ce18:	00000000 	nop

9d00ce1c <i12>:
9d00ce1c:	01086821 	addu	t5,t0,t0
9d00ce20:	15a0001b 	bnez	t5,9d00ce90 <Bnan>
9d00ce24:	00000000 	nop
9d00ce28:	240100ff 	li	at,255
9d00ce2c:	15610014 	bne	t3,at,9d00ce80 <BretA>
9d00ce30:	00000000 	nop
9d00ce34:	00856826 	xor	t5,a0,a1
9d00ce38:	05a00015 	bltz	t5,9d00ce90 <Bnan>
9d00ce3c:	00000000 	nop
9d00ce40:	1000000d 	b	9d00ce78 <BretB>
9d00ce44:	00000000 	nop

9d00ce48 <BspecB>:
9d00ce48:	15600008 	bnez	t3,9d00ce6c <i15>
9d00ce4c:	00000000 	nop
9d00ce50:	014a5021 	addu	t2,t2,t2
9d00ce54:	1140000a 	beqz	t2,9d00ce80 <BretA>
9d00ce58:	00000000 	nop
9d00ce5c:	714c6020 	clz	t4,t2
9d00ce60:	016c5823 	subu	t3,t3,t4
9d00ce64:	1000ff82 	b	9d00cc70 <Blab2>
9d00ce68:	018a5004 	sllv	t2,t2,t4

9d00ce6c <i15>:
9d00ce6c:	014a6821 	addu	t5,t2,t2
9d00ce70:	15a00007 	bnez	t5,9d00ce90 <Bnan>
9d00ce74:	00000000 	nop

9d00ce78 <BretB>:
9d00ce78:	1000ffc4 	b	9d00cd8c <B999>
9d00ce7c:	00051025 	or	v0,zero,a1

9d00ce80 <BretA>:
9d00ce80:	1000ffc2 	b	9d00cd8c <B999>
9d00ce84:	00041025 	or	v0,zero,a0

9d00ce88 <Bzer>:
9d00ce88:	1000ffc0 	b	9d00cd8c <B999>
9d00ce8c:	24020000 	li	v0,0

9d00ce90 <Bnan>:
9d00ce90:	1000ffbe 	b	9d00cd8c <B999>
9d00ce94:	3c02ffc0 	lui	v0,0xffc0
9d00ce98:	00000000 	nop

Disassembly of section .text:

9d00ce9c <NU32DIP_Startup>:
#include "nu32dip.h"

void NU32DIP_Startup() {
9d00ce9c:	27bdfff8 	addiu	sp,sp,-8
9d00cea0:	afbf0004 	sw	ra,4(sp)
    __builtin_disable_interrupts(); // disable interrupts while initializing things
9d00cea4:	41626000 	di	v0
9d00cea8:	000000c0 	ehb

    // set the CP0 CONFIG register to indicate that kseg0 is cacheable (0x3)
    __builtin_mtc0(_CP0_CONFIG, _CP0_CONFIG_SELECT, 0xa4210583);
9d00ceac:	3c02a421 	lui	v0,0xa421
9d00ceb0:	24420583 	addiu	v0,v0,1411
9d00ceb4:	40828000 	mtc0	v0,c0_config
9d00ceb8:	000000c0 	ehb

    // 0 data RAM access wait states
    BMXCONbits.BMXWSDRM = 0x0;
9d00cebc:	3c02bf88 	lui	v0,0xbf88
9d00cec0:	8c432000 	lw	v1,8192(v0)
9d00cec4:	7c033184 	ins	v1,zero,0x6,0x1
9d00cec8:	ac432000 	sw	v1,8192(v0)

    // enable multi vector interrupts
    INTCONbits.MVEC = 0x1;
9d00cecc:	3c02bf88 	lui	v0,0xbf88
9d00ced0:	8c441000 	lw	a0,4096(v0)
9d00ced4:	24030001 	li	v1,1
9d00ced8:	7c646304 	ins	a0,v1,0xc,0x1
9d00cedc:	ac441000 	sw	a0,4096(v0)

    // disable JTAG to get pins back
    DDPCONbits.JTAGEN = 0;
9d00cee0:	3c02bf81 	lui	v0,0xbf81
9d00cee4:	9444f200 	lhu	a0,-3584(v0)
9d00cee8:	7c0418c4 	ins	a0,zero,0x3,0x1
9d00ceec:	a444f200 	sh	a0,-3584(v0)

    // do your TRIS and LAT commands here
    TRISBCLR = 0b110000; // B4 and B5 LEDs
9d00cef0:	3c02bf88 	lui	v0,0xbf88
9d00cef4:	24040030 	li	a0,48
9d00cef8:	ac446114 	sw	a0,24852(v0)
    TRISASET = 0b010000; // A4 user button
9d00cefc:	3c02bf88 	lui	v0,0xbf88
9d00cf00:	24040010 	li	a0,16
9d00cf04:	ac446018 	sw	a0,24600(v0)
    //NU32_LED1 = 1; // LED1 is off
    NU32DIP_YELLOW = 1;
9d00cf08:	3c02bf88 	lui	v0,0xbf88
9d00cf0c:	94446130 	lhu	a0,24880(v0)
9d00cf10:	7c642944 	ins	a0,v1,0x5,0x1
9d00cf14:	a4446130 	sh	a0,24880(v0)
    //NU32_LED2 = 0; // LED2 is on
    NU32DIP_GREEN = 0;
9d00cf18:	94446130 	lhu	a0,24880(v0)
9d00cf1c:	7c042104 	ins	a0,zero,0x4,0x1
9d00cf20:	a4446130 	sh	a0,24880(v0)

    //UART1 pins
    U1RXRbits.U1RXR = 0b0000; // Set A2 to U1RX
9d00cf24:	3c02bf81 	lui	v0,0xbf81
9d00cf28:	9044fa50 	lbu	a0,-1456(v0)
9d00cf2c:	7c041804 	ins	a0,zero,0x0,0x4
9d00cf30:	a044fa50 	sb	a0,-1456(v0)
    RPB3Rbits.RPB3R = 0b0001; // Set B3 to U1TX
9d00cf34:	3c02bf81 	lui	v0,0xbf81
9d00cf38:	9044fb38 	lbu	a0,-1224(v0)
9d00cf3c:	7c641804 	ins	a0,v1,0x0,0x4
9d00cf40:	a044fb38 	sb	a0,-1224(v0)

    // turn on UART1 without an interrupt
    U1MODEbits.BRGH = 0; // set baud to NU32_DESIRED_BAUD
9d00cf44:	3c02bf80 	lui	v0,0xbf80
9d00cf48:	94446000 	lhu	a0,24576(v0)
9d00cf4c:	7c0418c4 	ins	a0,zero,0x3,0x1
9d00cf50:	a4446000 	sh	a0,24576(v0)
    U1BRG = ((NU32DIP_SYS_FREQ / NU32DIP_DESIRED_BAUD) / 16) - 1;
9d00cf54:	3c04bf80 	lui	a0,0xbf80
9d00cf58:	2405000c 	li	a1,12
9d00cf5c:	ac856040 	sw	a1,24640(a0)

    // 8 bit, no parity bit, and 1 stop bit (8N1 setup)
    U1MODEbits.PDSEL = 0;
9d00cf60:	94446000 	lhu	a0,24576(v0)
9d00cf64:	7c041044 	ins	a0,zero,0x1,0x2
9d00cf68:	a4446000 	sh	a0,24576(v0)
    U1MODEbits.STSEL = 0;
9d00cf6c:	94446000 	lhu	a0,24576(v0)
9d00cf70:	7c040004 	ins	a0,zero,0x0,0x1
9d00cf74:	a4446000 	sh	a0,24576(v0)

    // configure TX & RX pins as output & input pins
    U1STAbits.UTXEN = 1;
9d00cf78:	3c04bf80 	lui	a0,0xbf80
9d00cf7c:	8c856010 	lw	a1,24592(a0)
9d00cf80:	7c655284 	ins	a1,v1,0xa,0x1
9d00cf84:	ac856010 	sw	a1,24592(a0)
    U1STAbits.URXEN = 1;
9d00cf88:	8c856010 	lw	a1,24592(a0)
9d00cf8c:	7c656304 	ins	a1,v1,0xc,0x1
9d00cf90:	ac856010 	sw	a1,24592(a0)
    // configure without hardware flow control
    U1MODEbits.UEN = 0;
9d00cf94:	94446000 	lhu	a0,24576(v0)
9d00cf98:	7c044a04 	ins	a0,zero,0x8,0x2
9d00cf9c:	a4446000 	sh	a0,24576(v0)

    // enable the uart
    U1MODEbits.ON = 1;
9d00cfa0:	94446000 	lhu	a0,24576(v0)
9d00cfa4:	7c647bc4 	ins	a0,v1,0xf,0x1
9d00cfa8:	a4446000 	sh	a0,24576(v0)

    __builtin_enable_interrupts();
9d00cfac:	41626020 	ei	v0
}
9d00cfb0:	8fbf0004 	lw	ra,4(sp)
9d00cfb4:	03e00008 	jr	ra
9d00cfb8:	27bd0008 	addiu	sp,sp,8

9d00cfbc <NU32DIP_ReadUART1>:
// block other functions until you get a '\r' or '\n'
// send the pointer to your char array and the number of elements in the array

void NU32DIP_ReadUART1(char * message, int maxLength) {
    char data = 0;
    int complete = 0, num_bytes = 0;
9d00cfbc:	00001025 	move	v0,zero
    // loop until you get a '\r' or '\n'
    while (!complete) {
        if (U1STAbits.URXDA) { // if data is available
9d00cfc0:	3c0abf80 	lui	t2,0xbf80
            data = U1RXREG; // read the data
9d00cfc4:	3c09bf80 	lui	t1,0xbf80
            if ((data == '\n') || (data == '\r')) {
9d00cfc8:	2408000a 	li	t0,10
9d00cfcc:	2407000d 	li	a3,13
        if (U1STAbits.URXDA) { // if data is available
9d00cfd0:	8d436010 	lw	v1,24592(t2)
9d00cfd4:	30630001 	andi	v1,v1,0x1
9d00cfd8:	1060fffd 	beqz	v1,9d00cfd0 <NU32DIP_ReadUART1+0x14>
9d00cfdc:	00000000 	nop
            data = U1RXREG; // read the data
9d00cfe0:	8d236030 	lw	v1,24624(t1)
9d00cfe4:	7c031c20 	seb	v1,v1
            if ((data == '\n') || (data == '\r')) {
9d00cfe8:	5068000b 	beql	v1,t0,9d00d018 <NU32DIP_ReadUART1+0x5c>
9d00cfec:	00822021 	addu	a0,a0,v0
9d00cff0:	10670008 	beq	v1,a3,9d00d014 <NU32DIP_ReadUART1+0x58>
9d00cff4:	24460001 	addiu	a2,v0,1
                complete = 1;
            } else {
                message[num_bytes] = data;
                ++num_bytes;
                // roll over if the array is too small
                if (num_bytes >= maxLength) {
9d00cff8:	00c5302a 	slt	a2,a2,a1
                    num_bytes = 0;
9d00cffc:	244b0001 	addiu	t3,v0,1
                message[num_bytes] = data;
9d00d000:	00821021 	addu	v0,a0,v0
9d00d004:	a0430000 	sb	v1,0(v0)
9d00d008:	01601025 	move	v0,t3
9d00d00c:	1000fff0 	b	9d00cfd0 <NU32DIP_ReadUART1+0x14>
9d00d010:	0006100a 	movz	v0,zero,a2
                }
            }
        }
    }
    // end the string
    message[num_bytes] = '\0';
9d00d014:	00822021 	addu	a0,a0,v0
}
9d00d018:	03e00008 	jr	ra
9d00d01c:	a0800000 	sb	zero,0(a0)

9d00d020 <NU32DIP_WriteUART1>:

// Write a character array using UART1

void NU32DIP_WriteUART1(const char * string) {
    while (*string != '\0') {
9d00d020:	80820000 	lb	v0,0(a0)
9d00d024:	1040000b 	beqz	v0,9d00d054 <NU32DIP_WriteUART1+0x34>
9d00d028:	3c06bf80 	lui	a2,0xbf80
        while (U1STAbits.UTXBF) {
            ; // wait until tx buffer isn't full
        }
        U1TXREG = *string;
9d00d02c:	3c05bf80 	lui	a1,0xbf80
        while (U1STAbits.UTXBF) {
9d00d030:	8cc36010 	lw	v1,24592(a2)
9d00d034:	7c630240 	ext	v1,v1,0x9,0x1
9d00d038:	1460fffd 	bnez	v1,9d00d030 <NU32DIP_WriteUART1+0x10>
9d00d03c:	00000000 	nop
        U1TXREG = *string;
9d00d040:	aca26020 	sw	v0,24608(a1)
        ++string;
9d00d044:	24840001 	addiu	a0,a0,1
    while (*string != '\0') {
9d00d048:	80820000 	lb	v0,0(a0)
9d00d04c:	1440fff8 	bnez	v0,9d00d030 <NU32DIP_WriteUART1+0x10>
9d00d050:	00000000 	nop
    }
}
9d00d054:	03e00008 	jr	ra
9d00d058:	00000000 	nop

Disassembly of section .text.fp32mul:

9d00d05c <__mulsf3>:
9d00d05c:	00043dc2 30e700ff 00054dc2 312900ff     .=.....0.M....)1
9d00d06c:	3c0a8000 00043200 00ca3025 00054200     ...<.2..%0...B..
9d00d07c:	010a4025 00856026 014c5024 24ecffff     %@..&`..$PL....$
9d00d08c:	2d8100fe 10200021 00000000              ...-!. .....

9d00d098 <Clab1>:
9d00d098:	252cffff 	addiu	t4,t1,-1
9d00d09c:	2d8100fe 	sltiu	at,t4,254
9d00d0a0:	10200036 	beqz	at,9d00d17c <CspecB>
9d00d0a4:	00000000 	nop

9d00d0a8 <Clab2>:
9d00d0a8:	00c80019 	multu	a2,t0
9d00d0ac:	00005812 	mflo	t3
9d00d0b0:	11600002 	beqz	t3,9d00d0bc <i17>
9d00d0b4:	00003010 	mfhi	a2
9d00d0b8:	34c60001 	ori	a2,a2,0x1

9d00d0bc <i17>:
9d00d0bc:	04c00003 	bltz	a2,9d00d0cc <i18>
9d00d0c0:	00000000 	nop
9d00d0c4:	00063040 	sll	a2,a2,0x1
9d00d0c8:	24e7ffff 	addiu	a3,a3,-1

9d00d0cc <i18>:
9d00d0cc:	252cff82 	addiu	t4,t1,-126
9d00d0d0:	00ec3821 	addu	a3,a3,t4
9d00d0d4:	24ecffff 	addiu	t4,a3,-1
9d00d0d8:	2d8100fe 	sltiu	at,t4,254
9d00d0dc:	1020003a 	beqz	at,9d00d1c8 <Coveund>
9d00d0e0:	00000000 	nop

9d00d0e4 <Clab8>:
9d00d0e4:	24c60080 	addiu	a2,a2,128
9d00d0e8:	2ccc0080 	sltiu	t4,a2,128
9d00d0ec:	00ec3821 	addu	a3,a3,t4
9d00d0f0:	00066202 	srl	t4,a2,0x8
9d00d0f4:	318c0001 	andi	t4,t4,0x1
9d00d0f8:	00cc3023 	subu	a2,a2,t4
9d00d0fc:	00063040 	sll	a2,a2,0x1
9d00d100:	00063242 	srl	a2,a2,0x9
9d00d104:	000765c0 	sll	t4,a3,0x17
9d00d108:	00cc3025 	or	a2,a2,t4
9d00d10c:	00ca1025 	or	v0,a2,t2

9d00d110 <C999>:
9d00d110:	03e00008 	jr	ra
9d00d114:	00000000 	nop

9d00d118 <CspecA>:
9d00d118:	14e0000d 	bnez	a3,9d00d150 <i19>
9d00d11c:	00000000 	nop
9d00d120:	00c63021 	addu	a2,a2,a2
9d00d124:	10c00005 	beqz	a2,9d00d13c <i20>
9d00d128:	00000000 	nop
9d00d12c:	70cb5820 	clz	t3,a2
9d00d130:	00eb3823 	subu	a3,a3,t3
9d00d134:	1000ffd8 	b	9d00d098 <Clab1>
9d00d138:	01663004 	sllv	a2,a2,t3

9d00d13c <i20>:
9d00d13c:	240100ff 	li	at,255
9d00d140:	1121001f 	beq	t1,at,9d00d1c0 <Cnan>
9d00d144:	00000000 	nop
9d00d148:	10000015 	b	9d00d1a0 <Czer>
9d00d14c:	00000000 	nop

9d00d150 <i19>:
9d00d150:	00c66021 	addu	t4,a2,a2
9d00d154:	1580001a 	bnez	t4,9d00d1c0 <Cnan>
9d00d158:	00000000 	nop
9d00d15c:	15200004 	bnez	t1,9d00d170 <i21>
9d00d160:	00000000 	nop
9d00d164:	01086021 	addu	t4,t0,t0
9d00d168:	11800015 	beqz	t4,9d00d1c0 <Cnan>
9d00d16c:	00000000 	nop

9d00d170 <i21>:
9d00d170:	240100ff 	li	at,255
9d00d174:	1521000f 	bne	t1,at,9d00d1b4 <Cinf>
9d00d178:	00000000 	nop

9d00d17c <CspecB>:
9d00d17c:	1520000a 	bnez	t1,9d00d1a8 <i22>
9d00d180:	00000000 	nop
9d00d184:	01084021 	addu	t0,t0,t0
9d00d188:	11000005 	beqz	t0,9d00d1a0 <Czer>
9d00d18c:	00000000 	nop
9d00d190:	710b5820 	clz	t3,t0
9d00d194:	012b4823 	subu	t1,t1,t3
9d00d198:	1000ffc3 	b	9d00d0a8 <Clab2>
9d00d19c:	01684004 	sllv	t0,t0,t3

9d00d1a0 <Czer>:
9d00d1a0:	1000ffdb 	b	9d00d110 <C999>
9d00d1a4:	000a1025 	or	v0,zero,t2

9d00d1a8 <i22>:
9d00d1a8:	01086021 	addu	t4,t0,t0
9d00d1ac:	15800004 	bnez	t4,9d00d1c0 <Cnan>
9d00d1b0:	00000000 	nop

9d00d1b4 <Cinf>:
9d00d1b4:	3c017f80 	lui	at,0x7f80
9d00d1b8:	1000ffd5 	b	9d00d110 <C999>
9d00d1bc:	01411025 	or	v0,t2,at

9d00d1c0 <Cnan>:
9d00d1c0:	1000ffd3 	b	9d00d110 <C999>
9d00d1c4:	3c02ffc0 	lui	v0,0xffc0

9d00d1c8 <Coveund>:
9d00d1c8:	1ce0fffa 	bgtz	a3,9d00d1b4 <Cinf>
9d00d1cc:	00000000 	nop
9d00d1d0:	240b0001 	li	t3,1
9d00d1d4:	01675823 	subu	t3,t3,a3
9d00d1d8:	2d610020 	sltiu	at,t3,32
9d00d1dc:	1020fff0 	beqz	at,9d00d1a0 <Czer>
9d00d1e0:	00000000 	nop
9d00d1e4:	240c0020 	li	t4,32
9d00d1e8:	018b6023 	subu	t4,t4,t3
9d00d1ec:	01863804 	sllv	a3,a2,t4
9d00d1f0:	10e00002 	beqz	a3,9d00d1fc <i25>
9d00d1f4:	01663006 	srlv	a2,a2,t3
9d00d1f8:	34c60002 	ori	a2,a2,0x2

9d00d1fc <i25>:
9d00d1fc:	24070000 	li	a3,0
9d00d200:	24cc0080 	addiu	t4,a2,128
9d00d204:	0581ffb7 	bgez	t4,9d00d0e4 <Clab8>
9d00d208:	00000000 	nop
9d00d20c:	1000ffb5 	b	9d00d0e4 <Clab8>
9d00d210:	24070001 	li	a3,1
9d00d214:	00000000 	nop

Disassembly of section .text.__pop_int:

9d00d218 <__pop_int>:
9d00d218:	24020088 	li	v0,136
9d00d21c:	10a2003f 	beq	a1,v0,9d00d31c <__pop_int+0x104>
9d00d220:	28a20089 	slti	v0,a1,137
9d00d224:	1040001a 	beqz	v0,9d00d290 <__pop_int+0x78>
9d00d228:	24020081 	li	v0,129
9d00d22c:	10a20054 	beq	a1,v0,9d00d380 <__pop_int+0x168>
9d00d230:	28a20082 	slti	v0,a1,130
9d00d234:	10400005 	beqz	v0,9d00d24c <__pop_int+0x34>
9d00d238:	24020080 	li	v0,128
9d00d23c:	50a20051 	beql	a1,v0,9d00d384 <__pop_int+0x16c>
9d00d240:	8ce20000 	lw	v0,0(a3)
9d00d244:	03e00008 	jr	ra
9d00d248:	00001025 	move	v0,zero
9d00d24c:	24020082 	li	v0,130
9d00d250:	50a2003b 	beql	a1,v0,9d00d340 <__pop_int+0x128>
9d00d254:	8ce20000 	lw	v0,0(a3)
9d00d258:	24020084 	li	v0,132
9d00d25c:	14a2fff9 	bne	a1,v0,9d00d244 <__pop_int+0x2c>
9d00d260:	00000000 	nop
9d00d264:	8ce20000 	lw	v0,0(a3)
9d00d268:	24430004 	addiu	v1,v0,4
9d00d26c:	8c420000 	lw	v0,0(v0)
9d00d270:	10c00027 	beqz	a2,9d00d310 <__pop_int+0xf8>
9d00d274:	ace30000 	sw	v1,0(a3)
9d00d278:	7c021620 	seh	v0,v0
9d00d27c:	ac820000 	sw	v0,0(a0)
9d00d280:	000217c3 	sra	v0,v0,0x1f
9d00d284:	ac820004 	sw	v0,4(a0)
9d00d288:	03e00008 	jr	ra
9d00d28c:	24020001 	li	v0,1
9d00d290:	240200a0 	li	v0,160
9d00d294:	50a20036 	beql	a1,v0,9d00d370 <__pop_int+0x158>
9d00d298:	8ce20000 	lw	v0,0(a3)
9d00d29c:	28a200a1 	slti	v0,a1,161
9d00d2a0:	10400010 	beqz	v0,9d00d2e4 <__pop_int+0xcc>
9d00d2a4:	24020090 	li	v0,144
9d00d2a8:	14a2ffe6 	bne	a1,v0,9d00d244 <__pop_int+0x2c>
9d00d2ac:	00000000 	nop
9d00d2b0:	8ce20000 	lw	v0,0(a3)
9d00d2b4:	24420007 	addiu	v0,v0,7
9d00d2b8:	7c021004 	ins	v0,zero,0x0,0x3
9d00d2bc:	8c480000 	lw	t0,0(v0)
9d00d2c0:	8c490004 	lw	t1,4(v0)
9d00d2c4:	24420008 	addiu	v0,v0,8
9d00d2c8:	ace20000 	sw	v0,0(a3)
9d00d2cc:	ac880000 	sw	t0,0(a0)
9d00d2d0:	ac890004 	sw	t1,4(a0)
9d00d2d4:	10c00001 	beqz	a2,9d00d2dc <__pop_int+0xc4>
9d00d2d8:	24020001 	li	v0,1
9d00d2dc:	03e00008 	jr	ra
9d00d2e0:	00000000 	nop
9d00d2e4:	240200c0 	li	v0,192
9d00d2e8:	50a20005 	beql	a1,v0,9d00d300 <__pop_int+0xe8>
9d00d2ec:	8ce20000 	lw	v0,0(a3)
9d00d2f0:	240200f0 	li	v0,240
9d00d2f4:	14a2ffd3 	bne	a1,v0,9d00d244 <__pop_int+0x2c>
9d00d2f8:	00000000 	nop
9d00d2fc:	8ce20000 	lw	v0,0(a3)
9d00d300:	24430004 	addiu	v1,v0,4
9d00d304:	ace30000 	sw	v1,0(a3)
9d00d308:	10000002 	b	9d00d314 <__pop_int+0xfc>
9d00d30c:	8c420000 	lw	v0,0(v0)
9d00d310:	3042ffff 	andi	v0,v0,0xffff
9d00d314:	10000020 	b	9d00d398 <__pop_int+0x180>
9d00d318:	ac820000 	sw	v0,0(a0)
9d00d31c:	8ce20000 	lw	v0,0(a3)
9d00d320:	24430004 	addiu	v1,v0,4
9d00d324:	8c420000 	lw	v0,0(v0)
9d00d328:	10c00003 	beqz	a2,9d00d338 <__pop_int+0x120>
9d00d32c:	ace30000 	sw	v1,0(a3)
9d00d330:	1000ffd2 	b	9d00d27c <__pop_int+0x64>
9d00d334:	7c021420 	seb	v0,v0
9d00d338:	1000fff6 	b	9d00d314 <__pop_int+0xfc>
9d00d33c:	304200ff 	andi	v0,v0,0xff
9d00d340:	24420007 	addiu	v0,v0,7
9d00d344:	7c021004 	ins	v0,zero,0x0,0x3
9d00d348:	8c480000 	lw	t0,0(v0)
9d00d34c:	8c490004 	lw	t1,4(v0)
9d00d350:	24420008 	addiu	v0,v0,8
9d00d354:	ace20000 	sw	v0,0(a3)
9d00d358:	ac880000 	sw	t0,0(a0)
9d00d35c:	ac890004 	sw	t1,4(a0)
9d00d360:	10c0ffde 	beqz	a2,9d00d2dc <__pop_int+0xc4>
9d00d364:	24020001 	li	v0,1
9d00d368:	03e00008 	jr	ra
9d00d36c:	00000000 	nop
9d00d370:	24430004 	addiu	v1,v0,4
9d00d374:	ace30000 	sw	v1,0(a3)
9d00d378:	1000ffc0 	b	9d00d27c <__pop_int+0x64>
9d00d37c:	8c420000 	lw	v0,0(v0)
9d00d380:	8ce20000 	lw	v0,0(a3)
9d00d384:	24430004 	addiu	v1,v0,4
9d00d388:	ace30000 	sw	v1,0(a3)
9d00d38c:	8c420000 	lw	v0,0(v0)
9d00d390:	14c0ffbb 	bnez	a2,9d00d280 <__pop_int+0x68>
9d00d394:	ac820000 	sw	v0,0(a0)
9d00d398:	1000ffbb 	b	9d00d288 <__pop_int+0x70>
9d00d39c:	ac800004 	sw	zero,4(a0)

Disassembly of section .text.__push_int:

9d00d3a0 <__push_int>:
9d00d3a0:	24020088 	li	v0,136
9d00d3a4:	50a2003c 	beql	a1,v0,9d00d498 <__push_int+0xf8>
9d00d3a8:	8ce20000 	lw	v0,0(a3)
9d00d3ac:	28a20089 	slti	v0,a1,137
9d00d3b0:	10400019 	beqz	v0,9d00d418 <__push_int+0x78>
9d00d3b4:	24020081 	li	v0,129
9d00d3b8:	50a20040 	beql	a1,v0,9d00d4bc <__push_int+0x11c>
9d00d3bc:	8ce20000 	lw	v0,0(a3)
9d00d3c0:	28a20082 	slti	v0,a1,130
9d00d3c4:	10400005 	beqz	v0,9d00d3dc <__push_int+0x3c>
9d00d3c8:	24020080 	li	v0,128
9d00d3cc:	50a20048 	beql	a1,v0,9d00d4f0 <__push_int+0x150>
9d00d3d0:	8ce20000 	lw	v0,0(a3)
9d00d3d4:	03e00008 	jr	ra
9d00d3d8:	00001025 	move	v0,zero
9d00d3dc:	24020082 	li	v0,130
9d00d3e0:	10a20015 	beq	a1,v0,9d00d438 <__push_int+0x98>
9d00d3e4:	24020084 	li	v0,132
9d00d3e8:	14a2fffa 	bne	a1,v0,9d00d3d4 <__push_int+0x34>
9d00d3ec:	00000000 	nop
9d00d3f0:	8ce20000 	lw	v0,0(a3)
9d00d3f4:	8c830000 	lw	v1,0(a0)
9d00d3f8:	24440004 	addiu	a0,v0,4
9d00d3fc:	ace40000 	sw	a0,0(a3)
9d00d400:	8c420000 	lw	v0,0(v0)
9d00d404:	a4430000 	sh	v1,0(v0)
9d00d408:	10c00001 	beqz	a2,9d00d410 <__push_int+0x70>
9d00d40c:	24020001 	li	v0,1
9d00d410:	03e00008 	jr	ra
9d00d414:	00000000 	nop
9d00d418:	240200a0 	li	v0,160
9d00d41c:	50a20018 	beql	a1,v0,9d00d480 <__push_int+0xe0>
9d00d420:	8ce20000 	lw	v0,0(a3)
9d00d424:	28a200a1 	slti	v0,a1,161
9d00d428:	1040000e 	beqz	v0,9d00d464 <__push_int+0xc4>
9d00d42c:	24020090 	li	v0,144
9d00d430:	14a2ffe8 	bne	a1,v0,9d00d3d4 <__push_int+0x34>
9d00d434:	00000000 	nop
9d00d438:	8ce20000 	lw	v0,0(a3)
9d00d43c:	10c00028 	beqz	a2,9d00d4e0 <__push_int+0x140>
9d00d440:	24430004 	addiu	v1,v0,4
9d00d444:	ace30000 	sw	v1,0(a3)
9d00d448:	8c850004 	lw	a1,4(a0)
9d00d44c:	8c840000 	lw	a0,0(a0)
9d00d450:	8c420000 	lw	v0,0(v0)
9d00d454:	ac440000 	sw	a0,0(v0)
9d00d458:	ac450004 	sw	a1,4(v0)
9d00d45c:	03e00008 	jr	ra
9d00d460:	24020001 	li	v0,1
9d00d464:	240200c0 	li	v0,192
9d00d468:	50a20005 	beql	a1,v0,9d00d480 <__push_int+0xe0>
9d00d46c:	8ce20000 	lw	v0,0(a3)
9d00d470:	240200f0 	li	v0,240
9d00d474:	14a2ffd7 	bne	a1,v0,9d00d3d4 <__push_int+0x34>
9d00d478:	00000000 	nop
9d00d47c:	8ce20000 	lw	v0,0(a3)
9d00d480:	8c830000 	lw	v1,0(a0)
9d00d484:	24440004 	addiu	a0,v0,4
9d00d488:	ace40000 	sw	a0,0(a3)
9d00d48c:	8c420000 	lw	v0,0(v0)
9d00d490:	1000fff2 	b	9d00d45c <__push_int+0xbc>
9d00d494:	ac430000 	sw	v1,0(v0)
9d00d498:	8c830000 	lw	v1,0(a0)
9d00d49c:	24440004 	addiu	a0,v0,4
9d00d4a0:	ace40000 	sw	a0,0(a3)
9d00d4a4:	8c420000 	lw	v0,0(v0)
9d00d4a8:	a0430000 	sb	v1,0(v0)
9d00d4ac:	10c0ffd8 	beqz	a2,9d00d410 <__push_int+0x70>
9d00d4b0:	24020001 	li	v0,1
9d00d4b4:	03e00008 	jr	ra
9d00d4b8:	00000000 	nop
9d00d4bc:	8c830000 	lw	v1,0(a0)
9d00d4c0:	24440004 	addiu	a0,v0,4
9d00d4c4:	ace40000 	sw	a0,0(a3)
9d00d4c8:	8c420000 	lw	v0,0(v0)
9d00d4cc:	ac430000 	sw	v1,0(v0)
9d00d4d0:	10c0ffcf 	beqz	a2,9d00d410 <__push_int+0x70>
9d00d4d4:	24020001 	li	v0,1
9d00d4d8:	03e00008 	jr	ra
9d00d4dc:	00000000 	nop
9d00d4e0:	8c850004 	lw	a1,4(a0)
9d00d4e4:	8c840000 	lw	a0,0(a0)
9d00d4e8:	1000ffd9 	b	9d00d450 <__push_int+0xb0>
9d00d4ec:	ace30000 	sw	v1,0(a3)
9d00d4f0:	8c830000 	lw	v1,0(a0)
9d00d4f4:	24440004 	addiu	a0,v0,4
9d00d4f8:	ace40000 	sw	a0,0(a3)
9d00d4fc:	8c420000 	lw	v0,0(v0)
9d00d500:	ac430000 	sw	v1,0(v0)
9d00d504:	24020001 	li	v0,1
9d00d508:	03e00008 	jr	ra
9d00d50c:	00000000 	nop

Disassembly of section .text.libm:

9d00d510 <__mchp_ldexp>:
9d00d510:	00054840 00094d42 252cffff 2d8107fe     @H..BM....,%...-
9d00d520:	1020000f 00000000                       .. .....

9d00d528 <Clab1>:
9d00d528:	01264821 	addu	t1,t1,a2
9d00d52c:	252cffff 	addiu	t4,t1,-1
9d00d530:	2d8107fe 	sltiu	at,t4,2046
9d00d534:	10200021 	beqz	at,9d00d5bc <Cspec2>
9d00d538:	00000000 	nop
9d00d53c:	3c01800f 	lui	at,0x800f
9d00d540:	3421ffff 	ori	at,at,0xffff
9d00d544:	00a12824 	and	a1,a1,at
9d00d548:	00096500 	sll	t4,t1,0x14
9d00d54c:	00ac2825 	or	a1,a1,t4

9d00d550 <Cret>:
9d00d550:	00041025 	or	v0,zero,a0
9d00d554:	00051825 	or	v1,zero,a1

9d00d558 <C999>:
9d00d558:	03e00008 	jr	ra
9d00d55c:	00000000 	nop

9d00d560 <Cspec>:
9d00d560:	00056300 	sll	t4,a1,0xc
9d00d564:	01846025 	or	t4,t4,a0
9d00d568:	1180fff9 	beqz	t4,9d00d550 <Cret>
9d00d56c:	00000000 	nop
9d00d570:	11200004 	beqz	t1,9d00d584 <i9>
9d00d574:	00000000 	nop
9d00d578:	3c05fff8 	lui	a1,0xfff8
9d00d57c:	1000fff4 	b	9d00d550 <Cret>
9d00d580:	24040000 	li	a0,0

9d00d584 <i9>:
9d00d584:	25290001 	addiu	t1,t1,1
9d00d588:	3c018000 	lui	at,0x8000
9d00d58c:	00a15024 	and	t2,a1,at

9d00d590 <b10>:
9d00d590:	2529ffff 	addiu	t1,t1,-1
9d00d594:	0080602a 	slt	t4,a0,zero
9d00d598:	00842021 	addu	a0,a0,a0
9d00d59c:	00a52821 	addu	a1,a1,a1
9d00d5a0:	00ac2821 	addu	a1,a1,t4
9d00d5a4:	3c010010 	lui	at,0x10
9d00d5a8:	00a1082b 	sltu	at,a1,at
9d00d5ac:	1420fff8 	bnez	at,9d00d590 <b10>
9d00d5b0:	00000000 	nop
9d00d5b4:	1000ffdc 	b	9d00d528 <Clab1>
9d00d5b8:	00aa2825 	or	a1,a1,t2

9d00d5bc <Cspec2>:
9d00d5bc:	000542c0 	sll	t0,a1,0xb
9d00d5c0:	00046542 	srl	t4,a0,0x15
9d00d5c4:	010c4025 	or	t0,t0,t4
9d00d5c8:	00043ac0 	sll	a3,a0,0xb
9d00d5cc:	3c018000 	lui	at,0x8000
9d00d5d0:	01014025 	or	t0,t0,at
9d00d5d4:	3c018000 	lui	at,0x8000
9d00d5d8:	19200005 	blez	t1,9d00d5f0 <i11>
9d00d5dc:	00a12824 	and	a1,a1,at
9d00d5e0:	3c017ff0 	lui	at,0x7ff0
9d00d5e4:	00a12825 	or	a1,a1,at
9d00d5e8:	1000ffd9 	b	9d00d550 <Cret>
9d00d5ec:	24040000 	li	a0,0

9d00d5f0 <i11>:
9d00d5f0:	240a0001 	li	t2,1
9d00d5f4:	01495023 	subu	t2,t2,t1

9d00d5f8 <L13>:
9d00d5f8:	2d410020 	sltiu	at,t2,32
9d00d5fc:	14200007 	bnez	at,9d00d61c <L14>
9d00d600:	00000000 	nop
9d00d604:	214affe0 	addi	t2,t2,-32
9d00d608:	0007202b 	sltu	a0,zero,a3
9d00d60c:	1008000d 	beq	zero,t0,9d00d644 <L15>
9d00d610:	01043825 	or	a3,t0,a0
9d00d614:	1000fff8 	b	9d00d5f8 <L13>
9d00d618:	34080000 	li	t0,0x0

9d00d61c <L14>:
9d00d61c:	11400009 	beqz	t2,9d00d644 <L15>
9d00d620:	00000000 	nop
9d00d624:	000a5822 	neg	t3,t2
9d00d628:	01672004 	sllv	a0,a3,t3
9d00d62c:	01685804 	sllv	t3,t0,t3
9d00d630:	01473806 	srlv	a3,a3,t2
9d00d634:	01484006 	srlv	t0,t0,t2
9d00d638:	10800002 	beqz	a0,9d00d644 <L15>
9d00d63c:	01673825 	or	a3,t3,a3
9d00d640:	34e70002 	ori	a3,a3,0x2

9d00d644 <L15>:
9d00d644:	24e70400 	addiu	a3,a3,1024
9d00d648:	2cec0400 	sltiu	t4,a3,1024
9d00d64c:	010c4021 	addu	t0,t0,t4
9d00d650:	000762c2 	srl	t4,a3,0xb
9d00d654:	318c0001 	andi	t4,t4,0x1
9d00d658:	00ec3823 	subu	a3,a3,t4
9d00d65c:	000722c2 	srl	a0,a3,0xb
9d00d660:	00086540 	sll	t4,t0,0x15
9d00d664:	008c2025 	or	a0,a0,t4
9d00d668:	00086040 	sll	t4,t0,0x1
9d00d66c:	000c6302 	srl	t4,t4,0xc
9d00d670:	1000ffb7 	b	9d00d550 <Cret>
9d00d674:	00ac2825 	or	a1,a1,t4
9d00d678:	00000000 	nop

Disassembly of section .dinit:

9d00d67c <.dinit>:
9d00d67c:	a00000e8 	sb	zero,232(zero)
9d00d680:	000015e0 	0x15e0
9d00d684:	00000000 	nop
9d00d688:	a0000008 	sb	zero,8(zero)
9d00d68c:	0000001c 	0x1c
9d00d690:	00000000 	nop
9d00d694:	a0000000 	sb	zero,0(zero)
9d00d698:	00000004 	sllv	zero,zero,zero
9d00d69c:	00000001 	movf	zero,zero,$fcc0
9d00d6a0:	447a0000 	mfhc1	k0,$f0
9d00d6a4:	a0000024 	sb	zero,36(zero)
9d00d6a8:	00000060 	0x60
9d00d6ac:	00000001 	movf	zero,zero,$fcc0
9d00d6b0:	00000001 	movf	zero,zero,$fcc0
9d00d6b4:	00000003 	sra	zero,zero,0x0
	...
9d00d6cc:	9d00e898 	0x9d00e898
	...
9d00d6dc:	9d010464 	0x9d010464
9d00d6e0:	9d00f060 	0x9d00f060
	...
9d00d710:	a00016ec 	sb	zero,5868(zero)
9d00d714:	00000004 	sllv	zero,zero,zero
9d00d718:	00000000 	nop
9d00d71c:	a0000084 	sb	zero,132(zero)
9d00d720:	00000060 	0x60
9d00d724:	00000001 	movf	zero,zero,$fcc0
9d00d728:	00000001 	movf	zero,zero,$fcc0
9d00d72c:	00000003 	sra	zero,zero,0x0
	...
9d00d744:	9d00e898 	0x9d00e898
	...
9d00d754:	9d010464 	0x9d010464
9d00d758:	9d00f060 	0x9d00f060
	...
9d00d788:	a0000004 	sb	zero,4(zero)
9d00d78c:	00000004 	sllv	zero,zero,zero
9d00d790:	00000001 	movf	zero,zero,$fcc0
9d00d794:	00000002 	srl	zero,zero,0x0
9d00d798:	a00016f0 	sb	zero,5872(zero)
9d00d79c:	00000004 	sllv	zero,zero,zero
9d00d7a0:	00000000 	nop
9d00d7a4:	a00000e4 	sb	zero,228(zero)
9d00d7a8:	00000004 	sllv	zero,zero,zero
9d00d7ac:	00000001 	movf	zero,zero,$fcc0
9d00d7b0:	00000001 	movf	zero,zero,$fcc0
9d00d7b4:	a00016f4 	sb	zero,5876(zero)
9d00d7b8:	00000004 	sllv	zero,zero,zero
9d00d7bc:	00000000 	nop
9d00d7c0:	a00016c8 	sb	zero,5832(zero)
9d00d7c4:	00000024 	and	zero,zero,zero
	...
9d00d7d0:	66666666 	0x66666666
9d00d7d4:	66666666 	0x66666666
9d00d7d8:	66666666 	0x66666666

Disassembly of section .text._sbrk_init:

9d00d7dc <_sbrk_init>:
9d00d7dc:	27bdffd8 	addiu	sp,sp,-40
9d00d7e0:	afb40020 	sw	s4,32(sp)
9d00d7e4:	3c14a000 	lui	s4,0xa000
9d00d7e8:	8e8216e0 	lw	v0,5856(s4)
9d00d7ec:	afbf0024 	sw	ra,36(sp)
9d00d7f0:	afb3001c 	sw	s3,28(sp)
9d00d7f4:	afb20018 	sw	s2,24(sp)
9d00d7f8:	afb10014 	sw	s1,20(sp)
9d00d7fc:	1440003a 	bnez	v0,9d00d8e8 <_sbrk_init+0x10c>
9d00d800:	afb00010 	sw	s0,16(sp)
9d00d804:	3c12a000 	lui	s2,0xa000
9d00d808:	8e5116e8 	lw	s1,5864(s2)
9d00d80c:	16200003 	bnez	s1,9d00d81c <_sbrk_init+0x40>
9d00d810:	3c13a000 	lui	s3,0xa000
9d00d814:	3c11a000 	lui	s1,0xa000
9d00d818:	26311700 	addiu	s1,s1,5888
9d00d81c:	8e7016e4 	lw	s0,5860(s3)
9d00d820:	16000005 	bnez	s0,9d00d838 <_sbrk_init+0x5c>
9d00d824:	3c020000 	lui	v0,0x0
9d00d828:	3c10a000 	lui	s0,0xa000
9d00d82c:	26101700 	addiu	s0,s0,5888
9d00d830:	24420000 	addiu	v0,v0,0
9d00d834:	02028021 	addu	s0,s0,v0
9d00d838:	00111f82 	srl	v1,s1,0x1e
9d00d83c:	24020002 	li	v0,2
9d00d840:	50620001 	beql	v1,v0,9d00d848 <_sbrk_init+0x6c>
9d00d844:	7e31e000 	ext	s1,s1,0x0,0x1d
9d00d848:	00101f82 	srl	v1,s0,0x1e
9d00d84c:	24020002 	li	v0,2
9d00d850:	50620001 	beql	v1,v0,9d00d858 <_sbrk_init+0x7c>
9d00d854:	7e10e000 	ext	s0,s0,0x0,0x1d
9d00d858:	0f4040c9 	jal	9d010324 <_stub_sbd_memlayout>
9d00d85c:	00000000 	nop
9d00d860:	8c430000 	lw	v1,0(v0)
9d00d864:	8c420004 	lw	v0,4(v0)
9d00d868:	0223202b 	sltu	a0,s1,v1
9d00d86c:	14800004 	bnez	a0,9d00d880 <_sbrk_init+0xa4>
9d00d870:	00621021 	addu	v0,v1,v0
9d00d874:	0222202b 	sltu	a0,s1,v0
9d00d878:	54800029 	bnezl	a0,9d00d920 <_sbrk_init+0x144>
9d00d87c:	0211182b 	sltu	v1,s0,s1
9d00d880:	3c04a000 	lui	a0,0xa000
9d00d884:	24840024 	addiu	a0,a0,36
9d00d888:	7c84e000 	ext	a0,a0,0x0,0x1d
9d00d88c:	0064202b 	sltu	a0,v1,a0
9d00d890:	14800015 	bnez	a0,9d00d8e8 <_sbrk_init+0x10c>
9d00d894:	0203202b 	sltu	a0,s0,v1
9d00d898:	14800004 	bnez	a0,9d00d8ac <_sbrk_init+0xd0>
9d00d89c:	0062202b 	sltu	a0,v1,v0
9d00d8a0:	0202202b 	sltu	a0,s0,v0
9d00d8a4:	14800018 	bnez	a0,9d00d908 <_sbrk_init+0x12c>
9d00d8a8:	0062202b 	sltu	a0,v1,v0
9d00d8ac:	1080000f 	beqz	a0,9d00d8ec <_sbrk_init+0x110>
9d00d8b0:	8fbf0024 	lw	ra,36(sp)
9d00d8b4:	3c04a000 	lui	a0,0xa000
9d00d8b8:	24840024 	addiu	a0,a0,36
9d00d8bc:	00042742 	srl	a0,a0,0x1d
9d00d8c0:	24050005 	li	a1,5
9d00d8c4:	14850012 	bne	a0,a1,9d00d910 <_sbrk_init+0x134>
9d00d8c8:	24050004 	li	a1,4
9d00d8cc:	3c04a000 	lui	a0,0xa000
9d00d8d0:	00641825 	or	v1,v1,a0
9d00d8d4:	00441025 	or	v0,v0,a0
9d00d8d8:	ae4316e8 	sw	v1,5864(s2)
9d00d8dc:	ae6216e4 	sw	v0,5860(s3)
9d00d8e0:	8e4216e8 	lw	v0,5864(s2)
9d00d8e4:	ae8216e0 	sw	v0,5856(s4)
9d00d8e8:	8fbf0024 	lw	ra,36(sp)
9d00d8ec:	8fb40020 	lw	s4,32(sp)
9d00d8f0:	8fb3001c 	lw	s3,28(sp)
9d00d8f4:	8fb20018 	lw	s2,24(sp)
9d00d8f8:	8fb10014 	lw	s1,20(sp)
9d00d8fc:	8fb00010 	lw	s0,16(sp)
9d00d900:	03e00008 	jr	ra
9d00d904:	27bd0028 	addiu	sp,sp,40
9d00d908:	1000ffea 	b	9d00d8b4 <_sbrk_init+0xd8>
9d00d90c:	02001025 	move	v0,s0
9d00d910:	1085ffef 	beq	a0,a1,9d00d8d0 <_sbrk_init+0xf4>
9d00d914:	3c048000 	lui	a0,0x8000
9d00d918:	1000fff1 	b	9d00d8e0 <_sbrk_init+0x104>
9d00d91c:	ae4216e8 	sw	v0,5864(s2)
9d00d920:	1460ffe4 	bnez	v1,9d00d8b4 <_sbrk_init+0xd8>
9d00d924:	02201825 	move	v1,s1
9d00d928:	1000ffde 	b	9d00d8a4 <_sbrk_init+0xc8>
9d00d92c:	0202202b 	sltu	a0,s0,v0

Disassembly of section .text.__fmt_d:

9d00d930 <__fmt_d>:
9d00d930:	27bdffc0 	addiu	sp,sp,-64
9d00d934:	afb1002c 	sw	s1,44(sp)
9d00d938:	00808825 	move	s1,a0
9d00d93c:	00c02025 	move	a0,a2
9d00d940:	8c870004 	lw	a3,4(a0)
9d00d944:	8ca20000 	lw	v0,0(a1)
9d00d948:	afb40038 	sw	s4,56(sp)
9d00d94c:	0007a7c2 	srl	s4,a3,0x1f
9d00d950:	afb30034 	sw	s3,52(sp)
9d00d954:	afb20030 	sw	s2,48(sp)
9d00d958:	afb00028 	sw	s0,40(sp)
9d00d95c:	afbf003c 	sw	ra,60(sp)
9d00d960:	00a08025 	move	s0,a1
9d00d964:	8ca30004 	lw	v1,4(a1)
9d00d968:	8cb20008 	lw	s2,8(a1)
9d00d96c:	afa20020 	sw	v0,32(sp)
9d00d970:	8cb3000c 	lw	s3,12(a1)
9d00d974:	1280003e 	beqz	s4,9d00da70 <__fmt_d+0x140>
9d00d978:	8cc60000 	lw	a2,0(a2)
9d00d97c:	00063023 	negu	a2,a2
9d00d980:	0006202b 	sltu	a0,zero,a2
9d00d984:	00073823 	negu	a3,a3
9d00d988:	04600008 	bltz	v1,9d00d9ac <__fmt_d+0x7c>
9d00d98c:	00e43823 	subu	a3,a3,a0
9d00d990:	7c020844 	ins	v0,zero,0x1,0x1
9d00d994:	16800005 	bnez	s4,9d00d9ac <__fmt_d+0x7c>
9d00d998:	afa20020 	sw	v0,32(sp)
9d00d99c:	8fa20020 	lw	v0,32(sp)
9d00d9a0:	30430004 	andi	v1,v0,0x4
9d00d9a4:	1060002a 	beqz	v1,9d00da50 <__fmt_d+0x120>
9d00d9a8:	7c4200c0 	ext	v0,v0,0x3,0x1
9d00d9ac:	2642ffff 	addiu	v0,s2,-1
9d00d9b0:	27a30020 	addiu	v1,sp,32
9d00d9b4:	afa30018 	sw	v1,24(sp)
9d00d9b8:	2403000a 	li	v1,10
9d00d9bc:	afa30014 	sw	v1,20(sp)
9d00d9c0:	afa20010 	sw	v0,16(sp)
9d00d9c4:	0f4036a0 	jal	9d00da80 <__cvt_u>
9d00d9c8:	02002025 	move	a0,s0
9d00d9cc:	16800006 	bnez	s4,9d00d9e8 <__fmt_d+0xb8>
9d00d9d0:	2403002d 	li	v1,45
9d00d9d4:	8fa30020 	lw	v1,32(sp)
9d00d9d8:	30640004 	andi	a0,v1,0x4
9d00d9dc:	1080001e 	beqz	a0,9d00da58 <__fmt_d+0x128>
9d00d9e0:	30630008 	andi	v1,v1,0x8
9d00d9e4:	2403002b 	li	v1,43
9d00d9e8:	2442ffff 	addiu	v0,v0,-1
9d00d9ec:	02622021 	addu	a0,s3,v0
9d00d9f0:	a0830000 	sb	v1,0(a0)
9d00d9f4:	8e060010 	lw	a2,16(s0)
9d00d9f8:	8fa30020 	lw	v1,32(sp)
9d00d9fc:	02403825 	move	a3,s2
9d00da00:	24c6ffff 	addiu	a2,a2,-1
9d00da04:	afa30010 	sw	v1,16(sp)
9d00da08:	00c23023 	subu	a2,a2,v0
9d00da0c:	02622821 	addu	a1,s3,v0
9d00da10:	0f403864 	jal	9d00e190 <__pad>
9d00da14:	02202025 	move	a0,s1
9d00da18:	8e230004 	lw	v1,4(s1)
9d00da1c:	30630100 	andi	v1,v1,0x100
9d00da20:	10600004 	beqz	v1,9d00da34 <__fmt_d+0x104>
9d00da24:	8fbf003c 	lw	ra,60(sp)
9d00da28:	8e030004 	lw	v1,4(s0)
9d00da2c:	0043202a 	slt	a0,v0,v1
9d00da30:	0064100b 	movn	v0,v1,a0
9d00da34:	8fb40038 	lw	s4,56(sp)
9d00da38:	8fb30034 	lw	s3,52(sp)
9d00da3c:	8fb20030 	lw	s2,48(sp)
9d00da40:	8fb1002c 	lw	s1,44(sp)
9d00da44:	8fb00028 	lw	s0,40(sp)
9d00da48:	03e00008 	jr	ra
9d00da4c:	27bd0040 	addiu	sp,sp,64
9d00da50:	1000ffd7 	b	9d00d9b0 <__fmt_d+0x80>
9d00da54:	02421023 	subu	v0,s2,v0
9d00da58:	1060ffe6 	beqz	v1,9d00d9f4 <__fmt_d+0xc4>
9d00da5c:	24040020 	li	a0,32
9d00da60:	2442ffff 	addiu	v0,v0,-1
9d00da64:	02621821 	addu	v1,s3,v0
9d00da68:	1000ffe2 	b	9d00d9f4 <__fmt_d+0xc4>
9d00da6c:	a0640000 	sb	a0,0(v1)
9d00da70:	0463ffc8 	bgezl	v1,9d00d994 <__fmt_d+0x64>
9d00da74:	7c020844 	ins	v0,zero,0x1,0x1
9d00da78:	1000ffc9 	b	9d00d9a0 <__fmt_d+0x70>
9d00da7c:	8fa20020 	lw	v0,32(sp)

Disassembly of section .text.__cvt_u:

9d00da80 <__cvt_u>:
9d00da80:	8c820004 	lw	v0,4(a0)
9d00da84:	27bdffc0 	addiu	sp,sp,-64
9d00da88:	afbe0038 	sw	s8,56(sp)
9d00da8c:	afb40028 	sw	s4,40(sp)
9d00da90:	afb20020 	sw	s2,32(sp)
9d00da94:	afb1001c 	sw	s1,28(sp)
9d00da98:	afbf003c 	sw	ra,60(sp)
9d00da9c:	afb70034 	sw	s7,52(sp)
9d00daa0:	afb60030 	sw	s6,48(sp)
9d00daa4:	afb5002c 	sw	s5,44(sp)
9d00daa8:	afb30024 	sw	s3,36(sp)
9d00daac:	afb00018 	sw	s0,24(sp)
9d00dab0:	00c08825 	move	s1,a2
9d00dab4:	00e09025 	move	s2,a3
9d00dab8:	8fb40054 	lw	s4,84(sp)
9d00dabc:	04410002 	bgez	v0,9d00dac8 <__cvt_u+0x48>
9d00dac0:	8fbe0058 	lw	s8,88(sp)
9d00dac4:	24020001 	li	v0,1
9d00dac8:	8c900010 	lw	s0,16(a0)
9d00dacc:	8c95000c 	lw	s5,12(a0)
9d00dad0:	8fd70000 	lw	s7,0(s8)
9d00dad4:	8fb30050 	lw	s3,80(sp)
9d00dad8:	2610ffff 	addiu	s0,s0,-1
9d00dadc:	02b01821 	addu	v1,s5,s0
9d00dae0:	a0600000 	sb	zero,0(v1)
9d00dae4:	24090001 	li	t1,1
9d00dae8:	00534023 	subu	t0,v0,s3
9d00daec:	32f70002 	andi	s7,s7,0x2
9d00daf0:	0014b7c3 	sra	s6,s4,0x1f
9d00daf4:	1e000010 	bgtz	s0,9d00db38 <__cvt_u+0xb8>
9d00daf8:	02321025 	or	v0,s1,s2
9d00dafc:	5120002c 	beqzl	t1,9d00dbb0 <__cvt_u+0x130>
9d00db00:	8fc20000 	lw	v0,0(s8)
9d00db04:	8fbf003c 	lw	ra,60(sp)
9d00db08:	02001025 	move	v0,s0
9d00db0c:	8fbe0038 	lw	s8,56(sp)
9d00db10:	8fb70034 	lw	s7,52(sp)
9d00db14:	8fb60030 	lw	s6,48(sp)
9d00db18:	8fb5002c 	lw	s5,44(sp)
9d00db1c:	8fb40028 	lw	s4,40(sp)
9d00db20:	8fb30024 	lw	s3,36(sp)
9d00db24:	8fb20020 	lw	s2,32(sp)
9d00db28:	8fb1001c 	lw	s1,28(sp)
9d00db2c:	8fb00018 	lw	s0,24(sp)
9d00db30:	03e00008 	jr	ra
9d00db34:	27bd0040 	addiu	sp,sp,64
9d00db38:	14400007 	bnez	v0,9d00db58 <__cvt_u+0xd8>
9d00db3c:	01131021 	addu	v0,t0,s3
9d00db40:	1c400006 	bgtz	v0,9d00db5c <__cvt_u+0xdc>
9d00db44:	02202025 	move	a0,s1
9d00db48:	1a60ffec 	blez	s3,9d00dafc <__cvt_u+0x7c>
9d00db4c:	00000000 	nop
9d00db50:	12e0ffea 	beqz	s7,9d00dafc <__cvt_u+0x7c>
9d00db54:	00000000 	nop
9d00db58:	02202025 	move	a0,s1
9d00db5c:	02402825 	move	a1,s2
9d00db60:	02803025 	move	a2,s4
9d00db64:	02c03825 	move	a3,s6
9d00db68:	afa80014 	sw	t0,20(sp)
9d00db6c:	0f402fff 	jal	9d00bffc <__umoddi3>
9d00db70:	2610ffff 	addiu	s0,s0,-1
9d00db74:	afa20010 	sw	v0,16(sp)
9d00db78:	02b01821 	addu	v1,s5,s0
9d00db7c:	24420030 	addiu	v0,v0,48
9d00db80:	02202025 	move	a0,s1
9d00db84:	02402825 	move	a1,s2
9d00db88:	a0620000 	sb	v0,0(v1)
9d00db8c:	02803025 	move	a2,s4
9d00db90:	0f402f10 	jal	9d00bc40 <__udivdi3>
9d00db94:	02c03825 	move	a3,s6
9d00db98:	2673ffff 	addiu	s3,s3,-1
9d00db9c:	00408825 	move	s1,v0
9d00dba0:	00609025 	move	s2,v1
9d00dba4:	8fa80014 	lw	t0,20(sp)
9d00dba8:	1000ffd2 	b	9d00daf4 <__cvt_u+0x74>
9d00dbac:	8fa90010 	lw	t1,16(sp)
9d00dbb0:	7c022104 	ins	v0,zero,0x4,0x1
9d00dbb4:	1000ffd3 	b	9d00db04 <__cvt_u+0x84>
9d00dbb8:	afc20000 	sw	v0,0(s8)

Disassembly of section .text.read:

9d00dbbc <read>:
9d00dbbc:	50a0004a 	beqzl	a1,9d00dce8 <read+0x12c>
9d00dbc0:	00002025 	move	a0,zero
9d00dbc4:	50c00048 	beqzl	a2,9d00dce8 <read+0x12c>
9d00dbc8:	00002025 	move	a0,zero
9d00dbcc:	27bdffe0 	addiu	sp,sp,-32
9d00dbd0:	afb10014 	sw	s1,20(sp)
9d00dbd4:	afbf001c 	sw	ra,28(sp)
9d00dbd8:	afb20018 	sw	s2,24(sp)
9d00dbdc:	afb00010 	sw	s0,16(sp)
9d00dbe0:	1480000b 	bnez	a0,9d00dc10 <read+0x54>
9d00dbe4:	00c08825 	move	s1,a2
9d00dbe8:	3c020000 	lui	v0,0x0
9d00dbec:	24420000 	addiu	v0,v0,0
9d00dbf0:	1040000f 	beqz	v0,9d00dc30 <read+0x74>
9d00dbf4:	00a08025 	move	s0,a1
9d00dbf8:	00a69021 	addu	s2,a1,a2
9d00dbfc:	0c000000 	jal	90000000 <_bmxdudba_address+0x8fff0000>
9d00dc00:	24040001 	li	a0,1
9d00dc04:	26100001 	addiu	s0,s0,1
9d00dc08:	1650fffc 	bne	s2,s0,9d00dbfc <read+0x40>
9d00dc0c:	a202ffff 	sb	v0,-1(s0)
9d00dc10:	02202025 	move	a0,s1
9d00dc14:	8fbf001c 	lw	ra,28(sp)
9d00dc18:	00801025 	move	v0,a0
9d00dc1c:	8fb20018 	lw	s2,24(sp)
9d00dc20:	8fb10014 	lw	s1,20(sp)
9d00dc24:	8fb00010 	lw	s0,16(sp)
9d00dc28:	03e00008 	jr	ra
9d00dc2c:	27bd0020 	addiu	sp,sp,32
9d00dc30:	3c03bf80 	lui	v1,0xbf80
9d00dc34:	24626010 	addiu	v0,v1,24592
9d00dc38:	1040fff6 	beqz	v0,9d00dc14 <read+0x58>
9d00dc3c:	3c03a000 	lui	v1,0xa000
9d00dc40:	8c640004 	lw	a0,4(v1)
9d00dc44:	24030002 	li	v1,2
9d00dc48:	1083001d 	beq	a0,v1,9d00dcc0 <read+0x104>
9d00dc4c:	3c03bf80 	lui	v1,0xbf80
9d00dc50:	3c03bf80 	lui	v1,0xbf80
9d00dc54:	8c646000 	lw	a0,24576(v1)
9d00dc58:	3c03bf80 	lui	v1,0xbf80
9d00dc5c:	24636030 	addiu	v1,v1,24624
9d00dc60:	30848000 	andi	a0,a0,0x8000
9d00dc64:	14800003 	bnez	a0,9d00dc74 <read+0xb8>
9d00dc68:	3c04bf80 	lui	a0,0xbf80
9d00dc6c:	34058000 	li	a1,0x8000
9d00dc70:	ac856008 	sw	a1,24584(a0)
9d00dc74:	02202025 	move	a0,s1
9d00dc78:	240500a1 	li	a1,161
9d00dc7c:	8c460000 	lw	a2,0(v0)
9d00dc80:	30c60001 	andi	a2,a2,0x1
9d00dc84:	14c00003 	bnez	a2,9d00dc94 <read+0xd8>
9d00dc88:	24a5ffff 	addiu	a1,a1,-1
9d00dc8c:	14a0fffb 	bnez	a1,9d00dc7c <read+0xc0>
9d00dc90:	00000000 	nop
9d00dc94:	8c450000 	lw	a1,0(v0)
9d00dc98:	30a50001 	andi	a1,a1,0x1
9d00dc9c:	54a0ffdc 	bnezl	a1,9d00dc10 <read+0x54>
9d00dca0:	02248823 	subu	s1,s1,a0
9d00dca4:	8c650000 	lw	a1,0(v1)
9d00dca8:	26100001 	addiu	s0,s0,1
9d00dcac:	2484ffff 	addiu	a0,a0,-1
9d00dcb0:	1480fff1 	bnez	a0,9d00dc78 <read+0xbc>
9d00dcb4:	a205ffff 	sb	a1,-1(s0)
9d00dcb8:	1000ffd5 	b	9d00dc10 <read+0x54>
9d00dcbc:	02248823 	subu	s1,s1,a0
9d00dcc0:	24636240 	addiu	v1,v1,25152
9d00dcc4:	5060ffe3 	beqzl	v1,9d00dc54 <read+0x98>
9d00dcc8:	3c03bf80 	lui	v1,0xbf80
9d00dccc:	3c02bf80 	lui	v0,0xbf80
9d00dcd0:	8c446200 	lw	a0,25088(v0)
9d00dcd4:	3c03bf80 	lui	v1,0xbf80
9d00dcd8:	3c02bf80 	lui	v0,0xbf80
9d00dcdc:	24636230 	addiu	v1,v1,25136
9d00dce0:	1000ffdf 	b	9d00dc60 <read+0xa4>
9d00dce4:	24426210 	addiu	v0,v0,25104
9d00dce8:	03e00008 	jr	ra
9d00dcec:	00801025 	move	v0,a0

Disassembly of section .text.dpcmp:

9d00dcf0 <__eqdf2>:
9d00dcf0:	2409fffe 00055040 00075840 01645825     ...$@P..@X..%Xd.
9d00dd00:	01665825 014b5025 15400003 00000000     %Xf.%PK...@.....
9d00dd10:	1000003c 24020000                       <......$

9d00dd18 <i56>:
9d00dd18:	10800002 	beqz	a0,9d00dd24 <i57>
9d00dd1c:	00054040 	sll	t0,a1,0x1
9d00dd20:	25080001 	addiu	t0,t0,1

9d00dd24 <i57>:
9d00dd24:	3c01ffe0 	lui	at,0xffe0
9d00dd28:	34210001 	ori	at,at,0x1
9d00dd2c:	0101082b 	sltu	at,t0,at
9d00dd30:	10200037 	beqz	at,9d00de10 <Lnan>
9d00dd34:	00000000 	nop
9d00dd38:	10c00002 	beqz	a2,9d00dd44 <i58>
9d00dd3c:	00074040 	sll	t0,a3,0x1
9d00dd40:	25080001 	addiu	t0,t0,1

9d00dd44 <i58>:
9d00dd44:	3c01ffe0 	lui	at,0xffe0
9d00dd48:	34210001 	ori	at,at,0x1
9d00dd4c:	0101082b 	sltu	at,t0,at
9d00dd50:	1020002f 	beqz	at,9d00de10 <Lnan>
9d00dd54:	00000000 	nop
9d00dd58:	04a10016 	bgez	a1,9d00ddb4 <i59>
9d00dd5c:	00000000 	nop
9d00dd60:	04e00003 	bltz	a3,9d00dd70 <i60>
9d00dd64:	00000000 	nop
9d00dd68:	10000026 	b	9d00de04 <L999>
9d00dd6c:	2402ffff 	li	v0,-1

9d00dd70 <i60>:
9d00dd70:	0086502b 	sltu	t2,a0,a2
9d00dd74:	00862023 	subu	a0,a0,a2
9d00dd78:	00aa582b 	sltu	t3,a1,t2
9d00dd7c:	00aa2823 	subu	a1,a1,t2
9d00dd80:	00a7502b 	sltu	t2,a1,a3
9d00dd84:	014b5025 	or	t2,t2,t3
9d00dd88:	11400003 	beqz	t2,9d00dd98 <i61>
9d00dd8c:	00a72823 	subu	a1,a1,a3
9d00dd90:	1000001c 	b	9d00de04 <L999>
9d00dd94:	24020001 	li	v0,1

9d00dd98 <i61>:
9d00dd98:	00a45025 	or	t2,a1,a0
9d00dd9c:	11400003 	beqz	t2,9d00ddac <i62>
9d00dda0:	00000000 	nop
9d00dda4:	10000017 	b	9d00de04 <L999>
9d00dda8:	2402ffff 	li	v0,-1

9d00ddac <i62>:
9d00ddac:	10000015 	b	9d00de04 <L999>
9d00ddb0:	24020000 	li	v0,0

9d00ddb4 <i59>:
9d00ddb4:	04e10003 	bgez	a3,9d00ddc4 <i63>
9d00ddb8:	00000000 	nop
9d00ddbc:	10000011 	b	9d00de04 <L999>
9d00ddc0:	24020001 	li	v0,1

9d00ddc4 <i63>:
9d00ddc4:	0086502b 	sltu	t2,a0,a2
9d00ddc8:	00862023 	subu	a0,a0,a2
9d00ddcc:	00aa582b 	sltu	t3,a1,t2
9d00ddd0:	00aa2823 	subu	a1,a1,t2
9d00ddd4:	00a7502b 	sltu	t2,a1,a3
9d00ddd8:	014b5025 	or	t2,t2,t3
9d00dddc:	11400003 	beqz	t2,9d00ddec <i64>
9d00dde0:	00a72823 	subu	a1,a1,a3
9d00dde4:	10000007 	b	9d00de04 <L999>
9d00dde8:	2402ffff 	li	v0,-1

9d00ddec <i64>:
9d00ddec:	00a45025 	or	t2,a1,a0
9d00ddf0:	11400003 	beqz	t2,9d00de00 <i65>
9d00ddf4:	00000000 	nop
9d00ddf8:	10000002 	b	9d00de04 <L999>
9d00ddfc:	24020001 	li	v0,1

9d00de00 <i65>:
9d00de00:	24020000 	li	v0,0

9d00de04 <L999>:
9d00de04:	03e00008 	jr	ra
9d00de08:	00000000 	nop
9d00de0c:	00000000 	nop

9d00de10 <Lnan>:
9d00de10:	1000fffc 	b	9d00de04 <L999>
9d00de14:	00091025 	or	v0,zero,t1
9d00de18:	00000000 	nop

Disassembly of section .text.dfcmplt:

9d00de1c <dpcmplt>:
9d00de1c:	2409fffe 	li	t1,-2
9d00de20:	00055040 	sll	t2,a1,0x1
9d00de24:	00075840 	sll	t3,a3,0x1
9d00de28:	01645825 	or	t3,t3,a0
9d00de2c:	01665825 	or	t3,t3,a2
9d00de30:	014b5025 	or	t2,t2,t3
9d00de34:	15400003 	bnez	t2,9d00de44 <dpcmplt+0x28>
9d00de38:	00000000 	nop
9d00de3c:	1000003c 	b	9d00df30 <dpcmplt+0x114>
9d00de40:	24020000 	li	v0,0
9d00de44:	10800002 	beqz	a0,9d00de50 <dpcmplt+0x34>
9d00de48:	00054040 	sll	t0,a1,0x1
9d00de4c:	25080001 	addiu	t0,t0,1
9d00de50:	3c01ffe0 	lui	at,0xffe0
9d00de54:	34210001 	ori	at,at,0x1
9d00de58:	0101082b 	sltu	at,t0,at
9d00de5c:	10200037 	beqz	at,9d00df3c <dpcmplt+0x120>
9d00de60:	00000000 	nop
9d00de64:	10c00002 	beqz	a2,9d00de70 <dpcmplt+0x54>
9d00de68:	00074040 	sll	t0,a3,0x1
9d00de6c:	25080001 	addiu	t0,t0,1
9d00de70:	3c01ffe0 	lui	at,0xffe0
9d00de74:	34210001 	ori	at,at,0x1
9d00de78:	0101082b 	sltu	at,t0,at
9d00de7c:	1020002f 	beqz	at,9d00df3c <dpcmplt+0x120>
9d00de80:	00000000 	nop
9d00de84:	04a10016 	bgez	a1,9d00dee0 <dpcmplt+0xc4>
9d00de88:	00000000 	nop
9d00de8c:	04e00003 	bltz	a3,9d00de9c <dpcmplt+0x80>
9d00de90:	00000000 	nop
9d00de94:	10000026 	b	9d00df30 <dpcmplt+0x114>
9d00de98:	2402ffff 	li	v0,-1
9d00de9c:	0086502b 	sltu	t2,a0,a2
9d00dea0:	00862023 	subu	a0,a0,a2
9d00dea4:	00aa582b 	sltu	t3,a1,t2
9d00dea8:	00aa2823 	subu	a1,a1,t2
9d00deac:	00a7502b 	sltu	t2,a1,a3
9d00deb0:	014b5025 	or	t2,t2,t3
9d00deb4:	11400003 	beqz	t2,9d00dec4 <dpcmplt+0xa8>
9d00deb8:	00a72823 	subu	a1,a1,a3
9d00debc:	1000001c 	b	9d00df30 <dpcmplt+0x114>
9d00dec0:	24020001 	li	v0,1
9d00dec4:	00a45025 	or	t2,a1,a0
9d00dec8:	11400003 	beqz	t2,9d00ded8 <dpcmplt+0xbc>
9d00decc:	00000000 	nop
9d00ded0:	10000017 	b	9d00df30 <dpcmplt+0x114>
9d00ded4:	2402ffff 	li	v0,-1
9d00ded8:	10000015 	b	9d00df30 <dpcmplt+0x114>
9d00dedc:	24020000 	li	v0,0
9d00dee0:	04e10003 	bgez	a3,9d00def0 <dpcmplt+0xd4>
9d00dee4:	00000000 	nop
9d00dee8:	10000011 	b	9d00df30 <dpcmplt+0x114>
9d00deec:	24020001 	li	v0,1
9d00def0:	0086502b 	sltu	t2,a0,a2
9d00def4:	00862023 	subu	a0,a0,a2
9d00def8:	00aa582b 	sltu	t3,a1,t2
9d00defc:	00aa2823 	subu	a1,a1,t2
9d00df00:	00a7502b 	sltu	t2,a1,a3
9d00df04:	014b5025 	or	t2,t2,t3
9d00df08:	11400003 	beqz	t2,9d00df18 <dpcmplt+0xfc>
9d00df0c:	00a72823 	subu	a1,a1,a3
9d00df10:	10000007 	b	9d00df30 <dpcmplt+0x114>
9d00df14:	2402ffff 	li	v0,-1
9d00df18:	00a45025 	or	t2,a1,a0
9d00df1c:	11400003 	beqz	t2,9d00df2c <dpcmplt+0x110>
9d00df20:	00000000 	nop
9d00df24:	10000002 	b	9d00df30 <dpcmplt+0x114>
9d00df28:	24020001 	li	v0,1
9d00df2c:	24020000 	li	v0,0
9d00df30:	03e00008 	jr	ra
9d00df34:	00000000 	nop
9d00df38:	00000000 	nop
9d00df3c:	1000fffc 	b	9d00df30 <dpcmplt+0x114>
9d00df40:	34020001 	li	v0,0x1
9d00df44:	00000000 	nop

Disassembly of section .text._mon_putc:

9d00df48 <_mon_putc>:
9d00df48:	3c02a000 	lui	v0,0xa000
9d00df4c:	8c430004 	lw	v1,4(v0)
9d00df50:	14600013 	bnez	v1,9d00dfa0 <_mon_putc+0x58>
9d00df54:	00803025 	move	a2,a0
9d00df58:	3c020000 	lui	v0,0x0
9d00df5c:	27bdffe8 	addiu	sp,sp,-24
9d00df60:	24420000 	addiu	v0,v0,0
9d00df64:	10400006 	beqz	v0,9d00df80 <_mon_putc+0x38>
9d00df68:	afbf0014 	sw	ra,20(sp)
9d00df6c:	0c000000 	jal	90000000 <_bmxdudba_address+0x8fff0000>
9d00df70:	00000000 	nop
9d00df74:	8fbf0014 	lw	ra,20(sp)
9d00df78:	03e00008 	jr	ra
9d00df7c:	27bd0018 	addiu	sp,sp,24
9d00df80:	3c020000 	lui	v0,0x0
9d00df84:	24420000 	addiu	v0,v0,0
9d00df88:	10400025 	beqz	v0,9d00e020 <_mon_putc+0xd8>
9d00df8c:	3c05bf80 	lui	a1,0xbf80
9d00df90:	0c000000 	jal	90000000 <_bmxdudba_address+0x8fff0000>
9d00df94:	00000000 	nop
9d00df98:	1000fff7 	b	9d00df78 <_mon_putc+0x30>
9d00df9c:	8fbf0014 	lw	ra,20(sp)
9d00dfa0:	3c02bf80 	lui	v0,0xbf80
9d00dfa4:	24426010 	addiu	v0,v0,24592
9d00dfa8:	1040002f 	beqz	v0,9d00e068 <_mon_putc+0x120>
9d00dfac:	00000000 	nop
9d00dfb0:	24040001 	li	a0,1
9d00dfb4:	14640012 	bne	v1,a0,9d00e000 <_mon_putc+0xb8>
9d00dfb8:	3c03bf80 	lui	v1,0xbf80
9d00dfbc:	3c03bf80 	lui	v1,0xbf80
9d00dfc0:	3c04bf80 	lui	a0,0xbf80
9d00dfc4:	3c05bf80 	lui	a1,0xbf80
9d00dfc8:	24636020 	addiu	v1,v1,24608
9d00dfcc:	24846018 	addiu	a0,a0,24600
9d00dfd0:	24a56008 	addiu	a1,a1,24584
9d00dfd4:	34078000 	li	a3,0x8000
9d00dfd8:	aca70000 	sw	a3,0(a1)
9d00dfdc:	24050400 	li	a1,1024
9d00dfe0:	ac850000 	sw	a1,0(a0)
9d00dfe4:	8c440000 	lw	a0,0(v0)
9d00dfe8:	30840100 	andi	a0,a0,0x100
9d00dfec:	1080fffd 	beqz	a0,9d00dfe4 <_mon_putc+0x9c>
9d00dff0:	00000000 	nop
9d00dff4:	ac660000 	sw	a2,0(v1)
9d00dff8:	03e00008 	jr	ra
9d00dffc:	00000000 	nop
9d00e000:	3c04bf80 	lui	a0,0xbf80
9d00e004:	3c05bf80 	lui	a1,0xbf80
9d00e008:	3c02bf80 	lui	v0,0xbf80
9d00e00c:	24636220 	addiu	v1,v1,25120
9d00e010:	24846218 	addiu	a0,a0,25112
9d00e014:	24a56208 	addiu	a1,a1,25096
9d00e018:	1000ffee 	b	9d00dfd4 <_mon_putc+0x8c>
9d00e01c:	24426210 	addiu	v0,v0,25104
9d00e020:	24a56208 	addiu	a1,a1,25096
9d00e024:	3c04bf80 	lui	a0,0xbf80
9d00e028:	34078000 	li	a3,0x8000
9d00e02c:	aca70000 	sw	a3,0(a1)
9d00e030:	3c03bf80 	lui	v1,0xbf80
9d00e034:	24846218 	addiu	a0,a0,25112
9d00e038:	3c02bf80 	lui	v0,0xbf80
9d00e03c:	24050400 	li	a1,1024
9d00e040:	24636220 	addiu	v1,v1,25120
9d00e044:	24426210 	addiu	v0,v0,25104
9d00e048:	ac850000 	sw	a1,0(a0)
9d00e04c:	8c440000 	lw	a0,0(v0)
9d00e050:	30840100 	andi	a0,a0,0x100
9d00e054:	1080fffd 	beqz	a0,9d00e04c <_mon_putc+0x104>
9d00e058:	00000000 	nop
9d00e05c:	ac660000 	sw	a2,0(v1)
9d00e060:	1000ffc5 	b	9d00df78 <_mon_putc+0x30>
9d00e064:	8fbf0014 	lw	ra,20(sp)
9d00e068:	03e00008 	jr	ra
9d00e06c:	00000000 	nop

Disassembly of section .text.logbl:

9d00e070 <logbl>:
9d00e070:	27bdffe0 	addiu	sp,sp,-32
9d00e074:	afa50024 	sw	a1,36(sp)
9d00e078:	afb20018 	sw	s2,24(sp)
9d00e07c:	87b20026 	lh	s2,38(sp)
9d00e080:	24037ff0 	li	v1,32752
9d00e084:	afbf001c 	sw	ra,28(sp)
9d00e088:	32427ff0 	andi	v0,s2,0x7ff0
9d00e08c:	afb10014 	sw	s1,20(sp)
9d00e090:	afb00010 	sw	s0,16(sp)
9d00e094:	10430021 	beq	v0,v1,9d00e11c <logbl+0xac>
9d00e098:	afa40020 	sw	a0,32(sp)
9d00e09c:	14400012 	bnez	v0,9d00e0e8 <logbl+0x78>
9d00e0a0:	00003025 	move	a2,zero
9d00e0a4:	0f40373c 	jal	9d00dcf0 <__eqdf2>
9d00e0a8:	00003825 	move	a3,zero
9d00e0ac:	1440002e 	bnez	v0,9d00e168 <logbl+0xf8>
9d00e0b0:	3c029d00 	lui	v0,0x9d00
9d00e0b4:	3c02a000 	lui	v0,0xa000
9d00e0b8:	24030021 	li	v1,33
9d00e0bc:	00008025 	move	s0,zero
9d00e0c0:	3c11ffc0 	lui	s1,0xffc0
9d00e0c4:	ac4316f0 	sw	v1,5872(v0)
9d00e0c8:	8fbf001c 	lw	ra,28(sp)
9d00e0cc:	02001025 	move	v0,s0
9d00e0d0:	02201825 	move	v1,s1
9d00e0d4:	8fb20018 	lw	s2,24(sp)
9d00e0d8:	8fb10014 	lw	s1,20(sp)
9d00e0dc:	8fb00010 	lw	s0,16(sp)
9d00e0e0:	03e00008 	jr	ra
9d00e0e4:	27bd0020 	addiu	sp,sp,32
9d00e0e8:	00022103 	sra	a0,v0,0x4
9d00e0ec:	0f403df0 	jal	9d00f7c0 <__floatsidf>
9d00e0f0:	2484fc01 	addiu	a0,a0,-1023
9d00e0f4:	8fbf001c 	lw	ra,28(sp)
9d00e0f8:	00408025 	move	s0,v0
9d00e0fc:	00608825 	move	s1,v1
9d00e100:	02001025 	move	v0,s0
9d00e104:	02201825 	move	v1,s1
9d00e108:	8fb20018 	lw	s2,24(sp)
9d00e10c:	8fb10014 	lw	s1,20(sp)
9d00e110:	8fb00010 	lw	s0,16(sp)
9d00e114:	03e00008 	jr	ra
9d00e118:	27bd0020 	addiu	sp,sp,32
9d00e11c:	00803025 	move	a2,a0
9d00e120:	00a03825 	move	a3,a1
9d00e124:	00808025 	move	s0,a0
9d00e128:	0f40373c 	jal	9d00dcf0 <__eqdf2>
9d00e12c:	00a08825 	move	s1,a1
9d00e130:	1440ffe6 	bnez	v0,9d00e0cc <logbl+0x5c>
9d00e134:	8fbf001c 	lw	ra,28(sp)
9d00e138:	32527fff 	andi	s2,s2,0x7fff
9d00e13c:	a7b20026 	sh	s2,38(sp)
9d00e140:	8fb00020 	lw	s0,32(sp)
9d00e144:	8fb10024 	lw	s1,36(sp)
9d00e148:	8fbf001c 	lw	ra,28(sp)
9d00e14c:	02001025 	move	v0,s0
9d00e150:	02201825 	move	v1,s1
9d00e154:	8fb20018 	lw	s2,24(sp)
9d00e158:	8fb10014 	lw	s1,20(sp)
9d00e15c:	8fb00010 	lw	s0,16(sp)
9d00e160:	03e00008 	jr	ra
9d00e164:	27bd0020 	addiu	sp,sp,32
9d00e168:	8c51754c 	lw	s1,30028(v0)
9d00e16c:	8c507548 	lw	s0,30024(v0)
9d00e170:	8fbf001c 	lw	ra,28(sp)
9d00e174:	02201825 	move	v1,s1
9d00e178:	02001025 	move	v0,s0
9d00e17c:	8fb20018 	lw	s2,24(sp)
9d00e180:	8fb10014 	lw	s1,20(sp)
9d00e184:	8fb00010 	lw	s0,16(sp)
9d00e188:	03e00008 	jr	ra
9d00e18c:	27bd0020 	addiu	sp,sp,32

Disassembly of section .text.__pad:

9d00e190 <__pad>:
9d00e190:	27bdffc0 	addiu	sp,sp,-64
9d00e194:	afb3002c 	sw	s3,44(sp)
9d00e198:	8fb30050 	lw	s3,80(sp)
9d00e19c:	afb60038 	sw	s6,56(sp)
9d00e1a0:	afb40030 	sw	s4,48(sp)
9d00e1a4:	32730001 	andi	s3,s3,0x1
9d00e1a8:	afb20028 	sw	s2,40(sp)
9d00e1ac:	afb10024 	sw	s1,36(sp)
9d00e1b0:	afb00020 	sw	s0,32(sp)
9d00e1b4:	afbf003c 	sw	ra,60(sp)
9d00e1b8:	afb50034 	sw	s5,52(sp)
9d00e1bc:	00809025 	move	s2,a0
9d00e1c0:	00a0b025 	move	s6,a1
9d00e1c4:	00c08025 	move	s0,a2
9d00e1c8:	00e08825 	move	s1,a3
9d00e1cc:	16600003 	bnez	s3,9d00e1dc <__pad+0x4c>
9d00e1d0:	00c7a02b 	sltu	s4,a2,a3
9d00e1d4:	56800013 	bnezl	s4,9d00e224 <__pad+0x94>
9d00e1d8:	0230a023 	subu	s4,s1,s0
9d00e1dc:	02003025 	move	a2,s0
9d00e1e0:	02c02825 	move	a1,s6
9d00e1e4:	0f403c62 	jal	9d00f188 <__out>
9d00e1e8:	02402025 	move	a0,s2
9d00e1ec:	1680000d 	bnez	s4,9d00e224 <__pad+0x94>
9d00e1f0:	0230a023 	subu	s4,s1,s0
9d00e1f4:	02008825 	move	s1,s0
9d00e1f8:	8fbf003c 	lw	ra,60(sp)
9d00e1fc:	02201025 	move	v0,s1
9d00e200:	8fb60038 	lw	s6,56(sp)
9d00e204:	8fb50034 	lw	s5,52(sp)
9d00e208:	8fb40030 	lw	s4,48(sp)
9d00e20c:	8fb3002c 	lw	s3,44(sp)
9d00e210:	8fb20028 	lw	s2,40(sp)
9d00e214:	8fb10024 	lw	s1,36(sp)
9d00e218:	8fb00020 	lw	s0,32(sp)
9d00e21c:	03e00008 	jr	ra
9d00e220:	27bd0040 	addiu	sp,sp,64
9d00e224:	2e860011 	sltiu	a2,s4,17
9d00e228:	24020010 	li	v0,16
9d00e22c:	0286100b 	movn	v0,s4,a2
9d00e230:	00403025 	move	a2,v0
9d00e234:	24050020 	li	a1,32
9d00e238:	27a40010 	addiu	a0,sp,16
9d00e23c:	0f4040fc 	jal	9d0103f0 <memset>
9d00e240:	0280a825 	move	s5,s4
9d00e244:	2ea20010 	sltiu	v0,s5,16
9d00e248:	1040000b 	beqz	v0,9d00e278 <__pad+0xe8>
9d00e24c:	3286000f 	andi	a2,s4,0xf
9d00e250:	27a50010 	addiu	a1,sp,16
9d00e254:	0f403c62 	jal	9d00f188 <__out>
9d00e258:	02402025 	move	a0,s2
9d00e25c:	1660ffe6 	bnez	s3,9d00e1f8 <__pad+0x68>
9d00e260:	02003025 	move	a2,s0
9d00e264:	02c02825 	move	a1,s6
9d00e268:	0f403c62 	jal	9d00f188 <__out>
9d00e26c:	02402025 	move	a0,s2
9d00e270:	1000ffe2 	b	9d00e1fc <__pad+0x6c>
9d00e274:	8fbf003c 	lw	ra,60(sp)
9d00e278:	24060010 	li	a2,16
9d00e27c:	27a50010 	addiu	a1,sp,16
9d00e280:	0f403c62 	jal	9d00f188 <__out>
9d00e284:	02402025 	move	a0,s2
9d00e288:	1000ffee 	b	9d00e244 <__pad+0xb4>
9d00e28c:	26b5fff0 	addiu	s5,s5,-16

Disassembly of section .text.dptofp:

9d00e290 <__truncdfsf2>:
9d00e290:	00053ac0 00045d42 00eb3825 000432c0     .:..B]..%8...2..
9d00e2a0:	3c018000 00e13825 3c018000 00a14824     ...<%8.....<$H..
9d00e2b0:	00054040 00084542 2508fc80 250bffff     @@..BE.....%...%
9d00e2c0:	2d6100fe 10200012 00000000              ..a-.. .....

9d00e2cc <Hlab1>:
9d00e2cc:	10c00002 	beqz	a2,9d00e2d8 <i45>
9d00e2d0:	00000000 	nop
9d00e2d4:	34e70001 	ori	a3,a3,0x1

9d00e2d8 <i45>:
9d00e2d8:	24e70080 	addiu	a3,a3,128
9d00e2dc:	2ceb0080 	sltiu	t3,a3,128
9d00e2e0:	010b4021 	addu	t0,t0,t3
9d00e2e4:	00075a02 	srl	t3,a3,0x8
9d00e2e8:	316b0001 	andi	t3,t3,0x1
9d00e2ec:	00eb3823 	subu	a3,a3,t3
9d00e2f0:	00073840 	sll	a3,a3,0x1
9d00e2f4:	00073a42 	srl	a3,a3,0x9
9d00e2f8:	00085dc0 	sll	t3,t0,0x17
9d00e2fc:	00eb3825 	or	a3,a3,t3
9d00e300:	00e91025 	or	v0,a3,t1

9d00e304 <H999>:
9d00e304:	03e00008 	jr	ra
9d00e308:	00000000 	nop
9d00e30c:	00000000 	nop

9d00e310 <Hspec>:
9d00e310:	2401047f 	li	at,1151
9d00e314:	15010007 	bne	t0,at,9d00e334 <i46>
9d00e318:	00000000 	nop
9d00e31c:	00075840 	sll	t3,a3,0x1
9d00e320:	01665825 	or	t3,t3,a2
9d00e324:	11600003 	beqz	t3,9d00e334 <i46>
9d00e328:	00000000 	nop
9d00e32c:	1000fff5 	b	9d00e304 <H999>
9d00e330:	3c02ffc0 	lui	v0,0xffc0

9d00e334 <i46>:
9d00e334:	290100ff 	slti	at,t0,255
9d00e338:	14200004 	bnez	at,9d00e34c <i48>
9d00e33c:	00000000 	nop
9d00e340:	3c017f80 	lui	at,0x7f80
9d00e344:	1000ffef 	b	9d00e304 <H999>
9d00e348:	01211025 	or	v0,t1,at

9d00e34c <i48>:
9d00e34c:	240a0001 	li	t2,1
9d00e350:	01485023 	subu	t2,t2,t0
9d00e354:	2d410020 	sltiu	at,t2,32
9d00e358:	14200003 	bnez	at,9d00e368 <i49>
9d00e35c:	00000000 	nop
9d00e360:	1000ffe8 	b	9d00e304 <H999>
9d00e364:	00091025 	or	v0,zero,t1

9d00e368 <i49>:
9d00e368:	240c0020 	li	t4,32
9d00e36c:	018a6023 	subu	t4,t4,t2
9d00e370:	01875804 	sllv	t3,a3,t4
9d00e374:	00cb3025 	or	a2,a2,t3
9d00e378:	01473806 	srlv	a3,a3,t2
9d00e37c:	24080000 	li	t0,0
9d00e380:	3c018000 	lui	at,0x8000
9d00e384:	1000ffd1 	b	9d00e2cc <Hlab1>
9d00e388:	00e13825 	or	a3,a3,at
9d00e38c:	00000000 	nop

Disassembly of section .text.scalbn:

9d00e390 <scalbn>:
9d00e390:	27bdffe0 	addiu	sp,sp,-32
9d00e394:	afb10014 	sw	s1,20(sp)
9d00e398:	00c08825 	move	s1,a2
9d00e39c:	28c60400 	slti	a2,a2,1024
9d00e3a0:	afbf001c 	sw	ra,28(sp)
9d00e3a4:	afb20018 	sw	s2,24(sp)
9d00e3a8:	14c0001f 	bnez	a2,9d00e428 <scalbn+0x98>
9d00e3ac:	afb00010 	sw	s0,16(sp)
9d00e3b0:	3c129d00 	lui	s2,0x9d00
9d00e3b4:	8e467568 	lw	a2,30056(s2)
9d00e3b8:	8e47756c 	lw	a3,30060(s2)
9d00e3bc:	0f4030ed 	jal	9d00c3b4 <__muldf3>
9d00e3c0:	2630fc01 	addiu	s0,s1,-1023
9d00e3c4:	2a040400 	slti	a0,s0,1024
9d00e3c8:	14800009 	bnez	a0,9d00e3f0 <scalbn+0x60>
9d00e3cc:	8e467568 	lw	a2,30056(s2)
9d00e3d0:	8e47756c 	lw	a3,30060(s2)
9d00e3d4:	00402025 	move	a0,v0
9d00e3d8:	00602825 	move	a1,v1
9d00e3dc:	0f4030ed 	jal	9d00c3b4 <__muldf3>
9d00e3e0:	2630f802 	addiu	s0,s1,-2046
9d00e3e4:	2a050400 	slti	a1,s0,1024
9d00e3e8:	240403ff 	li	a0,1023
9d00e3ec:	0085800a 	movz	s0,a0,a1
9d00e3f0:	261003ff 	addiu	s0,s0,1023
9d00e3f4:	00102500 	sll	a0,s0,0x14
9d00e3f8:	00002825 	move	a1,zero
9d00e3fc:	00a03025 	move	a2,a1
9d00e400:	00803825 	move	a3,a0
9d00e404:	00602825 	move	a1,v1
9d00e408:	0f4030ed 	jal	9d00c3b4 <__muldf3>
9d00e40c:	00402025 	move	a0,v0
9d00e410:	8fbf001c 	lw	ra,28(sp)
9d00e414:	8fb20018 	lw	s2,24(sp)
9d00e418:	8fb10014 	lw	s1,20(sp)
9d00e41c:	8fb00010 	lw	s0,16(sp)
9d00e420:	03e00008 	jr	ra
9d00e424:	27bd0020 	addiu	sp,sp,32
9d00e428:	2a26fc02 	slti	a2,s1,-1022
9d00e42c:	00801025 	move	v0,a0
9d00e430:	00a01825 	move	v1,a1
9d00e434:	10c0ffee 	beqz	a2,9d00e3f0 <scalbn+0x60>
9d00e438:	02208025 	move	s0,s1
9d00e43c:	3c129d00 	lui	s2,0x9d00
9d00e440:	8e467570 	lw	a2,30064(s2)
9d00e444:	8e477574 	lw	a3,30068(s2)
9d00e448:	0f4030ed 	jal	9d00c3b4 <__muldf3>
9d00e44c:	263003c9 	addiu	s0,s1,969
9d00e450:	2a04fc02 	slti	a0,s0,-1022
9d00e454:	1080ffe6 	beqz	a0,9d00e3f0 <scalbn+0x60>
9d00e458:	8e467570 	lw	a2,30064(s2)
9d00e45c:	8e477574 	lw	a3,30068(s2)
9d00e460:	00402025 	move	a0,v0
9d00e464:	00602825 	move	a1,v1
9d00e468:	0f4030ed 	jal	9d00c3b4 <__muldf3>
9d00e46c:	26300792 	addiu	s0,s1,1938
9d00e470:	2a05fc02 	slti	a1,s0,-1022
9d00e474:	2404fc02 	li	a0,-1022
9d00e478:	1000ffdd 	b	9d00e3f0 <scalbn+0x60>
9d00e47c:	0085800b 	movn	s0,a0,a1

Disassembly of section .text.__pop_ptr:

9d00e480 <__pop_ptr>:
9d00e480:	24020084 	li	v0,132
9d00e484:	50a20022 	beql	a1,v0,9d00e510 <__pop_ptr+0x90>
9d00e488:	8ce20000 	lw	v0,0(a3)
9d00e48c:	28a20085 	slti	v0,a1,133
9d00e490:	10400010 	beqz	v0,9d00e4d4 <__pop_ptr+0x54>
9d00e494:	24020081 	li	v0,129
9d00e498:	50a20008 	beql	a1,v0,9d00e4bc <__pop_ptr+0x3c>
9d00e49c:	8ce20000 	lw	v0,0(a3)
9d00e4a0:	24020082 	li	v0,130
9d00e4a4:	50a20027 	beql	a1,v0,9d00e544 <__pop_ptr+0xc4>
9d00e4a8:	8ce20000 	lw	v0,0(a3)
9d00e4ac:	24020080 	li	v0,128
9d00e4b0:	14a20010 	bne	a1,v0,9d00e4f4 <__pop_ptr+0x74>
9d00e4b4:	00000000 	nop
9d00e4b8:	8ce20000 	lw	v0,0(a3)
9d00e4bc:	24430004 	addiu	v1,v0,4
9d00e4c0:	ace30000 	sw	v1,0(a3)
9d00e4c4:	8c420000 	lw	v0,0(v0)
9d00e4c8:	ac820000 	sw	v0,0(a0)
9d00e4cc:	10000015 	b	9d00e524 <__pop_ptr+0xa4>
9d00e4d0:	ac460000 	sw	a2,0(v0)
9d00e4d4:	24020090 	li	v0,144
9d00e4d8:	50a2001a 	beql	a1,v0,9d00e544 <__pop_ptr+0xc4>
9d00e4dc:	8ce20000 	lw	v0,0(a3)
9d00e4e0:	28a20091 	slti	v0,a1,145
9d00e4e4:	10400005 	beqz	v0,9d00e4fc <__pop_ptr+0x7c>
9d00e4e8:	24020088 	li	v0,136
9d00e4ec:	50a2000f 	beql	a1,v0,9d00e52c <__pop_ptr+0xac>
9d00e4f0:	8ce20000 	lw	v0,0(a3)
9d00e4f4:	03e00008 	jr	ra
9d00e4f8:	00001025 	move	v0,zero
9d00e4fc:	240200a0 	li	v0,160
9d00e500:	50a2ffee 	beql	a1,v0,9d00e4bc <__pop_ptr+0x3c>
9d00e504:	8ce20000 	lw	v0,0(a3)
9d00e508:	1000ffe9 	b	9d00e4b0 <__pop_ptr+0x30>
9d00e50c:	240200c0 	li	v0,192
9d00e510:	24430004 	addiu	v1,v0,4
9d00e514:	ace30000 	sw	v1,0(a3)
9d00e518:	8c420000 	lw	v0,0(v0)
9d00e51c:	ac820000 	sw	v0,0(a0)
9d00e520:	a4460000 	sh	a2,0(v0)
9d00e524:	03e00008 	jr	ra
9d00e528:	24020001 	li	v0,1
9d00e52c:	24430004 	addiu	v1,v0,4
9d00e530:	ace30000 	sw	v1,0(a3)
9d00e534:	8c420000 	lw	v0,0(v0)
9d00e538:	ac820000 	sw	v0,0(a0)
9d00e53c:	1000fff9 	b	9d00e524 <__pop_ptr+0xa4>
9d00e540:	a0460000 	sb	a2,0(v0)
9d00e544:	24430004 	addiu	v1,v0,4
9d00e548:	ace30000 	sw	v1,0(a3)
9d00e54c:	8c420000 	lw	v0,0(v0)
9d00e550:	ac820000 	sw	v0,0(a0)
9d00e554:	ac460000 	sw	a2,0(v0)
9d00e558:	000637c3 	sra	a2,a2,0x1f
9d00e55c:	1000fff1 	b	9d00e524 <__pop_ptr+0xa4>
9d00e560:	ac460004 	sw	a2,4(v0)

Disassembly of section .text.general_exception:

9d00e564 <_general_exception_context>:
9d00e564:	27bdffa8 	addiu	sp,sp,-88
9d00e568:	afa10004 	sw	at,4(sp)
9d00e56c:	afa20008 	sw	v0,8(sp)
9d00e570:	afa3000c 	sw	v1,12(sp)
9d00e574:	afa40010 	sw	a0,16(sp)
9d00e578:	afa50014 	sw	a1,20(sp)
9d00e57c:	afa60018 	sw	a2,24(sp)
9d00e580:	afa7001c 	sw	a3,28(sp)
9d00e584:	afa80020 	sw	t0,32(sp)
9d00e588:	afa90024 	sw	t1,36(sp)
9d00e58c:	afaa0028 	sw	t2,40(sp)
9d00e590:	afab002c 	sw	t3,44(sp)
9d00e594:	afac0030 	sw	t4,48(sp)
9d00e598:	afad0034 	sw	t5,52(sp)
9d00e59c:	afae0038 	sw	t6,56(sp)
9d00e5a0:	afaf003c 	sw	t7,60(sp)
9d00e5a4:	afb80040 	sw	t8,64(sp)
9d00e5a8:	afb90044 	sw	t9,68(sp)
9d00e5ac:	afbf0048 	sw	ra,72(sp)
9d00e5b0:	00004012 	mflo	t0
9d00e5b4:	afa8004c 	sw	t0,76(sp)
9d00e5b8:	00004010 	mfhi	t0
9d00e5bc:	afa80050 	sw	t0,80(sp)
9d00e5c0:	3c1a9d01 	lui	k0,0x9d01
9d00e5c4:	275afd58 	addiu	k0,k0,-680
9d00e5c8:	00000000 	nop
9d00e5cc:	40046800 	mfc0	a0,c0_cause
9d00e5d0:	40056000 	mfc0	a1,c0_status
9d00e5d4:	0340f809 	jalr	k0
9d00e5d8:	00000000 	nop
9d00e5dc:	8fa80050 	lw	t0,80(sp)
9d00e5e0:	01000011 	mthi	t0
9d00e5e4:	8fa8004c 	lw	t0,76(sp)
9d00e5e8:	01000013 	mtlo	t0
9d00e5ec:	8fa10004 	lw	at,4(sp)
9d00e5f0:	8fa20008 	lw	v0,8(sp)
9d00e5f4:	8fa3000c 	lw	v1,12(sp)
9d00e5f8:	8fa40010 	lw	a0,16(sp)
9d00e5fc:	8fa50014 	lw	a1,20(sp)
9d00e600:	8fa60018 	lw	a2,24(sp)
9d00e604:	8fa7001c 	lw	a3,28(sp)
9d00e608:	8fa80020 	lw	t0,32(sp)
9d00e60c:	8fa90024 	lw	t1,36(sp)
9d00e610:	8faa0028 	lw	t2,40(sp)
9d00e614:	8fab002c 	lw	t3,44(sp)
9d00e618:	8fac0030 	lw	t4,48(sp)
9d00e61c:	8fad0034 	lw	t5,52(sp)
9d00e620:	8fae0038 	lw	t6,56(sp)
9d00e624:	8faf003c 	lw	t7,60(sp)
9d00e628:	8fb80040 	lw	t8,64(sp)
9d00e62c:	8fb90044 	lw	t9,68(sp)
9d00e630:	8fbf0048 	lw	ra,72(sp)
9d00e634:	27bd0058 	addiu	sp,sp,88
9d00e638:	000000c0 	ehb
9d00e63c:	42000018 	eret

Disassembly of section .text.__stdio_read:

9d00e640 <__stdio_read>:
9d00e640:	8c83000c 	lw	v1,12(a0)
9d00e644:	27bdffd0 	addiu	sp,sp,-48
9d00e648:	afb00020 	sw	s0,32(sp)
9d00e64c:	0003102b 	sltu	v0,zero,v1
9d00e650:	00c21023 	subu	v0,a2,v0
9d00e654:	00808025 	move	s0,a0
9d00e658:	afa20014 	sw	v0,20(sp)
9d00e65c:	8c820008 	lw	v0,8(a0)
9d00e660:	8c840000 	lw	a0,0(a0)
9d00e664:	afb20028 	sw	s2,40(sp)
9d00e668:	afb10024 	sw	s1,36(sp)
9d00e66c:	00a09025 	move	s2,a1
9d00e670:	00c08825 	move	s1,a2
9d00e674:	afa50010 	sw	a1,16(sp)
9d00e678:	24060002 	li	a2,2
9d00e67c:	27a50010 	addiu	a1,sp,16
9d00e680:	afbf002c 	sw	ra,44(sp)
9d00e684:	afa20018 	sw	v0,24(sp)
9d00e688:	0f403dd1 	jal	9d00f744 <readv>
9d00e68c:	afa3001c 	sw	v1,28(sp)
9d00e690:	1c400007 	bgtz	v0,9d00e6b0 <__stdio_read+0x70>
9d00e694:	30430018 	andi	v1,v0,0x18
9d00e698:	38640008 	xori	a0,v1,0x8
9d00e69c:	8e030004 	lw	v1,4(s0)
9d00e6a0:	00641825 	or	v1,v1,a0
9d00e6a4:	ae030004 	sw	v1,4(s0)
9d00e6a8:	10000011 	b	9d00e6f0 <__stdio_read+0xb0>
9d00e6ac:	00408825 	move	s1,v0
9d00e6b0:	8fa40014 	lw	a0,20(sp)
9d00e6b4:	0082182b 	sltu	v1,a0,v0
9d00e6b8:	5060000d 	beqzl	v1,9d00e6f0 <__stdio_read+0xb0>
9d00e6bc:	00408825 	move	s1,v0
9d00e6c0:	8e030008 	lw	v1,8(s0)
9d00e6c4:	00441023 	subu	v0,v0,a0
9d00e6c8:	00621021 	addu	v0,v1,v0
9d00e6cc:	ae020040 	sw	v0,64(s0)
9d00e6d0:	8e02000c 	lw	v0,12(s0)
9d00e6d4:	10400006 	beqz	v0,9d00e6f0 <__stdio_read+0xb0>
9d00e6d8:	ae03003c 	sw	v1,60(s0)
9d00e6dc:	24620001 	addiu	v0,v1,1
9d00e6e0:	ae02003c 	sw	v0,60(s0)
9d00e6e4:	90620000 	lbu	v0,0(v1)
9d00e6e8:	02519021 	addu	s2,s2,s1
9d00e6ec:	a242ffff 	sb	v0,-1(s2)
9d00e6f0:	8fbf002c 	lw	ra,44(sp)
9d00e6f4:	02201025 	move	v0,s1
9d00e6f8:	8fb20028 	lw	s2,40(sp)
9d00e6fc:	8fb10024 	lw	s1,36(sp)
9d00e700:	8fb00020 	lw	s0,32(sp)
9d00e704:	03e00008 	jr	ra
9d00e708:	27bd0030 	addiu	sp,sp,48

Disassembly of section .text.__simple_search_fl:

9d00e70c <__simple_search_fl>:
9d00e70c:	3c06a000 	lui	a2,0xa000
9d00e710:	8cca16f4 	lw	t2,5876(a2)
9d00e714:	1140002b 	beqz	t2,9d00e7c4 <__simple_search_fl+0xb8>
9d00e718:	00001025 	move	v0,zero
9d00e71c:	01401825 	move	v1,t2
9d00e720:	00003825 	move	a3,zero
9d00e724:	00004025 	move	t0,zero
9d00e728:	8c650000 	lw	a1,0(v1)
9d00e72c:	14a40008 	bne	a1,a0,9d00e750 <__simple_search_fl+0x44>
9d00e730:	8c690010 	lw	t1,16(v1)
9d00e734:	50e00002 	beqzl	a3,9d00e740 <__simple_search_fl+0x34>
9d00e738:	acc916f4 	sw	t1,5876(a2)
9d00e73c:	ace90010 	sw	t1,16(a3)
9d00e740:	03e00008 	jr	ra
9d00e744:	24620010 	addiu	v0,v1,16
9d00e748:	1000fff7 	b	9d00e728 <__simple_search_fl+0x1c>
9d00e74c:	01201825 	move	v1,t1
9d00e750:	0085582b 	sltu	t3,a0,a1
9d00e754:	11600007 	beqz	t3,9d00e774 <__simple_search_fl+0x68>
9d00e758:	00000000 	nop
9d00e75c:	5040001b 	beqzl	v0,9d00e7cc <__simple_search_fl+0xc0>
9d00e760:	00e04025 	move	t0,a3
9d00e764:	8c4b0000 	lw	t3,0(v0)
9d00e768:	00ab282b 	sltu	a1,a1,t3
9d00e76c:	00e5400b 	movn	t0,a3,a1
9d00e770:	0065100b 	movn	v0,v1,a1
9d00e774:	1520fff4 	bnez	t1,9d00e748 <__simple_search_fl+0x3c>
9d00e778:	00603825 	move	a3,v1
9d00e77c:	10400011 	beqz	v0,9d00e7c4 <__simple_search_fl+0xb8>
9d00e780:	00000000 	nop
9d00e784:	8c430000 	lw	v1,0(v0)
9d00e788:	8c450010 	lw	a1,16(v0)
9d00e78c:	00641823 	subu	v1,v1,a0
9d00e790:	2c690011 	sltiu	t1,v1,17
9d00e794:	15200007 	bnez	t1,9d00e7b4 <__simple_search_fl+0xa8>
9d00e798:	24470010 	addiu	a3,v0,16
9d00e79c:	ac440000 	sw	a0,0(v0)
9d00e7a0:	2463fff0 	addiu	v1,v1,-16
9d00e7a4:	00e42021 	addu	a0,a3,a0
9d00e7a8:	ac850010 	sw	a1,16(a0)
9d00e7ac:	ac830000 	sw	v1,0(a0)
9d00e7b0:	00802825 	move	a1,a0
9d00e7b4:	55420002 	bnel	t2,v0,9d00e7c0 <__simple_search_fl+0xb4>
9d00e7b8:	ad050010 	sw	a1,16(t0)
9d00e7bc:	acc516f4 	sw	a1,5876(a2)
9d00e7c0:	00e01025 	move	v0,a3
9d00e7c4:	03e00008 	jr	ra
9d00e7c8:	00000000 	nop
9d00e7cc:	1000ffe9 	b	9d00e774 <__simple_search_fl+0x68>
9d00e7d0:	00601025 	move	v0,v1

Disassembly of section .text.__stdio_seek_rw:

9d00e7d4 <__stdio_seek_rw>:
9d00e7d4:	27bdffe0 	addiu	sp,sp,-32
9d00e7d8:	24020001 	li	v0,1
9d00e7dc:	afb20018 	sw	s2,24(sp)
9d00e7e0:	afb10014 	sw	s1,20(sp)
9d00e7e4:	afb00010 	sw	s0,16(sp)
9d00e7e8:	afbf001c 	sw	ra,28(sp)
9d00e7ec:	00808025 	move	s0,a0
9d00e7f0:	00c09025 	move	s2,a2
9d00e7f4:	14c20005 	bne	a2,v0,9d00e80c <__stdio_seek_rw+0x38>
9d00e7f8:	00a08825 	move	s1,a1
9d00e7fc:	8c820040 	lw	v0,64(a0)
9d00e800:	8c83003c 	lw	v1,60(a0)
9d00e804:	00431023 	subu	v0,v0,v1
9d00e808:	00a28823 	subu	s1,a1,v0
9d00e80c:	8e020004 	lw	v0,4(s0)
9d00e810:	30420020 	andi	v0,v0,0x20
9d00e814:	1040000a 	beqz	v0,9d00e840 <__stdio_seek_rw+0x6c>
9d00e818:	02403025 	move	a2,s2
9d00e81c:	8e020014 	lw	v0,20(s0)
9d00e820:	8e030018 	lw	v1,24(s0)
9d00e824:	0062102b 	sltu	v0,v1,v0
9d00e828:	5440000d 	bnezl	v0,9d00e860 <__stdio_seek_rw+0x8c>
9d00e82c:	8e02002c 	lw	v0,44(s0)
9d00e830:	ae000028 	sw	zero,40(s0)
9d00e834:	ae000018 	sw	zero,24(s0)
9d00e838:	ae000014 	sw	zero,20(s0)
9d00e83c:	02403025 	move	a2,s2
9d00e840:	02202825 	move	a1,s1
9d00e844:	0f403f8c 	jal	9d00fe30 <__stdio_seek_unbuffered>
9d00e848:	02002025 	move	a0,s0
9d00e84c:	0440000b 	bltz	v0,9d00e87c <__stdio_seek_rw+0xa8>
9d00e850:	00001025 	move	v0,zero
9d00e854:	ae000040 	sw	zero,64(s0)
9d00e858:	10000009 	b	9d00e880 <__stdio_seek_rw+0xac>
9d00e85c:	ae00003c 	sw	zero,60(s0)
9d00e860:	00003025 	move	a2,zero
9d00e864:	00002825 	move	a1,zero
9d00e868:	0040f809 	jalr	v0
9d00e86c:	02002025 	move	a0,s0
9d00e870:	8e020014 	lw	v0,20(s0)
9d00e874:	5440ffef 	bnezl	v0,9d00e834 <__stdio_seek_rw+0x60>
9d00e878:	ae000028 	sw	zero,40(s0)
9d00e87c:	2402ffff 	li	v0,-1
9d00e880:	8fbf001c 	lw	ra,28(sp)
9d00e884:	8fb20018 	lw	s2,24(sp)
9d00e888:	8fb10014 	lw	s1,20(sp)
9d00e88c:	8fb00010 	lw	s0,16(sp)
9d00e890:	03e00008 	jr	ra
9d00e894:	27bd0020 	addiu	sp,sp,32

Disassembly of section .text.__stdio_close_rw:

9d00e898 <__stdio_close_rw>:
9d00e898:	14800003 	bnez	a0,9d00e8a8 <__stdio_close_rw+0x10>
9d00e89c:	00001025 	move	v0,zero
9d00e8a0:	03e00008 	jr	ra
9d00e8a4:	00000000 	nop
9d00e8a8:	8c820004 	lw	v0,4(a0)
9d00e8ac:	27bdffe0 	addiu	sp,sp,-32
9d00e8b0:	afb10018 	sw	s1,24(sp)
9d00e8b4:	30420020 	andi	v0,v0,0x20
9d00e8b8:	afb00014 	sw	s0,20(sp)
9d00e8bc:	afbf001c 	sw	ra,28(sp)
9d00e8c0:	00808025 	move	s0,a0
9d00e8c4:	10400009 	beqz	v0,9d00e8ec <__stdio_close_rw+0x54>
9d00e8c8:	00a08825 	move	s1,a1
9d00e8cc:	8c820014 	lw	v0,20(a0)
9d00e8d0:	8c830018 	lw	v1,24(a0)
9d00e8d4:	0062102b 	sltu	v0,v1,v0
9d00e8d8:	54400014 	bnezl	v0,9d00e92c <__stdio_close_rw+0x94>
9d00e8dc:	8c82002c 	lw	v0,44(a0)
9d00e8e0:	ae000028 	sw	zero,40(s0)
9d00e8e4:	ae000018 	sw	zero,24(s0)
9d00e8e8:	ae000014 	sw	zero,20(s0)
9d00e8ec:	8e05003c 	lw	a1,60(s0)
9d00e8f0:	8e020040 	lw	v0,64(s0)
9d00e8f4:	00a2182b 	sltu	v1,a1,v0
9d00e8f8:	10600004 	beqz	v1,9d00e90c <__stdio_close_rw+0x74>
9d00e8fc:	24060001 	li	a2,1
9d00e900:	8e040000 	lw	a0,0(s0)
9d00e904:	0f4041e7 	jal	9d01079c <lseek>
9d00e908:	00a22823 	subu	a1,a1,v0
9d00e90c:	ae000040 	sw	zero,64(s0)
9d00e910:	ae00003c 	sw	zero,60(s0)
9d00e914:	1220000b 	beqz	s1,9d00e944 <__stdio_close_rw+0xac>
9d00e918:	00001025 	move	v0,zero
9d00e91c:	0f4041e9 	jal	9d0107a4 <close>
9d00e920:	8e040000 	lw	a0,0(s0)
9d00e924:	10000008 	b	9d00e948 <__stdio_close_rw+0xb0>
9d00e928:	8fbf001c 	lw	ra,28(sp)
9d00e92c:	00003025 	move	a2,zero
9d00e930:	0040f809 	jalr	v0
9d00e934:	00002825 	move	a1,zero
9d00e938:	8e030014 	lw	v1,20(s0)
9d00e93c:	1460ffe8 	bnez	v1,9d00e8e0 <__stdio_close_rw+0x48>
9d00e940:	2402ffff 	li	v0,-1
9d00e944:	8fbf001c 	lw	ra,28(sp)
9d00e948:	8fb10018 	lw	s1,24(sp)
9d00e94c:	8fb00014 	lw	s0,20(sp)
9d00e950:	03e00008 	jr	ra
9d00e954:	27bd0020 	addiu	sp,sp,32

Disassembly of section .text.__shgetc:

9d00e958 <__shgetc>:
9d00e958:	8c820050 	lw	v0,80(a0)
9d00e95c:	27bdffe8 	addiu	sp,sp,-24
9d00e960:	afb00010 	sw	s0,16(sp)
9d00e964:	afbf0014 	sw	ra,20(sp)
9d00e968:	1040000b 	beqz	v0,9d00e998 <__shgetc+0x40>
9d00e96c:	00808025 	move	s0,a0
9d00e970:	8c830054 	lw	v1,84(a0)
9d00e974:	0062102a 	slt	v0,v1,v0
9d00e978:	14400007 	bnez	v0,9d00e998 <__shgetc+0x40>
9d00e97c:	00000000 	nop
9d00e980:	ae00004c 	sw	zero,76(s0)
9d00e984:	2402ffff 	li	v0,-1
9d00e988:	8fbf0014 	lw	ra,20(sp)
9d00e98c:	8fb00010 	lw	s0,16(sp)
9d00e990:	03e00008 	jr	ra
9d00e994:	27bd0018 	addiu	sp,sp,24
9d00e998:	0f403f08 	jal	9d00fc20 <__uflow>
9d00e99c:	02002025 	move	a0,s0
9d00e9a0:	0442fff8 	bltzl	v0,9d00e984 <__shgetc+0x2c>
9d00e9a4:	ae00004c 	sw	zero,76(s0)
9d00e9a8:	8e030040 	lw	v1,64(s0)
9d00e9ac:	8e040050 	lw	a0,80(s0)
9d00e9b0:	8e05003c 	lw	a1,60(s0)
9d00e9b4:	10800009 	beqz	a0,9d00e9dc <__shgetc+0x84>
9d00e9b8:	00603025 	move	a2,v1
9d00e9bc:	8e060054 	lw	a2,84(s0)
9d00e9c0:	00653823 	subu	a3,v1,a1
9d00e9c4:	00862023 	subu	a0,a0,a2
9d00e9c8:	00e4382a 	slt	a3,a3,a0
9d00e9cc:	14e00003 	bnez	a3,9d00e9dc <__shgetc+0x84>
9d00e9d0:	00603025 	move	a2,v1
9d00e9d4:	2484ffff 	addiu	a0,a0,-1
9d00e9d8:	00a43021 	addu	a2,a1,a0
9d00e9dc:	10600006 	beqz	v1,9d00e9f8 <__shgetc+0xa0>
9d00e9e0:	ae06004c 	sw	a2,76(s0)
9d00e9e4:	8e040054 	lw	a0,84(s0)
9d00e9e8:	00651823 	subu	v1,v1,a1
9d00e9ec:	24630001 	addiu	v1,v1,1
9d00e9f0:	00831821 	addu	v1,a0,v1
9d00e9f4:	ae030054 	sw	v1,84(s0)
9d00e9f8:	90a3ffff 	lbu	v1,-1(a1)
9d00e9fc:	5462ffe2 	bnel	v1,v0,9d00e988 <__shgetc+0x30>
9d00ea00:	a0a2ffff 	sb	v0,-1(a1)
9d00ea04:	1000ffe1 	b	9d00e98c <__shgetc+0x34>
9d00ea08:	8fbf0014 	lw	ra,20(sp)

Disassembly of section .text.__simple_malloc:

9d00ea0c <__simple_malloc>:
9d00ea0c:	27bdffd8 	addiu	sp,sp,-40
9d00ea10:	afb10020 	sw	s1,32(sp)
9d00ea14:	3c11a000 	lui	s1,0xa000
9d00ea18:	8e2200e4 	lw	v0,228(s1)
9d00ea1c:	afb0001c 	sw	s0,28(sp)
9d00ea20:	afbf0024 	sw	ra,36(sp)
9d00ea24:	1040000e 	beqz	v0,9d00ea60 <__simple_malloc+0x54>
9d00ea28:	00808025 	move	s0,a0
9d00ea2c:	0f403fc0 	jal	9d00ff00 <_get_heap_left_space>
9d00ea30:	00000000 	nop
9d00ea34:	27a40010 	addiu	a0,sp,16
9d00ea38:	0f40402d 	jal	9d0100b4 <__expand_heap>
9d00ea3c:	afa20010 	sw	v0,16(sp)
9d00ea40:	2442000f 	addiu	v0,v0,15
9d00ea44:	8fa50010 	lw	a1,16(sp)
9d00ea48:	7c021804 	ins	v0,zero,0x0,0x4
9d00ea4c:	0f404106 	jal	9d010418 <__init_search_fl>
9d00ea50:	00402025 	move	a0,v0
9d00ea54:	1040000c 	beqz	v0,9d00ea88 <__simple_malloc+0x7c>
9d00ea58:	8fbf0024 	lw	ra,36(sp)
9d00ea5c:	ae2000e4 	sw	zero,228(s1)
9d00ea60:	52000001 	beqzl	s0,9d00ea68 <__simple_malloc+0x5c>
9d00ea64:	24100001 	li	s0,1
9d00ea68:	2610000f 	addiu	s0,s0,15
9d00ea6c:	7c101804 	ins	s0,zero,0x0,0x4
9d00ea70:	16000009 	bnez	s0,9d00ea98 <__simple_malloc+0x8c>
9d00ea74:	3c02a000 	lui	v0,0xa000
9d00ea78:	2403000c 	li	v1,12
9d00ea7c:	ac4316f0 	sw	v1,5872(v0)
9d00ea80:	00001025 	move	v0,zero
9d00ea84:	8fbf0024 	lw	ra,36(sp)
9d00ea88:	8fb10020 	lw	s1,32(sp)
9d00ea8c:	8fb0001c 	lw	s0,28(sp)
9d00ea90:	03e00008 	jr	ra
9d00ea94:	27bd0028 	addiu	sp,sp,40
9d00ea98:	2e020004 	sltiu	v0,s0,4
9d00ea9c:	24030004 	li	v1,4
9d00eaa0:	0062800b 	movn	s0,v1,v0
9d00eaa4:	0f4039c3 	jal	9d00e70c <__simple_search_fl>
9d00eaa8:	02002025 	move	a0,s0
9d00eaac:	5440fff5 	bnezl	v0,9d00ea84 <__simple_malloc+0x78>
9d00eab0:	ac50fffc 	sw	s0,-4(v0)
9d00eab4:	1000fff4 	b	9d00ea88 <__simple_malloc+0x7c>
9d00eab8:	8fbf0024 	lw	ra,36(sp)

Disassembly of section .text.fptodp:

9d00eabc <__extendsfdf2>:
9d00eabc:	00043dc2 30e700ff 3c018000 00813024     .=.....0...<$0..
9d00eacc:	24e9ffff 2d2100fe 1020000d 00000000     ...$..!-.. .....

9d00eadc <Glab1>:
9d00eadc:	24e70380 	addiu	a3,a3,896
9d00eae0:	00044a40 	sll	t1,a0,0x9
9d00eae4:	00094b02 	srl	t1,t1,0xc
9d00eae8:	00c93025 	or	a2,a2,t1
9d00eaec:	00042f40 	sll	a1,a0,0x1d

9d00eaf0 <Gret>:
9d00eaf0:	00074d00 	sll	t1,a3,0x14
9d00eaf4:	00c93025 	or	a2,a2,t1
9d00eaf8:	00051025 	or	v0,zero,a1
9d00eafc:	00061825 	or	v1,zero,a2

9d00eb00 <G999>:
9d00eb00:	03e00008 	jr	ra
9d00eb04:	00000000 	nop
9d00eb08:	00000000 	nop

9d00eb0c <Gspec>:
9d00eb0c:	24050000 	li	a1,0
9d00eb10:	00842021 	addu	a0,a0,a0
9d00eb14:	1080fff6 	beqz	a0,9d00eaf0 <Gret>
9d00eb18:	00000000 	nop
9d00eb1c:	14e00009 	bnez	a3,9d00eb44 <i42>
9d00eb20:	00000000 	nop

9d00eb24 <b43>:
9d00eb24:	24e7ffff 	addiu	a3,a3,-1
9d00eb28:	00842021 	addu	a0,a0,a0
9d00eb2c:	3c010080 	lui	at,0x80
9d00eb30:	0081082b 	sltu	at,a0,at
9d00eb34:	1420fffb 	bnez	at,9d00eb24 <b43>
9d00eb38:	00000000 	nop
9d00eb3c:	1000ffe7 	b	9d00eadc <Glab1>
9d00eb40:	00000000 	nop

9d00eb44 <i42>:
9d00eb44:	240707ff 	li	a3,2047
9d00eb48:	3c01ff00 	lui	at,0xff00
9d00eb4c:	34210001 	ori	at,at,0x1
9d00eb50:	0081082b 	sltu	at,a0,at
9d00eb54:	1420ffe6 	bnez	at,9d00eaf0 <Gret>
9d00eb58:	00000000 	nop
9d00eb5c:	1000ffe4 	b	9d00eaf0 <Gret>
9d00eb60:	3c06fff8 	lui	a2,0xfff8
9d00eb64:	00000000 	nop

Disassembly of section .text.__push_float:

9d00eb68 <__push_float>:
9d00eb68:	24020081 	li	v0,129
9d00eb6c:	50a20012 	beql	a1,v0,9d00ebb8 <__push_float+0x50>
9d00eb70:	8cc20000 	lw	v0,0(a2)
9d00eb74:	24020083 	li	v0,131
9d00eb78:	50a20006 	beql	a1,v0,9d00eb94 <__push_float+0x2c>
9d00eb7c:	8cc20000 	lw	v0,0(a2)
9d00eb80:	24020080 	li	v0,128
9d00eb84:	10a20012 	beq	a1,v0,9d00ebd0 <__push_float+0x68>
9d00eb88:	00001025 	move	v0,zero
9d00eb8c:	03e00008 	jr	ra
9d00eb90:	00000000 	nop
9d00eb94:	24430004 	addiu	v1,v0,4
9d00eb98:	acc30000 	sw	v1,0(a2)
9d00eb9c:	8c850004 	lw	a1,4(a0)
9d00eba0:	8c420000 	lw	v0,0(v0)
9d00eba4:	8c840000 	lw	a0,0(a0)
9d00eba8:	ac440000 	sw	a0,0(v0)
9d00ebac:	ac450004 	sw	a1,4(v0)
9d00ebb0:	03e00008 	jr	ra
9d00ebb4:	24020001 	li	v0,1
9d00ebb8:	24430004 	addiu	v1,v0,4
9d00ebbc:	acc30000 	sw	v1,0(a2)
9d00ebc0:	8c850004 	lw	a1,4(a0)
9d00ebc4:	8c420000 	lw	v0,0(v0)
9d00ebc8:	1000fff7 	b	9d00eba8 <__push_float+0x40>
9d00ebcc:	8c840000 	lw	a0,0(a0)
9d00ebd0:	8cc20000 	lw	v0,0(a2)
9d00ebd4:	8c850004 	lw	a1,4(a0)
9d00ebd8:	8c840000 	lw	a0,0(a0)
9d00ebdc:	24430004 	addiu	v1,v0,4
9d00ebe0:	27bdffe8 	addiu	sp,sp,-24
9d00ebe4:	acc30000 	sw	v1,0(a2)
9d00ebe8:	afb00010 	sw	s0,16(sp)
9d00ebec:	afbf0014 	sw	ra,20(sp)
9d00ebf0:	0f4038a4 	jal	9d00e290 <__truncdfsf2>
9d00ebf4:	8c500000 	lw	s0,0(v0)
9d00ebf8:	8fbf0014 	lw	ra,20(sp)
9d00ebfc:	ae020000 	sw	v0,0(s0)
9d00ec00:	24020001 	li	v0,1
9d00ec04:	8fb00010 	lw	s0,16(sp)
9d00ec08:	03e00008 	jr	ra
9d00ec0c:	27bd0018 	addiu	sp,sp,24

Disassembly of section .text.strtox:

9d00ec10 <strtox>:
9d00ec10:	27bdff80 	addiu	sp,sp,-128
9d00ec14:	afb20078 	sw	s2,120(sp)
9d00ec18:	afb10074 	sw	s1,116(sp)
9d00ec1c:	afb00070 	sw	s0,112(sp)
9d00ec20:	00c09025 	move	s2,a2
9d00ec24:	00808025 	move	s0,a0
9d00ec28:	24060060 	li	a2,96
9d00ec2c:	27a40010 	addiu	a0,sp,16
9d00ec30:	00a08825 	move	s1,a1
9d00ec34:	afbf007c 	sw	ra,124(sp)
9d00ec38:	0f4040fc 	jal	9d0103f0 <memset>
9d00ec3c:	00002825 	move	a1,zero
9d00ec40:	2402ffff 	li	v0,-1
9d00ec44:	00002825 	move	a1,zero
9d00ec48:	27a40010 	addiu	a0,sp,16
9d00ec4c:	afa20050 	sw	v0,80(sp)
9d00ec50:	afb00018 	sw	s0,24(sp)
9d00ec54:	0f404092 	jal	9d010248 <__shlim>
9d00ec58:	afb0004c 	sw	s0,76(sp)
9d00ec5c:	02402825 	move	a1,s2
9d00ec60:	27a40010 	addiu	a0,sp,16
9d00ec64:	0f4020bb 	jal	9d0082ec <__floatscan>
9d00ec68:	24060001 	li	a2,1
9d00ec6c:	00402025 	move	a0,v0
9d00ec70:	12200008 	beqz	s1,9d00ec94 <strtox+0x84>
9d00ec74:	00602825 	move	a1,v1
9d00ec78:	8fa20050 	lw	v0,80(sp)
9d00ec7c:	8fa3004c 	lw	v1,76(sp)
9d00ec80:	00621823 	subu	v1,v1,v0
9d00ec84:	8fa20064 	lw	v0,100(sp)
9d00ec88:	00621821 	addu	v1,v1,v0
9d00ec8c:	02038021 	addu	s0,s0,v1
9d00ec90:	ae300000 	sw	s0,0(s1)
9d00ec94:	8fbf007c 	lw	ra,124(sp)
9d00ec98:	00801025 	move	v0,a0
9d00ec9c:	00a01825 	move	v1,a1
9d00eca0:	8fb20078 	lw	s2,120(sp)
9d00eca4:	8fb10074 	lw	s1,116(sp)
9d00eca8:	8fb00070 	lw	s0,112(sp)
9d00ecac:	03e00008 	jr	ra
9d00ecb0:	27bd0080 	addiu	sp,sp,128

Disassembly of section .text.__skipws:

9d00ecb4 <__skipws>:
9d00ecb4:	27bdffe0 	addiu	sp,sp,-32
9d00ecb8:	afb10018 	sw	s1,24(sp)
9d00ecbc:	afb00014 	sw	s0,20(sp)
9d00ecc0:	afbf001c 	sw	ra,28(sp)
9d00ecc4:	00808025 	move	s0,a0
9d00ecc8:	00008825 	move	s1,zero
9d00eccc:	8e02003c 	lw	v0,60(s0)
9d00ecd0:	8e03004c 	lw	v1,76(s0)
9d00ecd4:	0043182b 	sltu	v1,v0,v1
9d00ecd8:	10600017 	beqz	v1,9d00ed38 <__skipws+0x84>
9d00ecdc:	24430001 	addiu	v1,v0,1
9d00ece0:	ae03003c 	sw	v1,60(s0)
9d00ece4:	90420000 	lbu	v0,0(v0)
9d00ece8:	24030020 	li	v1,32
9d00ecec:	10430010 	beq	v0,v1,9d00ed30 <__skipws+0x7c>
9d00ecf0:	2442fff7 	addiu	v0,v0,-9
9d00ecf4:	2c420005 	sltiu	v0,v0,5
9d00ecf8:	5440fff4 	bnezl	v0,9d00eccc <__skipws+0x18>
9d00ecfc:	26310001 	addiu	s1,s1,1
9d00ed00:	8e02004c 	lw	v0,76(s0)
9d00ed04:	10400005 	beqz	v0,9d00ed1c <__skipws+0x68>
9d00ed08:	8fbf001c 	lw	ra,28(sp)
9d00ed0c:	8e02003c 	lw	v0,60(s0)
9d00ed10:	2442ffff 	addiu	v0,v0,-1
9d00ed14:	ae02003c 	sw	v0,60(s0)
9d00ed18:	8fbf001c 	lw	ra,28(sp)
9d00ed1c:	02201025 	move	v0,s1
9d00ed20:	8fb00014 	lw	s0,20(sp)
9d00ed24:	8fb10018 	lw	s1,24(sp)
9d00ed28:	03e00008 	jr	ra
9d00ed2c:	27bd0020 	addiu	sp,sp,32
9d00ed30:	1000ffe6 	b	9d00eccc <__skipws+0x18>
9d00ed34:	26310001 	addiu	s1,s1,1
9d00ed38:	0f403a56 	jal	9d00e958 <__shgetc>
9d00ed3c:	02002025 	move	a0,s0
9d00ed40:	2403ffff 	li	v1,-1
9d00ed44:	1443ffe8 	bne	v0,v1,9d00ece8 <__skipws+0x34>
9d00ed48:	8fbf001c 	lw	ra,28(sp)
9d00ed4c:	1000fff4 	b	9d00ed20 <__skipws+0x6c>
9d00ed50:	02201025 	move	v0,s1

Disassembly of section .text.__string_read:

9d00ed54 <__string_read>:
9d00ed54:	27bdffd0 	addiu	sp,sp,-48
9d00ed58:	afb00014 	sw	s0,20(sp)
9d00ed5c:	8c900038 	lw	s0,56(a0)
9d00ed60:	afb2001c 	sw	s2,28(sp)
9d00ed64:	24d20100 	addiu	s2,a2,256
9d00ed68:	afb50028 	sw	s5,40(sp)
9d00ed6c:	afb40024 	sw	s4,36(sp)
9d00ed70:	afb30020 	sw	s3,32(sp)
9d00ed74:	00a0a825 	move	s5,a1
9d00ed78:	00809825 	move	s3,a0
9d00ed7c:	00c0a025 	move	s4,a2
9d00ed80:	00002825 	move	a1,zero
9d00ed84:	02403025 	move	a2,s2
9d00ed88:	02002025 	move	a0,s0
9d00ed8c:	afbf002c 	sw	ra,44(sp)
9d00ed90:	0f403fe1 	jal	9d00ff84 <memchr>
9d00ed94:	afb10018 	sw	s1,24(sp)
9d00ed98:	54400001 	bnezl	v0,9d00eda0 <__string_read+0x4c>
9d00ed9c:	00509023 	subu	s2,v0,s0
9d00eda0:	0292882b 	sltu	s1,s4,s2
9d00eda4:	0251a00a 	movz	s4,s2,s1
9d00eda8:	02803025 	move	a2,s4
9d00edac:	02002825 	move	a1,s0
9d00edb0:	0f4040be 	jal	9d0102f8 <memcpy>
9d00edb4:	02a02025 	move	a0,s5
9d00edb8:	8fbf002c 	lw	ra,44(sp)
9d00edbc:	02141021 	addu	v0,s0,s4
9d00edc0:	02128021 	addu	s0,s0,s2
9d00edc4:	ae62003c 	sw	v0,60(s3)
9d00edc8:	ae700040 	sw	s0,64(s3)
9d00edcc:	ae700038 	sw	s0,56(s3)
9d00edd0:	02801025 	move	v0,s4
9d00edd4:	8fb50028 	lw	s5,40(sp)
9d00edd8:	8fb40024 	lw	s4,36(sp)
9d00eddc:	8fb30020 	lw	s3,32(sp)
9d00ede0:	8fb2001c 	lw	s2,28(sp)
9d00ede4:	8fb10018 	lw	s1,24(sp)
9d00ede8:	8fb00014 	lw	s0,20(sp)
9d00edec:	03e00008 	jr	ra
9d00edf0:	27bd0030 	addiu	sp,sp,48

Disassembly of section .text.__stdio_close:

9d00edf4 <__stdio_close>:
9d00edf4:	14800003 	bnez	a0,9d00ee04 <__stdio_close+0x10>
9d00edf8:	00001025 	move	v0,zero
9d00edfc:	03e00008 	jr	ra
9d00ee00:	00000000 	nop
9d00ee04:	8c820004 	lw	v0,4(a0)
9d00ee08:	27bdffe0 	addiu	sp,sp,-32
9d00ee0c:	afb10018 	sw	s1,24(sp)
9d00ee10:	30420020 	andi	v0,v0,0x20
9d00ee14:	afb00014 	sw	s0,20(sp)
9d00ee18:	afbf001c 	sw	ra,28(sp)
9d00ee1c:	00808025 	move	s0,a0
9d00ee20:	1440000b 	bnez	v0,9d00ee50 <__stdio_close+0x5c>
9d00ee24:	00a08825 	move	s1,a1
9d00ee28:	ae000028 	sw	zero,40(s0)
9d00ee2c:	ae000018 	sw	zero,24(s0)
9d00ee30:	16200014 	bnez	s1,9d00ee84 <__stdio_close+0x90>
9d00ee34:	ae000014 	sw	zero,20(s0)
9d00ee38:	00001025 	move	v0,zero
9d00ee3c:	8fbf001c 	lw	ra,28(sp)
9d00ee40:	8fb10018 	lw	s1,24(sp)
9d00ee44:	8fb00014 	lw	s0,20(sp)
9d00ee48:	03e00008 	jr	ra
9d00ee4c:	27bd0020 	addiu	sp,sp,32
9d00ee50:	8c820014 	lw	v0,20(a0)
9d00ee54:	8c830018 	lw	v1,24(a0)
9d00ee58:	0062102b 	sltu	v0,v1,v0
9d00ee5c:	1040fff2 	beqz	v0,9d00ee28 <__stdio_close+0x34>
9d00ee60:	00003025 	move	a2,zero
9d00ee64:	8c82002c 	lw	v0,44(a0)
9d00ee68:	0040f809 	jalr	v0
9d00ee6c:	00002825 	move	a1,zero
9d00ee70:	8e030014 	lw	v1,20(s0)
9d00ee74:	1060fff1 	beqz	v1,9d00ee3c <__stdio_close+0x48>
9d00ee78:	2402ffff 	li	v0,-1
9d00ee7c:	1000ffeb 	b	9d00ee2c <__stdio_close+0x38>
9d00ee80:	ae000028 	sw	zero,40(s0)
9d00ee84:	0f4041e9 	jal	9d0107a4 <close>
9d00ee88:	8e040000 	lw	a0,0(s0)
9d00ee8c:	1000ffec 	b	9d00ee40 <__stdio_close+0x4c>
9d00ee90:	8fbf001c 	lw	ra,28(sp)

Disassembly of section .text.fpcmp:

9d00ee94 <__eqsf2>:
9d00ee94:	2408fffe 00043040 00053840 00c74825     ...$@0..@8..%H..
9d00eea4:	1120001b 00000000 3c01ff00 34210001     .. ........<..!4
9d00eeb4:	00c1082b 1020001a 00000000 3c01ff00     +..... ........<
9d00eec4:	34210001 00e1082b 10200015 00000000     ..!4+..... .....
9d00eed4:	04810002 00063042 00063023              ....B0..#0..

9d00eee0 <i48>:
9d00eee0:	04a10002 	bgez	a1,9d00eeec <i49>
9d00eee4:	00073842 	srl	a3,a3,0x1
9d00eee8:	00073823 	negu	a3,a3

9d00eeec <i49>:
9d00eeec:	00c7082a 	slt	at,a2,a3
9d00eef0:	10200003 	beqz	at,9d00ef00 <i50>
9d00eef4:	00000000 	nop
9d00eef8:	10000007 	b	9d00ef18 <J999>
9d00eefc:	2402ffff 	li	v0,-1

9d00ef00 <i50>:
9d00ef00:	00e6082a 	slt	at,a3,a2
9d00ef04:	10200003 	beqz	at,9d00ef14 <Jequ>
9d00ef08:	00000000 	nop
9d00ef0c:	10000002 	b	9d00ef18 <J999>
9d00ef10:	24020001 	li	v0,1

9d00ef14 <Jequ>:
9d00ef14:	24020000 	li	v0,0

9d00ef18 <J999>:
9d00ef18:	03e00008 	jr	ra
9d00ef1c:	00000000 	nop
9d00ef20:	00000000 	nop

9d00ef24 <Jnan>:
9d00ef24:	1000fffc 	b	9d00ef18 <J999>
9d00ef28:	00081025 	or	v0,zero,t0
9d00ef2c:	00000000 	nop

Disassembly of section .text.fpcmplt:

9d00ef30 <fpcmplt>:
9d00ef30:	2408fffe 	li	t0,-2
9d00ef34:	00043040 	sll	a2,a0,0x1
9d00ef38:	00053840 	sll	a3,a1,0x1
9d00ef3c:	00c74825 	or	t1,a2,a3
9d00ef40:	1120001b 	beqz	t1,9d00efb0 <fpcmplt+0x80>
9d00ef44:	00000000 	nop
9d00ef48:	3c01ff00 	lui	at,0xff00
9d00ef4c:	34210001 	ori	at,at,0x1
9d00ef50:	00c1082b 	sltu	at,a2,at
9d00ef54:	1020001a 	beqz	at,9d00efc0 <fpcmplt+0x90>
9d00ef58:	00000000 	nop
9d00ef5c:	3c01ff00 	lui	at,0xff00
9d00ef60:	34210001 	ori	at,at,0x1
9d00ef64:	00e1082b 	sltu	at,a3,at
9d00ef68:	10200015 	beqz	at,9d00efc0 <fpcmplt+0x90>
9d00ef6c:	00000000 	nop
9d00ef70:	04810002 	bgez	a0,9d00ef7c <fpcmplt+0x4c>
9d00ef74:	00063042 	srl	a2,a2,0x1
9d00ef78:	00063023 	negu	a2,a2
9d00ef7c:	04a10002 	bgez	a1,9d00ef88 <fpcmplt+0x58>
9d00ef80:	00073842 	srl	a3,a3,0x1
9d00ef84:	00073823 	negu	a3,a3
9d00ef88:	00c7082a 	slt	at,a2,a3
9d00ef8c:	10200003 	beqz	at,9d00ef9c <fpcmplt+0x6c>
9d00ef90:	00000000 	nop
9d00ef94:	10000007 	b	9d00efb4 <fpcmplt+0x84>
9d00ef98:	2402ffff 	li	v0,-1
9d00ef9c:	00e6082a 	slt	at,a3,a2
9d00efa0:	10200003 	beqz	at,9d00efb0 <fpcmplt+0x80>
9d00efa4:	00000000 	nop
9d00efa8:	10000002 	b	9d00efb4 <fpcmplt+0x84>
9d00efac:	24020001 	li	v0,1
9d00efb0:	24020000 	li	v0,0
9d00efb4:	03e00008 	jr	ra
9d00efb8:	00000000 	nop
9d00efbc:	00000000 	nop
9d00efc0:	1000fffc 	b	9d00efb4 <fpcmplt+0x84>
9d00efc4:	34020001 	li	v0,0x1
9d00efc8:	00000000 	nop

Disassembly of section .text.__toread:

9d00efcc <__toread>:
9d00efcc:	27bdffe8 	addiu	sp,sp,-24
9d00efd0:	afb00010 	sw	s0,16(sp)
9d00efd4:	afbf0014 	sw	ra,20(sp)
9d00efd8:	80820048 	lb	v0,72(a0)
9d00efdc:	2443ffff 	addiu	v1,v0,-1
9d00efe0:	00431025 	or	v0,v0,v1
9d00efe4:	a0820048 	sb	v0,72(a0)
9d00efe8:	8c830018 	lw	v1,24(a0)
9d00efec:	8c820014 	lw	v0,20(a0)
9d00eff0:	0062102b 	sltu	v0,v1,v0
9d00eff4:	10400005 	beqz	v0,9d00f00c <__toread+0x40>
9d00eff8:	00808025 	move	s0,a0
9d00effc:	8c82002c 	lw	v0,44(a0)
9d00f000:	00003025 	move	a2,zero
9d00f004:	0040f809 	jalr	v0
9d00f008:	00002825 	move	a1,zero
9d00f00c:	8e020004 	lw	v0,4(s0)
9d00f010:	ae000028 	sw	zero,40(s0)
9d00f014:	ae000018 	sw	zero,24(s0)
9d00f018:	30430002 	andi	v1,v0,0x2
9d00f01c:	10600008 	beqz	v1,9d00f040 <__toread+0x74>
9d00f020:	ae000014 	sw	zero,20(s0)
9d00f024:	34420010 	ori	v0,v0,0x10
9d00f028:	ae020004 	sw	v0,4(s0)
9d00f02c:	2402ffff 	li	v0,-1
9d00f030:	8fbf0014 	lw	ra,20(sp)
9d00f034:	8fb00010 	lw	s0,16(sp)
9d00f038:	03e00008 	jr	ra
9d00f03c:	27bd0018 	addiu	sp,sp,24
9d00f040:	8e030008 	lw	v1,8(s0)
9d00f044:	8e04000c 	lw	a0,12(s0)
9d00f048:	7c4200c0 	ext	v0,v0,0x3,0x1
9d00f04c:	00021023 	negu	v0,v0
9d00f050:	00641821 	addu	v1,v1,a0
9d00f054:	ae030040 	sw	v1,64(s0)
9d00f058:	1000fff5 	b	9d00f030 <__toread+0x64>
9d00f05c:	ae03003c 	sw	v1,60(s0)

Disassembly of section .text.__stdio_seek:

9d00f060 <__stdio_seek>:
9d00f060:	8c820004 	lw	v0,4(a0)
9d00f064:	27bdffe0 	addiu	sp,sp,-32
9d00f068:	afb20018 	sw	s2,24(sp)
9d00f06c:	30420020 	andi	v0,v0,0x20
9d00f070:	afb10014 	sw	s1,20(sp)
9d00f074:	afb00010 	sw	s0,16(sp)
9d00f078:	afbf001c 	sw	ra,28(sp)
9d00f07c:	00808025 	move	s0,a0
9d00f080:	00a08825 	move	s1,a1
9d00f084:	10400009 	beqz	v0,9d00f0ac <__stdio_seek+0x4c>
9d00f088:	00c09025 	move	s2,a2
9d00f08c:	8c820014 	lw	v0,20(a0)
9d00f090:	8c830018 	lw	v1,24(a0)
9d00f094:	0062102b 	sltu	v0,v1,v0
9d00f098:	5440000a 	bnezl	v0,9d00f0c4 <__stdio_seek+0x64>
9d00f09c:	8c82002c 	lw	v0,44(a0)
9d00f0a0:	ae000028 	sw	zero,40(s0)
9d00f0a4:	ae000018 	sw	zero,24(s0)
9d00f0a8:	ae000014 	sw	zero,20(s0)
9d00f0ac:	02403025 	move	a2,s2
9d00f0b0:	02202825 	move	a1,s1
9d00f0b4:	0f403f8c 	jal	9d00fe30 <__stdio_seek_unbuffered>
9d00f0b8:	02002025 	move	a0,s0
9d00f0bc:	10000008 	b	9d00f0e0 <__stdio_seek+0x80>
9d00f0c0:	8fbf001c 	lw	ra,28(sp)
9d00f0c4:	00003025 	move	a2,zero
9d00f0c8:	0040f809 	jalr	v0
9d00f0cc:	00002825 	move	a1,zero
9d00f0d0:	8e030014 	lw	v1,20(s0)
9d00f0d4:	1460fff2 	bnez	v1,9d00f0a0 <__stdio_seek+0x40>
9d00f0d8:	2402ffff 	li	v0,-1
9d00f0dc:	8fbf001c 	lw	ra,28(sp)
9d00f0e0:	8fb20018 	lw	s2,24(sp)
9d00f0e4:	8fb10014 	lw	s1,20(sp)
9d00f0e8:	8fb00010 	lw	s0,16(sp)
9d00f0ec:	03e00008 	jr	ra
9d00f0f0:	27bd0020 	addiu	sp,sp,32

Disassembly of section .text.__overflow:

9d00f0f4 <__overflow>:
9d00f0f4:	8c820028 	lw	v0,40(a0)
9d00f0f8:	27bdffe0 	addiu	sp,sp,-32
9d00f0fc:	afb00018 	sw	s0,24(sp)
9d00f100:	afbf001c 	sw	ra,28(sp)
9d00f104:	00808025 	move	s0,a0
9d00f108:	10400010 	beqz	v0,9d00f14c <__overflow+0x58>
9d00f10c:	a3a50010 	sb	a1,16(sp)
9d00f110:	8e030014 	lw	v1,20(s0)
9d00f114:	8e020028 	lw	v0,40(s0)
9d00f118:	0062102b 	sltu	v0,v1,v0
9d00f11c:	14400014 	bnez	v0,9d00f170 <__overflow+0x7c>
9d00f120:	93a20010 	lbu	v0,16(sp)
9d00f124:	8e02002c 	lw	v0,44(s0)
9d00f128:	24060001 	li	a2,1
9d00f12c:	27a50010 	addiu	a1,sp,16
9d00f130:	0040f809 	jalr	v0
9d00f134:	02002025 	move	a0,s0
9d00f138:	24030001 	li	v1,1
9d00f13c:	14430007 	bne	v0,v1,9d00f15c <__overflow+0x68>
9d00f140:	93a20010 	lbu	v0,16(sp)
9d00f144:	10000007 	b	9d00f164 <__overflow+0x70>
9d00f148:	8fbf001c 	lw	ra,28(sp)
9d00f14c:	0f403faf 	jal	9d00febc <__towrite>
9d00f150:	00000000 	nop
9d00f154:	5040ffef 	beqzl	v0,9d00f114 <__overflow+0x20>
9d00f158:	8e030014 	lw	v1,20(s0)
9d00f15c:	2402ffff 	li	v0,-1
9d00f160:	8fbf001c 	lw	ra,28(sp)
9d00f164:	8fb00018 	lw	s0,24(sp)
9d00f168:	03e00008 	jr	ra
9d00f16c:	27bd0020 	addiu	sp,sp,32
9d00f170:	82040034 	lb	a0,52(s0)
9d00f174:	1044ffeb 	beq	v0,a0,9d00f124 <__overflow+0x30>
9d00f178:	24640001 	addiu	a0,v1,1
9d00f17c:	ae040014 	sw	a0,20(s0)
9d00f180:	1000fff7 	b	9d00f160 <__overflow+0x6c>
9d00f184:	a0620000 	sb	v0,0(v1)

Disassembly of section .text.__out:

9d00f188 <__out>:
9d00f188:	8c820004 	lw	v0,4(a0)
9d00f18c:	27bdffe0 	addiu	sp,sp,-32
9d00f190:	afbf001c 	sw	ra,28(sp)
9d00f194:	30470100 	andi	a3,v0,0x100
9d00f198:	afb10018 	sw	s1,24(sp)
9d00f19c:	10e00017 	beqz	a3,9d00f1fc <__out+0x74>
9d00f1a0:	afb00014 	sw	s0,20(sp)
9d00f1a4:	8c820010 	lw	v0,16(a0)
9d00f1a8:	00c01825 	move	v1,a2
9d00f1ac:	00c2882b 	sltu	s1,a2,v0
9d00f1b0:	0051180a 	movz	v1,v0,s1
9d00f1b4:	1060000c 	beqz	v1,9d00f1e8 <__out+0x60>
9d00f1b8:	00608825 	move	s1,v1
9d00f1bc:	00808025 	move	s0,a0
9d00f1c0:	8c840014 	lw	a0,20(a0)
9d00f1c4:	0f4040be 	jal	9d0102f8 <memcpy>
9d00f1c8:	00603025 	move	a2,v1
9d00f1cc:	8e020014 	lw	v0,20(s0)
9d00f1d0:	8e030010 	lw	v1,16(s0)
9d00f1d4:	00511021 	addu	v0,v0,s1
9d00f1d8:	00718823 	subu	s1,v1,s1
9d00f1dc:	ae020014 	sw	v0,20(s0)
9d00f1e0:	ae110010 	sw	s1,16(s0)
9d00f1e4:	a0400000 	sb	zero,0(v0)
9d00f1e8:	8fbf001c 	lw	ra,28(sp)
9d00f1ec:	8fb10018 	lw	s1,24(sp)
9d00f1f0:	8fb00014 	lw	s0,20(sp)
9d00f1f4:	03e00008 	jr	ra
9d00f1f8:	27bd0020 	addiu	sp,sp,32
9d00f1fc:	30420010 	andi	v0,v0,0x10
9d00f200:	5440fffa 	bnezl	v0,9d00f1ec <__out+0x64>
9d00f204:	8fbf001c 	lw	ra,28(sp)
9d00f208:	0f40404a 	jal	9d010128 <__fwrite>
9d00f20c:	00000000 	nop
9d00f210:	1000fff6 	b	9d00f1ec <__out+0x64>
9d00f214:	8fbf001c 	lw	ra,28(sp)

Disassembly of section .text.dptoul:

9d00f218 <__fixunsdfsi>:
9d00f218:	00053ac0 00045542 00ea3825 3c018000     .:..BU..%8.....<
9d00f228:	00e13825 00055040 000a5542 2406041e     %8..@P..BU.....$
9d00f238:	00ca3023 04c0000c 00000000 2cc10020     #0.......... ..,
9d00f248:	14200002 00000000 34070000              .. ........4

9d00f254 <L43>:
9d00f254:	04a10002 	bgez	a1,9d00f260 <i53>
9d00f258:	00c73806 	srlv	a3,a3,a2
9d00f25c:	00073823 	negu	a3,a3

9d00f260 <i53>:
9d00f260:	00071025 	or	v0,zero,a3

9d00f264 <K999>:
9d00f264:	03e00008 	jr	ra
9d00f268:	00000000 	nop
9d00f26c:	00000000 	nop

9d00f270 <Knaninf>:
9d00f270:	10800002 	beqz	a0,9d00f27c <i54>
9d00f274:	00000000 	nop
9d00f278:	34a50001 	ori	a1,a1,0x1

9d00f27c <i54>:
9d00f27c:	3c017ff0 	lui	at,0x7ff0
9d00f280:	34210001 	ori	at,at,0x1
9d00f284:	00a1082b 	sltu	at,a1,at
9d00f288:	14200003 	bnez	at,9d00f298 <i55>
9d00f28c:	00000000 	nop
9d00f290:	1000fff4 	b	9d00f264 <K999>
9d00f294:	3c028000 	lui	v0,0x8000

9d00f298 <i55>:
9d00f298:	1000fff2 	b	9d00f264 <K999>
9d00f29c:	2402ffff 	li	v0,-1
9d00f2a0:	00000000 	nop

Disassembly of section .text.copysignf:

9d00f2a4 <copysignf>:
9d00f2a4:	27bdffd0 	addiu	sp,sp,-48
9d00f2a8:	afb30028 	sw	s3,40(sp)
9d00f2ac:	afb20024 	sw	s2,36(sp)
9d00f2b0:	00e09825 	move	s3,a3
9d00f2b4:	00c09025 	move	s2,a2
9d00f2b8:	afbf002c 	sw	ra,44(sp)
9d00f2bc:	afb10020 	sw	s1,32(sp)
9d00f2c0:	0f4038a4 	jal	9d00e290 <__truncdfsf2>
9d00f2c4:	afb0001c 	sw	s0,28(sp)
9d00f2c8:	02602825 	move	a1,s3
9d00f2cc:	02402025 	move	a0,s2
9d00f2d0:	0f4038a4 	jal	9d00e290 <__truncdfsf2>
9d00f2d4:	00408825 	move	s1,v0
9d00f2d8:	00408025 	move	s0,v0
9d00f2dc:	0f403aaf 	jal	9d00eabc <__extendsfdf2>
9d00f2e0:	02202025 	move	a0,s1
9d00f2e4:	02002025 	move	a0,s0
9d00f2e8:	afa20010 	sw	v0,16(sp)
9d00f2ec:	7c707400 	ext	s0,v1,0x10,0xf
9d00f2f0:	0f403aaf 	jal	9d00eabc <__extendsfdf2>
9d00f2f4:	afa30014 	sw	v1,20(sp)
9d00f2f8:	00031c02 	srl	v1,v1,0x10
9d00f2fc:	7c037004 	ins	v1,zero,0x0,0xf
9d00f300:	02031825 	or	v1,s0,v1
9d00f304:	a7a30016 	sh	v1,22(sp)
9d00f308:	8fa40010 	lw	a0,16(sp)
9d00f30c:	0f4038a4 	jal	9d00e290 <__truncdfsf2>
9d00f310:	8fa50014 	lw	a1,20(sp)
9d00f314:	8fbf002c 	lw	ra,44(sp)
9d00f318:	8fb30028 	lw	s3,40(sp)
9d00f31c:	8fb20024 	lw	s2,36(sp)
9d00f320:	8fb10020 	lw	s1,32(sp)
9d00f324:	8fb0001c 	lw	s0,28(sp)
9d00f328:	03e00008 	jr	ra
9d00f32c:	27bd0030 	addiu	sp,sp,48

Disassembly of section .text._sbrk:

9d00f330 <_sbrk>:
9d00f330:	27bdffe0 	addiu	sp,sp,-32
9d00f334:	afb00014 	sw	s0,20(sp)
9d00f338:	3c10a000 	lui	s0,0xa000
9d00f33c:	8e0216e0 	lw	v0,5856(s0)
9d00f340:	afb10018 	sw	s1,24(sp)
9d00f344:	afbf001c 	sw	ra,28(sp)
9d00f348:	10400008 	beqz	v0,9d00f36c <_sbrk+0x3c>
9d00f34c:	00808825 	move	s1,a0
9d00f350:	06200011 	bltz	s1,9d00f398 <_sbrk+0x68>
9d00f354:	8e0216e0 	lw	v0,5856(s0)
9d00f358:	3c03a000 	lui	v1,0xa000
9d00f35c:	8c6316e4 	lw	v1,5860(v1)
9d00f360:	00621823 	subu	v1,v1,v0
9d00f364:	10000011 	b	9d00f3ac <_sbrk+0x7c>
9d00f368:	0071182b 	sltu	v1,v1,s1
9d00f36c:	0f4035f7 	jal	9d00d7dc <_sbrk_init>
9d00f370:	00000000 	nop
9d00f374:	8e0216e0 	lw	v0,5856(s0)
9d00f378:	1440fff5 	bnez	v0,9d00f350 <_sbrk+0x20>
9d00f37c:	00000000 	nop
9d00f380:	2402ffff 	li	v0,-1
9d00f384:	8fbf001c 	lw	ra,28(sp)
9d00f388:	8fb10018 	lw	s1,24(sp)
9d00f38c:	8fb00014 	lw	s0,20(sp)
9d00f390:	03e00008 	jr	ra
9d00f394:	27bd0020 	addiu	sp,sp,32
9d00f398:	3c03a000 	lui	v1,0xa000
9d00f39c:	8c6316e8 	lw	v1,5864(v1)
9d00f3a0:	00112023 	negu	a0,s1
9d00f3a4:	00431823 	subu	v1,v0,v1
9d00f3a8:	0064182b 	sltu	v1,v1,a0
9d00f3ac:	1460fff4 	bnez	v1,9d00f380 <_sbrk+0x50>
9d00f3b0:	00518821 	addu	s1,v0,s1
9d00f3b4:	1000fff3 	b	9d00f384 <_sbrk+0x54>
9d00f3b8:	ae1116e0 	sw	s1,5856(s0)

Disassembly of section .text.__fopen_rw:

9d00f3bc <__fopen_rw>:
9d00f3bc:	27bdffe8 	addiu	sp,sp,-24
9d00f3c0:	afb00010 	sw	s0,16(sp)
9d00f3c4:	afbf0014 	sw	ra,20(sp)
9d00f3c8:	0f403a83 	jal	9d00ea0c <__simple_malloc>
9d00f3cc:	24040468 	li	a0,1128
9d00f3d0:	10400017 	beqz	v0,9d00f430 <__fopen_rw+0x74>
9d00f3d4:	00408025 	move	s0,v0
9d00f3d8:	24060060 	li	a2,96
9d00f3dc:	00002825 	move	a1,zero
9d00f3e0:	0f4040fc 	jal	9d0103f0 <memset>
9d00f3e4:	00402025 	move	a0,v0
9d00f3e8:	3c029d01 	lui	v0,0x9d01
9d00f3ec:	24420464 	addiu	v0,v0,1124
9d00f3f0:	ae02002c 	sw	v0,44(s0)
9d00f3f4:	3c029d01 	lui	v0,0x9d01
9d00f3f8:	2442e7d4 	addiu	v0,v0,-6188
9d00f3fc:	ae020030 	sw	v0,48(s0)
9d00f400:	3c029d01 	lui	v0,0x9d01
9d00f404:	2442e898 	addiu	v0,v0,-5992
9d00f408:	ae02001c 	sw	v0,28(s0)
9d00f40c:	3c029d01 	lui	v0,0x9d01
9d00f410:	2442e640 	addiu	v0,v0,-6592
9d00f414:	ae020044 	sw	v0,68(s0)
9d00f418:	2402ffff 	li	v0,-1
9d00f41c:	a2020034 	sb	v0,52(s0)
9d00f420:	26020068 	addiu	v0,s0,104
9d00f424:	ae020008 	sw	v0,8(s0)
9d00f428:	24020400 	li	v0,1024
9d00f42c:	ae02000c 	sw	v0,12(s0)
9d00f430:	8fbf0014 	lw	ra,20(sp)
9d00f434:	02001025 	move	v0,s0
9d00f438:	8fb00010 	lw	s0,16(sp)
9d00f43c:	03e00008 	jr	ra
9d00f440:	27bd0018 	addiu	sp,sp,24

Disassembly of section .text.write:

9d00f444 <write>:
9d00f444:	27bdffe0 	addiu	sp,sp,-32
9d00f448:	afb10014 	sw	s1,20(sp)
9d00f44c:	afbf001c 	sw	ra,28(sp)
9d00f450:	afb20018 	sw	s2,24(sp)
9d00f454:	afb00010 	sw	s0,16(sp)
9d00f458:	10a0000d 	beqz	a1,9d00f490 <write+0x4c>
9d00f45c:	00008825 	move	s1,zero
9d00f460:	50c0000c 	beqzl	a2,9d00f494 <write+0x50>
9d00f464:	8fbf001c 	lw	ra,28(sp)
9d00f468:	2c840003 	sltiu	a0,a0,3
9d00f46c:	10800008 	beqz	a0,9d00f490 <write+0x4c>
9d00f470:	00c08825 	move	s1,a2
9d00f474:	3c020000 	lui	v0,0x0
9d00f478:	24420000 	addiu	v0,v0,0
9d00f47c:	1040000b 	beqz	v0,9d00f4ac <write+0x68>
9d00f480:	00a08025 	move	s0,a1
9d00f484:	00c02825 	move	a1,a2
9d00f488:	0c000000 	jal	90000000 <_bmxdudba_address+0x8fff0000>
9d00f48c:	02002025 	move	a0,s0
9d00f490:	8fbf001c 	lw	ra,28(sp)
9d00f494:	02201025 	move	v0,s1
9d00f498:	8fb20018 	lw	s2,24(sp)
9d00f49c:	8fb10014 	lw	s1,20(sp)
9d00f4a0:	8fb00010 	lw	s0,16(sp)
9d00f4a4:	03e00008 	jr	ra
9d00f4a8:	27bd0020 	addiu	sp,sp,32
9d00f4ac:	00a69021 	addu	s2,a1,a2
9d00f4b0:	82040000 	lb	a0,0(s0)
9d00f4b4:	0f4037d2 	jal	9d00df48 <_mon_putc>
9d00f4b8:	26100001 	addiu	s0,s0,1
9d00f4bc:	1650fffc 	bne	s2,s0,9d00f4b0 <write+0x6c>
9d00f4c0:	8fbf001c 	lw	ra,28(sp)
9d00f4c4:	1000fff4 	b	9d00f498 <write+0x54>
9d00f4c8:	02201025 	move	v0,s1

Disassembly of section .text.__vsnprintf:

9d00f4cc <__vsnprintf>:
9d00f4cc:	27bdffc8 	addiu	sp,sp,-56
9d00f4d0:	2403ffff 	li	v1,-1
9d00f4d4:	afa30010 	sw	v1,16(sp)
9d00f4d8:	24030102 	li	v1,258
9d00f4dc:	00a01025 	move	v0,a1
9d00f4e0:	afbf0034 	sw	ra,52(sp)
9d00f4e4:	00c02825 	move	a1,a2
9d00f4e8:	afa30014 	sw	v1,20(sp)
9d00f4ec:	14800002 	bnez	a0,9d00f4f8 <__vsnprintf+0x2c>
9d00f4f0:	00e03025 	move	a2,a3
9d00f4f4:	27a4002c 	addiu	a0,sp,44
9d00f4f8:	afa40018 	sw	a0,24(sp)
9d00f4fc:	afa2001c 	sw	v0,28(sp)
9d00f500:	10400002 	beqz	v0,9d00f50c <__vsnprintf+0x40>
9d00f504:	00001825 	move	v1,zero
9d00f508:	2443ffff 	addiu	v1,v0,-1
9d00f50c:	04410008 	bgez	v0,9d00f530 <__vsnprintf+0x64>
9d00f510:	afa30020 	sw	v1,32(sp)
9d00f514:	3c02a000 	lui	v0,0xa000
9d00f518:	2403004f 	li	v1,79
9d00f51c:	ac4316f0 	sw	v1,5872(v0)
9d00f520:	2402ffff 	li	v0,-1
9d00f524:	8fbf0034 	lw	ra,52(sp)
9d00f528:	03e00008 	jr	ra
9d00f52c:	27bd0038 	addiu	sp,sp,56
9d00f530:	afa40028 	sw	a0,40(sp)
9d00f534:	afa40024 	sw	a0,36(sp)
9d00f538:	a0800000 	sb	zero,0(a0)
9d00f53c:	0f40400f 	jal	9d01003c <__vfprintf>
9d00f540:	27a40010 	addiu	a0,sp,16
9d00f544:	1000fff8 	b	9d00f528 <__vsnprintf+0x5c>
9d00f548:	8fbf0034 	lw	ra,52(sp)

Disassembly of section .text.fptoli:

9d00f54c <__fixsfsi>:
9d00f54c:	00042a00 3c018000 00a12825 00043dc2     .*.....<%(...=..
9d00f55c:	30e700ff 2406009e 00c73023 18c0000d     ...0...$#0......
9d00f56c:	00000000 28c10020 14200003 00000000     .... ..(.. .....
9d00f57c:	10000005 24020000                       .......$

9d00f584 <i42>:
9d00f584:	04810002 	bgez	a0,9d00f590 <i43>
9d00f588:	00c52806 	srlv	a1,a1,a2
9d00f58c:	00052823 	negu	a1,a1

9d00f590 <i43>:
9d00f590:	00051025 	or	v0,zero,a1

9d00f594 <G999>:
9d00f594:	03e00008 	jr	ra
9d00f598:	00000000 	nop
9d00f59c:	00000000 	nop

9d00f5a0 <Gspec>:
9d00f5a0:	3c017f80 	lui	at,0x7f80
9d00f5a4:	34210001 	ori	at,at,0x1
9d00f5a8:	0081082b 	sltu	at,a0,at
9d00f5ac:	14200003 	bnez	at,9d00f5bc <i44>
9d00f5b0:	00000000 	nop
9d00f5b4:	1000fff7 	b	9d00f594 <G999>
9d00f5b8:	3c028000 	lui	v0,0x8000

9d00f5bc <i44>:
9d00f5bc:	3c027fff 	lui	v0,0x7fff
9d00f5c0:	1000fff4 	b	9d00f594 <G999>
9d00f5c4:	3442ffff 	ori	v0,v0,0xffff
9d00f5c8:	00000000 	nop

Disassembly of section .text.dremf:

9d00f5cc <dremf>:
9d00f5cc:	27bdffe0 	addiu	sp,sp,-32
9d00f5d0:	afb10014 	sw	s1,20(sp)
9d00f5d4:	afb00010 	sw	s0,16(sp)
9d00f5d8:	00e08825 	move	s1,a3
9d00f5dc:	00c08025 	move	s0,a2
9d00f5e0:	afbf001c 	sw	ra,28(sp)
9d00f5e4:	0f4038a4 	jal	9d00e290 <__truncdfsf2>
9d00f5e8:	afb20018 	sw	s2,24(sp)
9d00f5ec:	02202825 	move	a1,s1
9d00f5f0:	02002025 	move	a0,s0
9d00f5f4:	0f4038a4 	jal	9d00e290 <__truncdfsf2>
9d00f5f8:	00409025 	move	s2,v0
9d00f5fc:	0f403aaf 	jal	9d00eabc <__extendsfdf2>
9d00f600:	00402025 	move	a0,v0
9d00f604:	02402025 	move	a0,s2
9d00f608:	00408025 	move	s0,v0
9d00f60c:	0f403aaf 	jal	9d00eabc <__extendsfdf2>
9d00f610:	00608825 	move	s1,v1
9d00f614:	00402025 	move	a0,v0
9d00f618:	02003025 	move	a2,s0
9d00f61c:	02203825 	move	a3,s1
9d00f620:	0f4029d1 	jal	9d00a744 <dreml>
9d00f624:	00602825 	move	a1,v1
9d00f628:	00402025 	move	a0,v0
9d00f62c:	0f4038a4 	jal	9d00e290 <__truncdfsf2>
9d00f630:	00602825 	move	a1,v1
9d00f634:	8fbf001c 	lw	ra,28(sp)
9d00f638:	8fb20018 	lw	s2,24(sp)
9d00f63c:	8fb10014 	lw	s1,20(sp)
9d00f640:	8fb00010 	lw	s0,16(sp)
9d00f644:	03e00008 	jr	ra
9d00f648:	27bd0020 	addiu	sp,sp,32

Disassembly of section .text:

9d00f64c <__dinit_copy_emb>:
9d00f64c:	03e00008 	jr	ra
9d00f650:	00000000 	nop

9d00f654 <__pic32_data_init>:
9d00f654:	03e01825 	move	v1,ra

9d00f658 <_dinit_init>:
9d00f658:	3c049d01 	lui	a0,0x9d01
9d00f65c:	2484d67c 	addiu	a0,a0,-10628
9d00f660:	10800016 	beqz	a0,9d00f6bc <_dinit_init+0x64>
9d00f664:	00000000 	nop
9d00f668:	8c850000 	lw	a1,0(a0)
9d00f66c:	10a00013 	beqz	a1,9d00f6bc <_dinit_init+0x64>
9d00f670:	24840004 	addiu	a0,a0,4
9d00f674:	8c860000 	lw	a2,0(a0)
9d00f678:	24840004 	addiu	a0,a0,4
9d00f67c:	848b0000 	lh	t3,0(a0)
9d00f680:	24840004 	addiu	a0,a0,4
9d00f684:	3c0c9d01 	lui	t4,0x9d01
9d00f688:	258c06c8 	addiu	t4,t4,1736
9d00f68c:	000b5880 	sll	t3,t3,0x2
9d00f690:	016c6021 	addu	t4,t3,t4
9d00f694:	8d8c0000 	lw	t4,0(t4)
9d00f698:	0180f809 	jalr	t4
9d00f69c:	00000000 	nop
9d00f6a0:	00402025 	move	a0,v0
9d00f6a4:	24840003 	addiu	a0,a0,3
9d00f6a8:	2406fffc 	li	a2,-4
9d00f6ac:	00c42024 	and	a0,a2,a0
9d00f6b0:	8c850000 	lw	a1,0(a0)
9d00f6b4:	14a0ffec 	bnez	a1,9d00f668 <_dinit_init+0x10>
9d00f6b8:	00000000 	nop
9d00f6bc:	0060f825 	move	ra,v1
9d00f6c0:	03e00008 	jr	ra
9d00f6c4:	00000000 	nop

Disassembly of section .text.atoi:

9d00f6c8 <atoi>:
9d00f6c8:	24050020 	li	a1,32
9d00f6cc:	80820000 	lb	v0,0(a0)
9d00f6d0:	1045000d 	beq	v0,a1,9d00f708 <atoi+0x40>
9d00f6d4:	2443fff7 	addiu	v1,v0,-9
9d00f6d8:	2c630005 	sltiu	v1,v1,5
9d00f6dc:	1460000a 	bnez	v1,9d00f708 <atoi+0x40>
9d00f6e0:	2403002b 	li	v1,43
9d00f6e4:	1043000a 	beq	v0,v1,9d00f710 <atoi+0x48>
9d00f6e8:	2403002d 	li	v1,45
9d00f6ec:	14430003 	bne	v0,v1,9d00f6fc <atoi+0x34>
9d00f6f0:	00002825 	move	a1,zero
9d00f6f4:	24050001 	li	a1,1
9d00f6f8:	24840001 	addiu	a0,a0,1
9d00f6fc:	00001025 	move	v0,zero
9d00f700:	10000007 	b	9d00f720 <atoi+0x58>
9d00f704:	2407000a 	li	a3,10
9d00f708:	1000fff0 	b	9d00f6cc <atoi+0x4>
9d00f70c:	24840001 	addiu	a0,a0,1
9d00f710:	1000fff9 	b	9d00f6f8 <atoi+0x30>
9d00f714:	00002825 	move	a1,zero
9d00f718:	24840001 	addiu	a0,a0,1
9d00f71c:	00431023 	subu	v0,v0,v1
9d00f720:	80830000 	lb	v1,0(a0)
9d00f724:	2463ffd0 	addiu	v1,v1,-48
9d00f728:	2c66000a 	sltiu	a2,v1,10
9d00f72c:	54c0fffa 	bnezl	a2,9d00f718 <atoi+0x50>
9d00f730:	70471002 	mul	v0,v0,a3
9d00f734:	50a00001 	beqzl	a1,9d00f73c <atoi+0x74>
9d00f738:	00021023 	negu	v0,v0
9d00f73c:	03e00008 	jr	ra
9d00f740:	00000000 	nop

Disassembly of section .text.__readv:

9d00f744 <readv>:
9d00f744:	27bdffd8 	addiu	sp,sp,-40
9d00f748:	afb40020 	sw	s4,32(sp)
9d00f74c:	afb3001c 	sw	s3,28(sp)
9d00f750:	afb20018 	sw	s2,24(sp)
9d00f754:	afb10014 	sw	s1,20(sp)
9d00f758:	afb00010 	sw	s0,16(sp)
9d00f75c:	afbf0024 	sw	ra,36(sp)
9d00f760:	0080a025 	move	s4,a0
9d00f764:	00c09825 	move	s3,a2
9d00f768:	00a08025 	move	s0,a1
9d00f76c:	00008825 	move	s1,zero
9d00f770:	00009025 	move	s2,zero
9d00f774:	0253102a 	slt	v0,s2,s3
9d00f778:	14400009 	bnez	v0,9d00f7a0 <readv+0x5c>
9d00f77c:	8fbf0024 	lw	ra,36(sp)
9d00f780:	02201025 	move	v0,s1
9d00f784:	8fb40020 	lw	s4,32(sp)
9d00f788:	8fb3001c 	lw	s3,28(sp)
9d00f78c:	8fb20018 	lw	s2,24(sp)
9d00f790:	8fb10014 	lw	s1,20(sp)
9d00f794:	8fb00010 	lw	s0,16(sp)
9d00f798:	03e00008 	jr	ra
9d00f79c:	27bd0028 	addiu	sp,sp,40
9d00f7a0:	8e060004 	lw	a2,4(s0)
9d00f7a4:	8e050000 	lw	a1,0(s0)
9d00f7a8:	02802025 	move	a0,s4
9d00f7ac:	0f4036ef 	jal	9d00dbbc <read>
9d00f7b0:	26520001 	addiu	s2,s2,1
9d00f7b4:	02228821 	addu	s1,s1,v0
9d00f7b8:	1000ffee 	b	9d00f774 <readv+0x30>
9d00f7bc:	26100008 	addiu	s0,s0,8

Disassembly of section .text.litodp:

9d00f7c0 <__floatsidf>:
9d00f7c0:	24050000 00054825 00053825 00043025     ...$%H..%8..%0..
9d00f7d0:	10c0000c 00000000 04c10006 00000000     ................
9d00f7e0:	3c098000 0005502b 00052823 00063023     ...<+P..#(..#0..
9d00f7f0:	00ca3023                                #0..

9d00f7f4 <i40>:
9d00f7f4:	2407041e 	li	a3,1054
9d00f7f8:	70c84020 	clz	t0,a2
9d00f7fc:	00e83823 	subu	a3,a3,t0
9d00f800:	01063004 	sllv	a2,a2,t0

9d00f804 <i39>:
9d00f804:	000542c2 	srl	t0,a1,0xb
9d00f808:	00065540 	sll	t2,a2,0x15
9d00f80c:	010a4025 	or	t0,t0,t2
9d00f810:	00065040 	sll	t2,a2,0x1
9d00f814:	000a5302 	srl	t2,t2,0xc
9d00f818:	012a4825 	or	t1,t1,t2
9d00f81c:	00075500 	sll	t2,a3,0x14
9d00f820:	012a4825 	or	t1,t1,t2
9d00f824:	00081025 	or	v0,zero,t0
9d00f828:	00091825 	or	v1,zero,t1

9d00f82c <E999>:
9d00f82c:	03e00008 	jr	ra
9d00f830:	00000000 	nop
9d00f834:	00000000 	nop

Disassembly of section .text.__consumews:

9d00f838 <__consumews>:
9d00f838:	8ca20000 	lw	v0,0(a1)
9d00f83c:	24030020 	li	v1,32
9d00f840:	80420000 	lb	v0,0(v0)
9d00f844:	10430004 	beq	v0,v1,9d00f858 <__consumews+0x20>
9d00f848:	2442fff7 	addiu	v0,v0,-9
9d00f84c:	2c430005 	sltiu	v1,v0,5
9d00f850:	10600013 	beqz	v1,9d00f8a0 <__consumews+0x68>
9d00f854:	00001025 	move	v0,zero
9d00f858:	27bdffe8 	addiu	sp,sp,-24
9d00f85c:	afb00010 	sw	s0,16(sp)
9d00f860:	afbf0014 	sw	ra,20(sp)
9d00f864:	0f403b2d 	jal	9d00ecb4 <__skipws>
9d00f868:	00a08025 	move	s0,a1
9d00f86c:	24040020 	li	a0,32
9d00f870:	8e030000 	lw	v1,0(s0)
9d00f874:	24650001 	addiu	a1,v1,1
9d00f878:	ae050000 	sw	a1,0(s0)
9d00f87c:	80630001 	lb	v1,1(v1)
9d00f880:	1064fffb 	beq	v1,a0,9d00f870 <__consumews+0x38>
9d00f884:	2463fff7 	addiu	v1,v1,-9
9d00f888:	2c630005 	sltiu	v1,v1,5
9d00f88c:	1460fff8 	bnez	v1,9d00f870 <__consumews+0x38>
9d00f890:	8fbf0014 	lw	ra,20(sp)
9d00f894:	8fb00010 	lw	s0,16(sp)
9d00f898:	03e00008 	jr	ra
9d00f89c:	27bd0018 	addiu	sp,sp,24
9d00f8a0:	03e00008 	jr	ra
9d00f8a4:	00000000 	nop

Disassembly of section .text.__putc:

9d00f8a8 <__putc>:
9d00f8a8:	8ca20004 	lw	v0,4(a1)
9d00f8ac:	27bdffe8 	addiu	sp,sp,-24
9d00f8b0:	30420020 	andi	v0,v0,0x20
9d00f8b4:	14400006 	bnez	v0,9d00f8d0 <__putc+0x28>
9d00f8b8:	afbf0014 	sw	ra,20(sp)
9d00f8bc:	0f403e95 	jal	9d00fa54 <__putc_unbuffered>
9d00f8c0:	00000000 	nop
9d00f8c4:	8fbf0014 	lw	ra,20(sp)
9d00f8c8:	03e00008 	jr	ra
9d00f8cc:	27bd0018 	addiu	sp,sp,24
9d00f8d0:	00803025 	move	a2,a0
9d00f8d4:	308200ff 	andi	v0,a0,0xff
9d00f8d8:	80a40034 	lb	a0,52(a1)
9d00f8dc:	10820009 	beq	a0,v0,9d00f904 <__putc+0x5c>
9d00f8e0:	00a01825 	move	v1,a1
9d00f8e4:	8ca40014 	lw	a0,20(a1)
9d00f8e8:	8ca50028 	lw	a1,40(a1)
9d00f8ec:	0085282b 	sltu	a1,a0,a1
9d00f8f0:	10a00004 	beqz	a1,9d00f904 <__putc+0x5c>
9d00f8f4:	24850001 	addiu	a1,a0,1
9d00f8f8:	ac650014 	sw	a1,20(v1)
9d00f8fc:	1000fff1 	b	9d00f8c4 <__putc+0x1c>
9d00f900:	a0860000 	sb	a2,0(a0)
9d00f904:	00c02825 	move	a1,a2
9d00f908:	0f403c3d 	jal	9d00f0f4 <__overflow>
9d00f90c:	00602025 	move	a0,v1
9d00f910:	1000ffed 	b	9d00f8c8 <__putc+0x20>
9d00f914:	8fbf0014 	lw	ra,20(sp)

Disassembly of section .text.__simple_free:

9d00f918 <__simple_free>:
9d00f918:	10800017 	beqz	a0,9d00f978 <__simple_free+0x60>
9d00f91c:	3c07a000 	lui	a3,0xa000
9d00f920:	8ce216f4 	lw	v0,5876(a3)
9d00f924:	2486fff0 	addiu	a2,a0,-16
9d00f928:	10400015 	beqz	v0,9d00f980 <__simple_free+0x68>
9d00f92c:	00e04025 	move	t0,a3
9d00f930:	8c83fff0 	lw	v1,-16(a0)
9d00f934:	8c450000 	lw	a1,0(v0)
9d00f938:	00834821 	addu	t1,a0,v1
9d00f93c:	14490007 	bne	v0,t1,9d00f95c <__simple_free+0x44>
9d00f940:	24a50010 	addiu	a1,a1,16
9d00f944:	8c420010 	lw	v0,16(v0)
9d00f948:	00651821 	addu	v1,v1,a1
9d00f94c:	ac83fff0 	sw	v1,-16(a0)
9d00f950:	ac820000 	sw	v0,0(a0)
9d00f954:	03e00008 	jr	ra
9d00f958:	ace616f4 	sw	a2,5876(a3)
9d00f95c:	00453821 	addu	a3,v0,a1
9d00f960:	14c70003 	bne	a2,a3,9d00f970 <__simple_free+0x58>
9d00f964:	00651821 	addu	v1,v1,a1
9d00f968:	03e00008 	jr	ra
9d00f96c:	ac430000 	sw	v1,0(v0)
9d00f970:	ac820000 	sw	v0,0(a0)
9d00f974:	ad0616f4 	sw	a2,5876(t0)
9d00f978:	03e00008 	jr	ra
9d00f97c:	00000000 	nop
9d00f980:	1000fffc 	b	9d00f974 <__simple_free+0x5c>
9d00f984:	ac800000 	sw	zero,0(a0)

Disassembly of section .text.__vsscanf:

9d00f988 <__vsscanf>:
9d00f988:	27bdff80 	addiu	sp,sp,-128
9d00f98c:	afb20078 	sw	s2,120(sp)
9d00f990:	afb10074 	sw	s1,116(sp)
9d00f994:	afb00070 	sw	s0,112(sp)
9d00f998:	00a08825 	move	s1,a1
9d00f99c:	00808025 	move	s0,a0
9d00f9a0:	00c09025 	move	s2,a2
9d00f9a4:	27a40010 	addiu	a0,sp,16
9d00f9a8:	24060060 	li	a2,96
9d00f9ac:	afbf007c 	sw	ra,124(sp)
9d00f9b0:	0f4040fc 	jal	9d0103f0 <memset>
9d00f9b4:	00002825 	move	a1,zero
9d00f9b8:	3c029d01 	lui	v0,0x9d01
9d00f9bc:	2442056c 	addiu	v0,v0,1388
9d00f9c0:	02403025 	move	a2,s2
9d00f9c4:	02202825 	move	a1,s1
9d00f9c8:	27a40010 	addiu	a0,sp,16
9d00f9cc:	afb00018 	sw	s0,24(sp)
9d00f9d0:	afb00048 	sw	s0,72(sp)
9d00f9d4:	0f404000 	jal	9d010000 <__vfscanf>
9d00f9d8:	afa20054 	sw	v0,84(sp)
9d00f9dc:	8fbf007c 	lw	ra,124(sp)
9d00f9e0:	8fb20078 	lw	s2,120(sp)
9d00f9e4:	8fb10074 	lw	s1,116(sp)
9d00f9e8:	8fb00070 	lw	s0,112(sp)
9d00f9ec:	03e00008 	jr	ra
9d00f9f0:	27bd0080 	addiu	sp,sp,128

Disassembly of section .text.__string_out:

9d00f9f4 <__string_out>:
9d00f9f4:	8c820010 	lw	v0,16(a0)
9d00f9f8:	27bdffe0 	addiu	sp,sp,-32
9d00f9fc:	afb10018 	sw	s1,24(sp)
9d00fa00:	00c2882b 	sltu	s1,a2,v0
9d00fa04:	0051300a 	movz	a2,v0,s1
9d00fa08:	afbf001c 	sw	ra,28(sp)
9d00fa0c:	10c0000c 	beqz	a2,9d00fa40 <__string_out+0x4c>
9d00fa10:	afb00014 	sw	s0,20(sp)
9d00fa14:	00808025 	move	s0,a0
9d00fa18:	8c840014 	lw	a0,20(a0)
9d00fa1c:	0f4040be 	jal	9d0102f8 <memcpy>
9d00fa20:	00c08825 	move	s1,a2
9d00fa24:	8e020014 	lw	v0,20(s0)
9d00fa28:	8e060010 	lw	a2,16(s0)
9d00fa2c:	00511021 	addu	v0,v0,s1
9d00fa30:	00d18823 	subu	s1,a2,s1
9d00fa34:	ae020014 	sw	v0,20(s0)
9d00fa38:	ae110010 	sw	s1,16(s0)
9d00fa3c:	a0400000 	sb	zero,0(v0)
9d00fa40:	8fbf001c 	lw	ra,28(sp)
9d00fa44:	8fb10018 	lw	s1,24(sp)
9d00fa48:	8fb00014 	lw	s0,20(sp)
9d00fa4c:	03e00008 	jr	ra
9d00fa50:	27bd0020 	addiu	sp,sp,32

Disassembly of section .text.__putc_unbuffered:

9d00fa54 <__putc_unbuffered>:
9d00fa54:	8ca20004 	lw	v0,4(a1)
9d00fa58:	27bdffe0 	addiu	sp,sp,-32
9d00fa5c:	308300ff 	andi	v1,a0,0xff
9d00fa60:	30420100 	andi	v0,v0,0x100
9d00fa64:	afbf001c 	sw	ra,28(sp)
9d00fa68:	1040000a 	beqz	v0,9d00fa94 <__putc_unbuffered+0x40>
9d00fa6c:	a3a30010 	sb	v1,16(sp)
9d00fa70:	8ca20014 	lw	v0,20(a1)
9d00fa74:	308400ff 	andi	a0,a0,0xff
9d00fa78:	24460001 	addiu	a2,v0,1
9d00fa7c:	aca60014 	sw	a2,20(a1)
9d00fa80:	a0430000 	sb	v1,0(v0)
9d00fa84:	8fbf001c 	lw	ra,28(sp)
9d00fa88:	00801025 	move	v0,a0
9d00fa8c:	03e00008 	jr	ra
9d00fa90:	27bd0020 	addiu	sp,sp,32
9d00fa94:	00a02025 	move	a0,a1
9d00fa98:	24060001 	li	a2,1
9d00fa9c:	0f40404a 	jal	9d010128 <__fwrite>
9d00faa0:	27a50010 	addiu	a1,sp,16
9d00faa4:	1040fff7 	beqz	v0,9d00fa84 <__putc_unbuffered+0x30>
9d00faa8:	2404ffff 	li	a0,-1
9d00faac:	1000fff5 	b	9d00fa84 <__putc_unbuffered+0x30>
9d00fab0:	93a40010 	lbu	a0,16(sp)

Disassembly of section .text.__fopen_std:

9d00fab4 <__fopen_std>:
9d00fab4:	27bdffe8 	addiu	sp,sp,-24
9d00fab8:	afb00010 	sw	s0,16(sp)
9d00fabc:	afbf0014 	sw	ra,20(sp)
9d00fac0:	0f403a83 	jal	9d00ea0c <__simple_malloc>
9d00fac4:	24040038 	li	a0,56
9d00fac8:	1040000d 	beqz	v0,9d00fb00 <__fopen_std+0x4c>
9d00facc:	00408025 	move	s0,v0
9d00fad0:	24060038 	li	a2,56
9d00fad4:	00002825 	move	a1,zero
9d00fad8:	0f4040fc 	jal	9d0103f0 <memset>
9d00fadc:	00402025 	move	a0,v0
9d00fae0:	3c029d01 	lui	v0,0x9d01
9d00fae4:	24420464 	addiu	v0,v0,1124
9d00fae8:	ae02002c 	sw	v0,44(s0)
9d00faec:	3c029d01 	lui	v0,0x9d01
9d00faf0:	2442f060 	addiu	v0,v0,-4000
9d00faf4:	ae020030 	sw	v0,48(s0)
9d00faf8:	2402ffff 	li	v0,-1
9d00fafc:	a2020034 	sb	v0,52(s0)
9d00fb00:	8fbf0014 	lw	ra,20(sp)
9d00fb04:	02001025 	move	v0,s0
9d00fb08:	8fb00010 	lw	s0,16(sp)
9d00fb0c:	03e00008 	jr	ra
9d00fb10:	27bd0018 	addiu	sp,sp,24

Disassembly of section .text.sitofp:

9d00fb14 <__floatsisf>:
9d00fb14:	3c018000 10800012 00813024 04810002     ...<....$0......
9d00fb24:	00000000 00042023                       ....# ..

9d00fb2c <i40>:
9d00fb2c:	2405009e 	li	a1,158
9d00fb30:	70873820 	clz	a3,a0
9d00fb34:	00a72823 	subu	a1,a1,a3
9d00fb38:	00e42004 	sllv	a0,a0,a3
9d00fb3c:	24840080 	addiu	a0,a0,128
9d00fb40:	2c880080 	sltiu	t0,a0,128
9d00fb44:	00a82821 	addu	a1,a1,t0
9d00fb48:	00044203 	sra	t0,a0,0x8
9d00fb4c:	31080001 	andi	t0,t0,0x1
9d00fb50:	00882023 	subu	a0,a0,t0
9d00fb54:	00042040 	sll	a0,a0,0x1
9d00fb58:	00042242 	srl	a0,a0,0x9
9d00fb5c:	000545c0 	sll	t0,a1,0x17
9d00fb60:	00882025 	or	a0,a0,t0

9d00fb64 <i39>:
9d00fb64:	00861025 	or	v0,a0,a2

9d00fb68 <E999>:
9d00fb68:	03e00008 	jr	ra
9d00fb6c:	00000000 	nop
9d00fb70:	00000000 	nop

Disassembly of section .text.__fmt_state:

9d00fb74 <__fmt_state>:
9d00fb74:	3c069d01 	lui	a2,0x9d01
9d00fb78:	00001025 	move	v0,zero
9d00fb7c:	24c60698 	addiu	a2,a2,1688
9d00fb80:	00021840 	sll	v1,v0,0x1
9d00fb84:	00661821 	addu	v1,v1,a2
9d00fb88:	80670000 	lb	a3,0(v1)
9d00fb8c:	54e00003 	bnezl	a3,9d00fb9c <__fmt_state+0x28>
9d00fb90:	8c850000 	lw	a1,0(a0)
9d00fb94:	03e00008 	jr	ra
9d00fb98:	90620001 	lbu	v0,1(v1)
9d00fb9c:	24420001 	addiu	v0,v0,1
9d00fba0:	80a80000 	lb	t0,0(a1)
9d00fba4:	15070004 	bne	t0,a3,9d00fbb8 <__fmt_state+0x44>
9d00fba8:	304200ff 	andi	v0,v0,0xff
9d00fbac:	90620001 	lbu	v0,1(v1)
9d00fbb0:	24a50001 	addiu	a1,a1,1
9d00fbb4:	ac850000 	sw	a1,0(a0)
9d00fbb8:	2c43000b 	sltiu	v1,v0,11
9d00fbbc:	1460fff1 	bnez	v1,9d00fb84 <__fmt_state+0x10>
9d00fbc0:	00021840 	sll	v1,v0,0x1
9d00fbc4:	03e00008 	jr	ra
9d00fbc8:	00000000 	nop

Disassembly of section .text.main_entry:

9d00fbcc <_main_entry>:
9d00fbcc:	3c040000 	lui	a0,0x0
9d00fbd0:	27bdffe8 	addiu	sp,sp,-24
9d00fbd4:	24840000 	addiu	a0,a0,0
9d00fbd8:	10800003 	beqz	a0,9d00fbe8 <_main_entry+0x1c>
9d00fbdc:	afbf0014 	sw	ra,20(sp)
9d00fbe0:	0080f809 	jalr	a0
9d00fbe4:	00000000 	nop
9d00fbe8:	30840000 	andi	a0,a0,0x0
9d00fbec:	30a50000 	andi	a1,a1,0x0
9d00fbf0:	3c089d01 	lui	t0,0x9d01
9d00fbf4:	25089ad0 	addiu	t0,t0,-25904
9d00fbf8:	0100f809 	jalr	t0
9d00fbfc:	00000000 	nop

9d00fc00 <__crt0_exit>:
9d00fc00:	3c020000 24420000 10400003 00000000     ...<..B$..@.....
9d00fc10:	0040f809 00000000 1000fff9 00000000     ..@.............

Disassembly of section .text.__uflow:

9d00fc20 <__uflow>:
9d00fc20:	27bdffe0 	addiu	sp,sp,-32
9d00fc24:	afb00018 	sw	s0,24(sp)
9d00fc28:	afbf001c 	sw	ra,28(sp)
9d00fc2c:	0f403bf3 	jal	9d00efcc <__toread>
9d00fc30:	00808025 	move	s0,a0
9d00fc34:	50400006 	beqzl	v0,9d00fc50 <__uflow+0x30>
9d00fc38:	8e020044 	lw	v0,68(s0)
9d00fc3c:	2402ffff 	li	v0,-1
9d00fc40:	8fbf001c 	lw	ra,28(sp)
9d00fc44:	8fb00018 	lw	s0,24(sp)
9d00fc48:	03e00008 	jr	ra
9d00fc4c:	27bd0020 	addiu	sp,sp,32
9d00fc50:	24060001 	li	a2,1
9d00fc54:	27a50010 	addiu	a1,sp,16
9d00fc58:	0040f809 	jalr	v0
9d00fc5c:	02002025 	move	a0,s0
9d00fc60:	24030001 	li	v1,1
9d00fc64:	1443fff5 	bne	v0,v1,9d00fc3c <__uflow+0x1c>
9d00fc68:	93a20010 	lbu	v0,16(sp)
9d00fc6c:	1000fff5 	b	9d00fc44 <__uflow+0x24>
9d00fc70:	8fbf001c 	lw	ra,28(sp)

Disassembly of section .text.__pop_float:

9d00fc74 <__pop_float>:
9d00fc74:	28a30080 	slti	v1,a1,128
9d00fc78:	14600010 	bnez	v1,9d00fcbc <__pop_float+0x48>
9d00fc7c:	00001025 	move	v0,zero
9d00fc80:	28a30082 	slti	v1,a1,130
9d00fc84:	14600003 	bnez	v1,9d00fc94 <__pop_float+0x20>
9d00fc88:	24030083 	li	v1,131
9d00fc8c:	14a3000b 	bne	a1,v1,9d00fcbc <__pop_float+0x48>
9d00fc90:	00000000 	nop
9d00fc94:	8cc20000 	lw	v0,0(a2)
9d00fc98:	24420007 	addiu	v0,v0,7
9d00fc9c:	7c021004 	ins	v0,zero,0x0,0x3
9d00fca0:	24430008 	addiu	v1,v0,8
9d00fca4:	acc30000 	sw	v1,0(a2)
9d00fca8:	8c430004 	lw	v1,4(v0)
9d00fcac:	8c420000 	lw	v0,0(v0)
9d00fcb0:	ac830004 	sw	v1,4(a0)
9d00fcb4:	ac820000 	sw	v0,0(a0)
9d00fcb8:	24020001 	li	v0,1
9d00fcbc:	03e00008 	jr	ra
9d00fcc0:	00000000 	nop

Disassembly of section .text.__stdio_exit:

9d00fcc4 <__stdio_exit>:
9d00fcc4:	27bdffe8 	addiu	sp,sp,-24
9d00fcc8:	afbf0014 	sw	ra,20(sp)
9d00fccc:	0f4041db 	jal	9d01076c <__stdio_exit_ofl>
9d00fcd0:	00000000 	nop
9d00fcd4:	3c02a000 	lui	v0,0xa000
9d00fcd8:	8c4416ec 	lw	a0,5868(v0)
9d00fcdc:	0f40403c 	jal	9d0100f0 <__fclose>
9d00fce0:	00002825 	move	a1,zero
9d00fce4:	3c02a000 	lui	v0,0xa000
9d00fce8:	8c4416ec 	lw	a0,5868(v0)
9d00fcec:	0f40403c 	jal	9d0100f0 <__fclose>
9d00fcf0:	00002825 	move	a1,zero
9d00fcf4:	3c02a000 	lui	v0,0xa000
9d00fcf8:	8c4416ec 	lw	a0,5868(v0)
9d00fcfc:	0f40403c 	jal	9d0100f0 <__fclose>
9d00fd00:	00002825 	move	a1,zero
9d00fd04:	8fbf0014 	lw	ra,20(sp)
9d00fd08:	03e00008 	jr	ra
9d00fd0c:	27bd0018 	addiu	sp,sp,24

Disassembly of section .text._bootstrap_exception_handler:

9d00fd10 <_bootstrap_exception_handler>:
9d00fd10:	3c020000 	lui	v0,0x0
9d00fd14:	24420000 	addiu	v0,v0,0
9d00fd18:	10400005 	beqz	v0,9d00fd30 <_bootstrap_exception_handler+0x20>
9d00fd1c:	3c020000 	lui	v0,0x0
9d00fd20:	24420000 	addiu	v0,v0,0
9d00fd24:	10400003 	beqz	v0,9d00fd34 <_bootstrap_exception_handler+0x24>
9d00fd28:	3c029d01 	lui	v0,0x9d01
9d00fd2c:	7000003f 	sdbbp
9d00fd30:	3c029d01 	lui	v0,0x9d01
9d00fd34:	2442fe78 	addiu	v0,v0,-392
9d00fd38:	10400005 	beqz	v0,9d00fd50 <_bootstrap_exception_handler+0x40>
9d00fd3c:	00000000 	nop
9d00fd40:	27bdffe8 	addiu	sp,sp,-24
9d00fd44:	afbf0014 	sw	ra,20(sp)
9d00fd48:	0040f809 	jalr	v0
9d00fd4c:	00000000 	nop
9d00fd50:	1000ffff 	b	9d00fd50 <_bootstrap_exception_handler+0x40>
9d00fd54:	00000000 	nop

Disassembly of section .text._general_exception_handler:

9d00fd58 <_general_exception_handler>:
9d00fd58:	3c020000 	lui	v0,0x0
9d00fd5c:	24420000 	addiu	v0,v0,0
9d00fd60:	10400005 	beqz	v0,9d00fd78 <_general_exception_handler+0x20>
9d00fd64:	3c020000 	lui	v0,0x0
9d00fd68:	24420000 	addiu	v0,v0,0
9d00fd6c:	10400003 	beqz	v0,9d00fd7c <_general_exception_handler+0x24>
9d00fd70:	3c029d01 	lui	v0,0x9d01
9d00fd74:	7000003f 	sdbbp
9d00fd78:	3c029d01 	lui	v0,0x9d01
9d00fd7c:	2442fe78 	addiu	v0,v0,-392
9d00fd80:	10400005 	beqz	v0,9d00fd98 <_general_exception_handler+0x40>
9d00fd84:	00000000 	nop
9d00fd88:	27bdffe8 	addiu	sp,sp,-24
9d00fd8c:	afbf0014 	sw	ra,20(sp)
9d00fd90:	0040f809 	jalr	v0
9d00fd94:	00000000 	nop
9d00fd98:	1000ffff 	b	9d00fd98 <_general_exception_handler+0x40>
9d00fd9c:	00000000 	nop

Disassembly of section .vector_default:

9d00fda0 <_DefaultInterrupt>:
9d00fda0:	3c020000 	lui	v0,0x0
9d00fda4:	24420000 	addiu	v0,v0,0
9d00fda8:	10400007 	beqz	v0,9d00fdc8 <_DefaultInterrupt+0x28>
9d00fdac:	3c020000 	lui	v0,0x0
9d00fdb0:	24420000 	addiu	v0,v0,0
9d00fdb4:	50400005 	beqzl	v0,9d00fdcc <_DefaultInterrupt+0x2c>
9d00fdb8:	3c029d01 	lui	v0,0x9d01
9d00fdbc:	7000003f 	sdbbp
9d00fdc0:	03e00008 	jr	ra
9d00fdc4:	00000000 	nop
9d00fdc8:	3c029d01 	lui	v0,0x9d01
9d00fdcc:	2442fe78 	addiu	v0,v0,-392
9d00fdd0:	10400003 	beqz	v0,9d00fde0 <_DefaultInterrupt+0x40>
9d00fdd4:	00000000 	nop
9d00fdd8:	0040f809 	jalr	v0
9d00fddc:	00000000 	nop
9d00fde0:	03e00008 	jr	ra
9d00fde4:	00000000 	nop

Disassembly of section .text.__ftello_adj_rw:

9d00fde8 <__ftello_adj_rw>:
9d00fde8:	8c820004 	lw	v0,4(a0)
9d00fdec:	30460002 	andi	a2,v0,0x2
9d00fdf0:	14c00004 	bnez	a2,9d00fe04 <__ftello_adj_rw+0x1c>
9d00fdf4:	00001825 	move	v1,zero
9d00fdf8:	8c830040 	lw	v1,64(a0)
9d00fdfc:	8c86003c 	lw	a2,60(a0)
9d00fe00:	00661823 	subu	v1,v1,a2
9d00fe04:	8c870014 	lw	a3,20(a0)
9d00fe08:	8c860018 	lw	a2,24(a0)
9d00fe0c:	00e62023 	subu	a0,a3,a2
9d00fe10:	00831821 	addu	v1,a0,v1
9d00fe14:	aca30000 	sw	v1,0(a1)
9d00fe18:	30430040 	andi	v1,v0,0x40
9d00fe1c:	10600002 	beqz	v1,9d00fe28 <__ftello_adj_rw+0x40>
9d00fe20:	00001025 	move	v0,zero
9d00fe24:	00c7102b 	sltu	v0,a2,a3
9d00fe28:	03e00008 	jr	ra
9d00fe2c:	00000000 	nop

Disassembly of section .text.__stdio_seek_unbuffered:

9d00fe30 <__stdio_seek_unbuffered>:
9d00fe30:	27bdffe8 	addiu	sp,sp,-24
9d00fe34:	afb00010 	sw	s0,16(sp)
9d00fe38:	00808025 	move	s0,a0
9d00fe3c:	8c840000 	lw	a0,0(a0)
9d00fe40:	afbf0014 	sw	ra,20(sp)
9d00fe44:	0f4041e7 	jal	9d01079c <lseek>
9d00fe48:	00000000 	nop
9d00fe4c:	04400005 	bltz	v0,9d00fe64 <__stdio_seek_unbuffered+0x34>
9d00fe50:	2403ffff 	li	v1,-1
9d00fe54:	8e020004 	lw	v0,4(s0)
9d00fe58:	00001825 	move	v1,zero
9d00fe5c:	7c0218c4 	ins	v0,zero,0x3,0x1
9d00fe60:	ae020004 	sw	v0,4(s0)
9d00fe64:	8fbf0014 	lw	ra,20(sp)
9d00fe68:	00601025 	move	v0,v1
9d00fe6c:	8fb00010 	lw	s0,16(sp)
9d00fe70:	03e00008 	jr	ra
9d00fe74:	27bd0018 	addiu	sp,sp,24

Disassembly of section .text:

9d00fe78 <__pic32_software_reset>:
9d00fe78:	41606000 	di
9d00fe7c:	000000c0 	ehb
9d00fe80:	3c03aa99 	lui	v1,0xaa99
9d00fe84:	3c02bf81 	lui	v0,0xbf81
9d00fe88:	24636655 	addiu	v1,v1,26197
9d00fe8c:	ac40f230 	sw	zero,-3536(v0)
9d00fe90:	ac43f230 	sw	v1,-3536(v0)
9d00fe94:	3c035566 	lui	v1,0x5566
9d00fe98:	346399aa 	ori	v1,v1,0x99aa
9d00fe9c:	ac43f230 	sw	v1,-3536(v0)
9d00fea0:	3c02bf81 	lui	v0,0xbf81
9d00fea4:	24030001 	li	v1,1
9d00fea8:	ac43f618 	sw	v1,-2536(v0)
9d00feac:	3c02bf81 	lui	v0,0xbf81
9d00feb0:	8c42f610 	lw	v0,-2544(v0)
9d00feb4:	0b403fa0 	j	9d00fe80 <__pic32_software_reset+0x8>
9d00feb8:	00000000 	nop

Disassembly of section .text.__towrite:

9d00febc <__towrite>:
9d00febc:	27bdffe8 	addiu	sp,sp,-24
9d00fec0:	afb00010 	sw	s0,16(sp)
9d00fec4:	afbf0014 	sw	ra,20(sp)
9d00fec8:	0f403ff1 	jal	9d00ffc4 <__towrite_rw>
9d00fecc:	00808025 	move	s0,a0
9d00fed0:	14400008 	bnez	v0,9d00fef4 <__towrite+0x38>
9d00fed4:	8fbf0014 	lw	ra,20(sp)
9d00fed8:	8e030008 	lw	v1,8(s0)
9d00fedc:	8e04000c 	lw	a0,12(s0)
9d00fee0:	ae030018 	sw	v1,24(s0)
9d00fee4:	ae030014 	sw	v1,20(s0)
9d00fee8:	00641821 	addu	v1,v1,a0
9d00feec:	ae030028 	sw	v1,40(s0)
9d00fef0:	8fbf0014 	lw	ra,20(sp)
9d00fef4:	8fb00010 	lw	s0,16(sp)
9d00fef8:	03e00008 	jr	ra
9d00fefc:	27bd0018 	addiu	sp,sp,24

Disassembly of section .text._get_heap_left_space:

9d00ff00 <_get_heap_left_space>:
9d00ff00:	3c02a000 	lui	v0,0xa000
9d00ff04:	8c4316e0 	lw	v1,5856(v0)
9d00ff08:	27bdffe8 	addiu	sp,sp,-24
9d00ff0c:	afb00010 	sw	s0,16(sp)
9d00ff10:	afbf0014 	sw	ra,20(sp)
9d00ff14:	14600003 	bnez	v1,9d00ff24 <_get_heap_left_space+0x24>
9d00ff18:	00408025 	move	s0,v0
9d00ff1c:	0f4035f7 	jal	9d00d7dc <_sbrk_init>
9d00ff20:	00000000 	nop
9d00ff24:	3c02a000 	lui	v0,0xa000
9d00ff28:	8c4316e4 	lw	v1,5860(v0)
9d00ff2c:	8fbf0014 	lw	ra,20(sp)
9d00ff30:	8e0216e0 	lw	v0,5856(s0)
9d00ff34:	8fb00010 	lw	s0,16(sp)
9d00ff38:	27bd0018 	addiu	sp,sp,24
9d00ff3c:	03e00008 	jr	ra
9d00ff40:	00621023 	subu	v0,v1,v0

Disassembly of section .text:

9d00ff44 <__floatunsidf>:
9d00ff44:	27bdffe8 	addiu	sp,sp,-24
9d00ff48:	afb00010 	sw	s0,16(sp)
9d00ff4c:	afbf0014 	sw	ra,20(sp)
9d00ff50:	0f403df0 	jal	9d00f7c0 <__floatsidf>
9d00ff54:	00808025 	move	s0,a0
9d00ff58:	06010006 	bgez	s0,9d00ff74 <__floatunsidf+0x30>
9d00ff5c:	00602825 	move	a1,v1
9d00ff60:	3c049d00 	lui	a0,0x9d00
9d00ff64:	8c8674b8 	lw	a2,29880(a0)
9d00ff68:	8c8774bc 	lw	a3,29884(a0)
9d00ff6c:	0f402d06 	jal	9d00b418 <__adddf3>
9d00ff70:	00402025 	move	a0,v0
9d00ff74:	8fbf0014 	lw	ra,20(sp)
9d00ff78:	8fb00010 	lw	s0,16(sp)
9d00ff7c:	03e00008 	jr	ra
9d00ff80:	27bd0018 	addiu	sp,sp,24

Disassembly of section .text.memchr:

9d00ff84 <memchr>:
9d00ff84:	10c0000b 	beqz	a2,9d00ffb4 <memchr+0x30>
9d00ff88:	30a500ff 	andi	a1,a1,0xff
9d00ff8c:	90820000 	lbu	v0,0(a0)
9d00ff90:	1045000a 	beq	v0,a1,9d00ffbc <memchr+0x38>
9d00ff94:	00863021 	addu	a2,a0,a2
9d00ff98:	10000004 	b	9d00ffac <memchr+0x28>
9d00ff9c:	24840001 	addiu	a0,a0,1
9d00ffa0:	10450006 	beq	v0,a1,9d00ffbc <memchr+0x38>
9d00ffa4:	00000000 	nop
9d00ffa8:	24840001 	addiu	a0,a0,1
9d00ffac:	54c4fffc 	bnel	a2,a0,9d00ffa0 <memchr+0x1c>
9d00ffb0:	90820000 	lbu	v0,0(a0)
9d00ffb4:	03e00008 	jr	ra
9d00ffb8:	00001025 	move	v0,zero
9d00ffbc:	03e00008 	jr	ra
9d00ffc0:	00801025 	move	v0,a0

Disassembly of section .text.__towrite_rw:

9d00ffc4 <__towrite_rw>:
9d00ffc4:	80820048 	lb	v0,72(a0)
9d00ffc8:	2443ffff 	addiu	v1,v0,-1
9d00ffcc:	00431025 	or	v0,v0,v1
9d00ffd0:	a0820048 	sb	v0,72(a0)
9d00ffd4:	8c820004 	lw	v0,4(a0)
9d00ffd8:	30430004 	andi	v1,v0,0x4
9d00ffdc:	50600005 	beqzl	v1,9d00fff4 <__towrite_rw+0x30>
9d00ffe0:	ac800040 	sw	zero,64(a0)
9d00ffe4:	34420010 	ori	v0,v0,0x10
9d00ffe8:	ac820004 	sw	v0,4(a0)
9d00ffec:	03e00008 	jr	ra
9d00fff0:	2402ffff 	li	v0,-1
9d00fff4:	ac80003c 	sw	zero,60(a0)
9d00fff8:	03e00008 	jr	ra
9d00fffc:	00001025 	move	v0,zero

Disassembly of section .text.__vfscanf:

9d010000 <__vfscanf>:
9d010000:	27bdffe0 	addiu	sp,sp,-32
9d010004:	afb00018 	sw	s0,24(sp)
9d010008:	afa60010 	sw	a2,16(sp)
9d01000c:	00808025 	move	s0,a0
9d010010:	afbf001c 	sw	ra,28(sp)
9d010014:	0f4023b8 	jal	9d008ee0 <__scanf_core>
9d010018:	27a60010 	addiu	a2,sp,16
9d01001c:	8e030004 	lw	v1,4(s0)
9d010020:	8fbf001c 	lw	ra,28(sp)
9d010024:	2404ffff 	li	a0,-1
9d010028:	30630010 	andi	v1,v1,0x10
9d01002c:	0083100b 	movn	v0,a0,v1
9d010030:	8fb00018 	lw	s0,24(sp)
9d010034:	03e00008 	jr	ra
9d010038:	27bd0020 	addiu	sp,sp,32

Disassembly of section .text.__vfprintf:

9d01003c <__vfprintf>:
9d01003c:	27bdffe0 	addiu	sp,sp,-32
9d010040:	afb00018 	sw	s0,24(sp)
9d010044:	afa60010 	sw	a2,16(sp)
9d010048:	00808025 	move	s0,a0
9d01004c:	afbf001c 	sw	ra,28(sp)
9d010050:	0f40273a 	jal	9d009ce8 <__printf_core>
9d010054:	27a60010 	addiu	a2,sp,16
9d010058:	8e030004 	lw	v1,4(s0)
9d01005c:	8fbf001c 	lw	ra,28(sp)
9d010060:	2404ffff 	li	a0,-1
9d010064:	30630010 	andi	v1,v1,0x10
9d010068:	0083100b 	movn	v0,a0,v1
9d01006c:	8fb00018 	lw	s0,24(sp)
9d010070:	03e00008 	jr	ra
9d010074:	27bd0020 	addiu	sp,sp,32

Disassembly of section .text.logbf:

9d010078 <logbf>:
9d010078:	27bdffe8 	addiu	sp,sp,-24
9d01007c:	afbf0014 	sw	ra,20(sp)
9d010080:	0f4038a4 	jal	9d00e290 <__truncdfsf2>
9d010084:	00000000 	nop
9d010088:	0f403aaf 	jal	9d00eabc <__extendsfdf2>
9d01008c:	00402025 	move	a0,v0
9d010090:	00402025 	move	a0,v0
9d010094:	0f40381c 	jal	9d00e070 <logbl>
9d010098:	00602825 	move	a1,v1
9d01009c:	00402025 	move	a0,v0
9d0100a0:	0f4038a4 	jal	9d00e290 <__truncdfsf2>
9d0100a4:	00602825 	move	a1,v1
9d0100a8:	8fbf0014 	lw	ra,20(sp)
9d0100ac:	03e00008 	jr	ra
9d0100b0:	27bd0018 	addiu	sp,sp,24

Disassembly of section .text.__expand_heap:

9d0100b4 <__expand_heap>:
9d0100b4:	8c840000 	lw	a0,0(a0)
9d0100b8:	04810003 	bgez	a0,9d0100c8 <__expand_heap+0x14>
9d0100bc:	00001025 	move	v0,zero
9d0100c0:	03e00008 	jr	ra
9d0100c4:	00000000 	nop
9d0100c8:	27bdffe8 	addiu	sp,sp,-24
9d0100cc:	afbf0014 	sw	ra,20(sp)
9d0100d0:	0f403ccc 	jal	9d00f330 <_sbrk>
9d0100d4:	00000000 	nop
9d0100d8:	2403ffff 	li	v1,-1
9d0100dc:	50430001 	beql	v0,v1,9d0100e4 <__expand_heap+0x30>
9d0100e0:	00001025 	move	v0,zero
9d0100e4:	8fbf0014 	lw	ra,20(sp)
9d0100e8:	03e00008 	jr	ra
9d0100ec:	27bd0018 	addiu	sp,sp,24

Disassembly of section .text.__fclose:

9d0100f0 <__fclose>:
9d0100f0:	1080000b 	beqz	a0,9d010120 <__fclose+0x30>
9d0100f4:	00001025 	move	v0,zero
9d0100f8:	8c83001c 	lw	v1,28(a0)
9d0100fc:	10600008 	beqz	v1,9d010120 <__fclose+0x30>
9d010100:	00000000 	nop
9d010104:	27bdffe8 	addiu	sp,sp,-24
9d010108:	afbf0014 	sw	ra,20(sp)
9d01010c:	0060f809 	jalr	v1
9d010110:	00000000 	nop
9d010114:	8fbf0014 	lw	ra,20(sp)
9d010118:	03e00008 	jr	ra
9d01011c:	27bd0018 	addiu	sp,sp,24
9d010120:	03e00008 	jr	ra
9d010124:	00000000 	nop

Disassembly of section .text.__fwrite:

9d010128 <__fwrite>:
9d010128:	8c83002c 	lw	v1,44(a0)
9d01012c:	27bdffe8 	addiu	sp,sp,-24
9d010130:	10600006 	beqz	v1,9d01014c <__fwrite+0x24>
9d010134:	afbf0014 	sw	ra,20(sp)
9d010138:	0060f809 	jalr	v1
9d01013c:	00000000 	nop
9d010140:	8fbf0014 	lw	ra,20(sp)
9d010144:	03e00008 	jr	ra
9d010148:	27bd0018 	addiu	sp,sp,24
9d01014c:	0f403d11 	jal	9d00f444 <write>
9d010150:	8c840000 	lw	a0,0(a0)
9d010154:	1000fffb 	b	9d010144 <__fwrite+0x1c>
9d010158:	8fbf0014 	lw	ra,20(sp)

Disassembly of section .text.finitef:

9d01015c <finitef>:
9d01015c:	27bdffe8 	addiu	sp,sp,-24
9d010160:	afbf0014 	sw	ra,20(sp)
9d010164:	0f4038a4 	jal	9d00e290 <__truncdfsf2>
9d010168:	00000000 	nop
9d01016c:	0f403aaf 	jal	9d00eabc <__extendsfdf2>
9d010170:	00402025 	move	a0,v0
9d010174:	00031403 	sra	v0,v1,0x10
9d010178:	8fbf0014 	lw	ra,20(sp)
9d01017c:	30427ff0 	andi	v0,v0,0x7ff0
9d010180:	38427ff0 	xori	v0,v0,0x7ff0
9d010184:	0002102b 	sltu	v0,zero,v0
9d010188:	03e00008 	jr	ra
9d01018c:	27bd0018 	addiu	sp,sp,24

Disassembly of section .text.copysign:

9d010190 <copysign>:
9d010190:	00071c02 	srl	v1,a3,0x10
9d010194:	7c037004 	ins	v1,zero,0x0,0xf
9d010198:	7ca27400 	ext	v0,a1,0x10,0xf
9d01019c:	27bdfff8 	addiu	sp,sp,-8
9d0101a0:	00431025 	or	v0,v0,v1
9d0101a4:	afa50004 	sw	a1,4(sp)
9d0101a8:	afa40000 	sw	a0,0(sp)
9d0101ac:	a7a20006 	sh	v0,6(sp)
9d0101b0:	8fa30004 	lw	v1,4(sp)
9d0101b4:	8fa20000 	lw	v0,0(sp)
9d0101b8:	03e00008 	jr	ra
9d0101bc:	27bd0008 	addiu	sp,sp,8

Disassembly of section .text.strlen:

9d0101c0 <strlen>:
9d0101c0:	80820000 	lb	v0,0(a0)
9d0101c4:	10400008 	beqz	v0,9d0101e8 <strlen+0x28>
9d0101c8:	00000000 	nop
9d0101cc:	00801025 	move	v0,a0
9d0101d0:	24420001 	addiu	v0,v0,1
9d0101d4:	80430000 	lb	v1,0(v0)
9d0101d8:	5460fffe 	bnezl	v1,9d0101d4 <strlen+0x14>
9d0101dc:	24420001 	addiu	v0,v0,1
9d0101e0:	03e00008 	jr	ra
9d0101e4:	00441023 	subu	v0,v0,a0
9d0101e8:	03e00008 	jr	ra
9d0101ec:	00001025 	move	v0,zero

Disassembly of section .text.__sio_sprintf_dn:

9d0101f0 <__sio_sprintf_dn>:
9d0101f0:	27bdffe8 	addiu	sp,sp,-24
9d0101f4:	afbf0014 	sw	ra,20(sp)
9d0101f8:	0f40364c 	jal	9d00d930 <__fmt_d>
9d0101fc:	00000000 	nop
9d010200:	0f403486 	jal	9d00d218 <__pop_int>
9d010204:	00000000 	nop
9d010208:	0f403920 	jal	9d00e480 <__pop_ptr>
9d01020c:	00000000 	nop
9d010210:	8fbf0014 	lw	ra,20(sp)
9d010214:	03e00008 	jr	ra
9d010218:	27bd0018 	addiu	sp,sp,24

Disassembly of section .rodata:

9d01021c <CSWTCH.35>:
9d01021c:	fbceff6b 0000fbce                       k.......

9d010224 <CSWTCH.34>:
9d010224:	00353518                                .55.

9d010228 <p10s.2639>:
9d010228:	0000000a 00000064 000003e8 00002710     ....d........'..
9d010238:	000186a0 000f4240 00989680 05f5e100     ....@B..........

Disassembly of section .text.__shlim:

9d010248 <__shlim>:
9d010248:	8c830040 	lw	v1,64(a0)
9d01024c:	8c86003c 	lw	a2,60(a0)
9d010250:	ac850050 	sw	a1,80(a0)
9d010254:	00661023 	subu	v0,v1,a2
9d010258:	10a00004 	beqz	a1,9d01026c <__shlim+0x24>
9d01025c:	ac820054 	sw	v0,84(a0)
9d010260:	00a2102a 	slt	v0,a1,v0
9d010264:	54400001 	bnezl	v0,9d01026c <__shlim+0x24>
9d010268:	00c51821 	addu	v1,a2,a1
9d01026c:	03e00008 	jr	ra
9d010270:	ac83004c 	sw	v1,76(a0)

Disassembly of section .text.__dummy:

9d010274 <__dummy>:
9d010274:	8c870014 	lw	a3,20(a0)
9d010278:	8c860018 	lw	a2,24(a0)
9d01027c:	8c830004 	lw	v1,4(a0)
9d010280:	00e61023 	subu	v0,a3,a2
9d010284:	30630040 	andi	v1,v1,0x40
9d010288:	aca20000 	sw	v0,0(a1)
9d01028c:	10600002 	beqz	v1,9d010298 <__dummy+0x24>
9d010290:	00001025 	move	v0,zero
9d010294:	00c7102b 	sltu	v0,a2,a3
9d010298:	03e00008 	jr	ra
9d01029c:	00000000 	nop

Disassembly of section .text.__init_stdio:

9d0102a0 <__init_stdio>:
9d0102a0:	27bdffe8 	addiu	sp,sp,-24
9d0102a4:	afbf0014 	sw	ra,20(sp)
9d0102a8:	0f4041e5 	jal	9d010794 <__init_stderr>
9d0102ac:	00000000 	nop
9d0102b0:	0f4041e5 	jal	9d010794 <__init_stderr>
9d0102b4:	00000000 	nop
9d0102b8:	0f4041e5 	jal	9d010794 <__init_stderr>
9d0102bc:	00000000 	nop
9d0102c0:	8fbf0014 	lw	ra,20(sp)
9d0102c4:	03e00008 	jr	ra
9d0102c8:	27bd0018 	addiu	sp,sp,24

Disassembly of section .text.copysignl:

9d0102cc <copysignl>:
9d0102cc:	afa50004 	sw	a1,4(sp)
9d0102d0:	97a20006 	lhu	v0,6(sp)
9d0102d4:	00073c02 	srl	a3,a3,0x10
9d0102d8:	7c077004 	ins	a3,zero,0x0,0xf
9d0102dc:	30427fff 	andi	v0,v0,0x7fff
9d0102e0:	00471025 	or	v0,v0,a3
9d0102e4:	a7a20006 	sh	v0,6(sp)
9d0102e8:	afa40000 	sw	a0,0(sp)
9d0102ec:	8fa20000 	lw	v0,0(sp)
9d0102f0:	03e00008 	jr	ra
9d0102f4:	8fa30004 	lw	v1,4(sp)

Disassembly of section .text.memcpy:

9d0102f8 <memcpy>:
9d0102f8:	10c00008 	beqz	a2,9d01031c <memcpy+0x24>
9d0102fc:	00801025 	move	v0,a0
9d010300:	00863021 	addu	a2,a0,a2
9d010304:	00801825 	move	v1,a0
9d010308:	24a50001 	addiu	a1,a1,1
9d01030c:	90a7ffff 	lbu	a3,-1(a1)
9d010310:	24630001 	addiu	v1,v1,1
9d010314:	1466fffc 	bne	v1,a2,9d010308 <memcpy+0x10>
9d010318:	a067ffff 	sb	a3,-1(v1)
9d01031c:	03e00008 	jr	ra
9d010320:	00000000 	nop

Disassembly of section .text._stub_sbd_memlayout:

9d010324 <_stub_sbd_memlayout>:
9d010324:	3c04a000 	lui	a0,0xa000
9d010328:	248216c8 	addiu	v0,a0,5832
9d01032c:	24030001 	li	v1,1
9d010330:	ac430008 	sw	v1,8(v0)
9d010334:	3c03a000 	lui	v1,0xa000
9d010338:	24631700 	addiu	v1,v1,5888
9d01033c:	ac8316c8 	sw	v1,5832(a0)
9d010340:	3c030000 	lui	v1,0x0
9d010344:	24630000 	addiu	v1,v1,0
9d010348:	03e00008 	jr	ra
9d01034c:	ac430004 	sw	v1,4(v0)

Disassembly of section .text.__wrap_sprintf:

9d010350 <_dsprintf_dn>:
9d010350:	27bdffe0 	addiu	sp,sp,-32
9d010354:	afa60028 	sw	a2,40(sp)
9d010358:	27a60028 	addiu	a2,sp,40
9d01035c:	afbf001c 	sw	ra,28(sp)
9d010360:	afa7002c 	sw	a3,44(sp)
9d010364:	0f4040f2 	jal	9d0103c8 <__vsprintf>
9d010368:	afa60010 	sw	a2,16(sp)
9d01036c:	8fbf001c 	lw	ra,28(sp)
9d010370:	03e00008 	jr	ra
9d010374:	27bd0020 	addiu	sp,sp,32

Disassembly of section .text.__wrap_sscanf:

9d010378 <_dsscanf_eEfFgGn>:
9d010378:	27bdffe0 	addiu	sp,sp,-32
9d01037c:	afa60028 	sw	a2,40(sp)
9d010380:	27a60028 	addiu	a2,sp,40
9d010384:	afbf001c 	sw	ra,28(sp)
9d010388:	afa7002c 	sw	a3,44(sp)
9d01038c:	0f403e62 	jal	9d00f988 <__vsscanf>
9d010390:	afa60010 	sw	a2,16(sp)
9d010394:	8fbf001c 	lw	ra,28(sp)
9d010398:	03e00008 	jr	ra
9d01039c:	27bd0020 	addiu	sp,sp,32

Disassembly of section .text.strtof:

9d0103a0 <strtof>:
9d0103a0:	27bdffe8 	addiu	sp,sp,-24
9d0103a4:	afbf0014 	sw	ra,20(sp)
9d0103a8:	0f403b04 	jal	9d00ec10 <strtox>
9d0103ac:	00003025 	move	a2,zero
9d0103b0:	00402025 	move	a0,v0
9d0103b4:	0f4038a4 	jal	9d00e290 <__truncdfsf2>
9d0103b8:	00602825 	move	a1,v1
9d0103bc:	8fbf0014 	lw	ra,20(sp)
9d0103c0:	03e00008 	jr	ra
9d0103c4:	27bd0018 	addiu	sp,sp,24

Disassembly of section .text.__vsprintf:

9d0103c8 <__vsprintf>:
9d0103c8:	00c03825 	move	a3,a2
9d0103cc:	00a03025 	move	a2,a1
9d0103d0:	3c057fff 	lui	a1,0x7fff
9d0103d4:	27bdffe8 	addiu	sp,sp,-24
9d0103d8:	afbf0014 	sw	ra,20(sp)
9d0103dc:	0f403d33 	jal	9d00f4cc <__vsnprintf>
9d0103e0:	34a5ffff 	ori	a1,a1,0xffff
9d0103e4:	8fbf0014 	lw	ra,20(sp)
9d0103e8:	03e00008 	jr	ra
9d0103ec:	27bd0018 	addiu	sp,sp,24

Disassembly of section .text.memset:

9d0103f0 <memset>:
9d0103f0:	10c00007 	beqz	a2,9d010410 <memset+0x20>
9d0103f4:	00801025 	move	v0,a0
9d0103f8:	7c052c20 	seb	a1,a1
9d0103fc:	00863021 	addu	a2,a0,a2
9d010400:	00801825 	move	v1,a0
9d010404:	24630001 	addiu	v1,v1,1
9d010408:	1466fffe 	bne	v1,a2,9d010404 <memset+0x14>
9d01040c:	a065ffff 	sb	a1,-1(v1)
9d010410:	03e00008 	jr	ra
9d010414:	00000000 	nop

Disassembly of section .text.__init_search_fl:

9d010418 <__init_search_fl>:
9d010418:	3c03a000 	lui	v1,0xa000
9d01041c:	8c6616f4 	lw	a2,5876(v1)
9d010420:	14c00005 	bnez	a2,9d010438 <__init_search_fl+0x20>
9d010424:	00001025 	move	v0,zero
9d010428:	ac6416f4 	sw	a0,5876(v1)
9d01042c:	ac800010 	sw	zero,16(a0)
9d010430:	ac850000 	sw	a1,0(a0)
9d010434:	24020001 	li	v0,1
9d010438:	03e00008 	jr	ra
9d01043c:	00000000 	nop

Disassembly of section .text.isxdigit:

9d010440 <isxdigit>:
9d010440:	2483ffd0 	addiu	v1,a0,-48
9d010444:	2c63000a 	sltiu	v1,v1,10
9d010448:	14600004 	bnez	v1,9d01045c <isxdigit+0x1c>
9d01044c:	24020001 	li	v0,1
9d010450:	34840020 	ori	a0,a0,0x20
9d010454:	2482ff9f 	addiu	v0,a0,-97
9d010458:	2c420006 	sltiu	v0,v0,6
9d01045c:	03e00008 	jr	ra
9d010460:	00000000 	nop

Disassembly of section .text.__fwrite_min:

9d010464 <__stdio_write>:
9d010464:	8c840000 	lw	a0,0(a0)
9d010468:	27bdffe8 	addiu	sp,sp,-24
9d01046c:	afbf0014 	sw	ra,20(sp)
9d010470:	0f403d11 	jal	9d00f444 <write>
9d010474:	00000000 	nop
9d010478:	8fbf0014 	lw	ra,20(sp)
9d01047c:	03e00008 	jr	ra
9d010480:	27bd0018 	addiu	sp,sp,24

Disassembly of section .text.__fseeko:

9d010484 <__fseeko>:
9d010484:	8c820030 	lw	v0,48(a0)
9d010488:	27bdffe8 	addiu	sp,sp,-24
9d01048c:	afbf0014 	sw	ra,20(sp)
9d010490:	0040f809 	jalr	v0
9d010494:	00000000 	nop
9d010498:	8fbf0014 	lw	ra,20(sp)
9d01049c:	03e00008 	jr	ra
9d0104a0:	27bd0018 	addiu	sp,sp,24

Disassembly of section .text:

9d0104a4 <__dinit_copy>:
9d0104a4:	908c0000 	lbu	t4,0(a0)
9d0104a8:	24c6ffff 	addiu	a2,a2,-1
9d0104ac:	24840001 	addiu	a0,a0,1
9d0104b0:	a0ac0000 	sb	t4,0(a1)
9d0104b4:	14c0fffb 	bnez	a2,9d0104a4 <__dinit_copy>
9d0104b8:	24a50001 	addiu	a1,a1,1
9d0104bc:	03e00008 	jr	ra
9d0104c0:	00801025 	move	v0,a0

Disassembly of section .text.__sio_sscanf_eEfFgGn:

9d0104c4 <__sio_sscanf_eEfFgGn>:
9d0104c4:	27bdffe8 	addiu	sp,sp,-24
9d0104c8:	afbf0014 	sw	ra,20(sp)
9d0104cc:	0f402e10 	jal	9d00b840 <__scan_fp>
9d0104d0:	00000000 	nop
9d0104d4:	8fbf0014 	lw	ra,20(sp)
9d0104d8:	03e00008 	jr	ra
9d0104dc:	27bd0018 	addiu	sp,sp,24

Disassembly of section .text.strtod:

9d0104e0 <strtod>:
9d0104e0:	27bdffe8 	addiu	sp,sp,-24
9d0104e4:	afbf0014 	sw	ra,20(sp)
9d0104e8:	0f403b04 	jal	9d00ec10 <strtox>
9d0104ec:	24060001 	li	a2,1
9d0104f0:	8fbf0014 	lw	ra,20(sp)
9d0104f4:	03e00008 	jr	ra
9d0104f8:	27bd0018 	addiu	sp,sp,24

Disassembly of section .text.strtold:

9d0104fc <strtold>:
9d0104fc:	27bdffe8 	addiu	sp,sp,-24
9d010500:	afbf0014 	sw	ra,20(sp)
9d010504:	0f403b04 	jal	9d00ec10 <strtox>
9d010508:	24060002 	li	a2,2
9d01050c:	8fbf0014 	lw	ra,20(sp)
9d010510:	03e00008 	jr	ra
9d010514:	27bd0018 	addiu	sp,sp,24

Disassembly of section .text.__isxdigit_l:

9d010518 <__isxdigit_l>:
9d010518:	27bdffe8 	addiu	sp,sp,-24
9d01051c:	afbf0014 	sw	ra,20(sp)
9d010520:	0f404110 	jal	9d010440 <isxdigit>
9d010524:	00000000 	nop
9d010528:	8fbf0014 	lw	ra,20(sp)
9d01052c:	03e00008 	jr	ra
9d010530:	27bd0018 	addiu	sp,sp,24

Disassembly of section .text.tolower:

9d010534 <tolower>:
9d010534:	2483ffbf 	addiu	v1,a0,-65
9d010538:	2c63001a 	sltiu	v1,v1,26
9d01053c:	10600002 	beqz	v1,9d010548 <tolower+0x14>
9d010540:	00801025 	move	v0,a0
9d010544:	34820020 	ori	v0,a0,0x20
9d010548:	03e00008 	jr	ra
9d01054c:	00000000 	nop

Disassembly of section .text.__tolower_l:

9d010550 <__tolower_l>:
9d010550:	27bdffe8 	addiu	sp,sp,-24
9d010554:	afbf0014 	sw	ra,20(sp)
9d010558:	0f40414d 	jal	9d010534 <tolower>
9d01055c:	00000000 	nop
9d010560:	8fbf0014 	lw	ra,20(sp)
9d010564:	03e00008 	jr	ra
9d010568:	27bd0018 	addiu	sp,sp,24

Disassembly of section .text.do_read:

9d01056c <do_read>:
9d01056c:	27bdffe8 	addiu	sp,sp,-24
9d010570:	afbf0014 	sw	ra,20(sp)
9d010574:	0f403b55 	jal	9d00ed54 <__string_read>
9d010578:	00000000 	nop
9d01057c:	8fbf0014 	lw	ra,20(sp)
9d010580:	03e00008 	jr	ra
9d010584:	27bd0018 	addiu	sp,sp,24

Disassembly of section .text.__toread_needs_stdio_exit:

9d010588 <__toread_needs_stdio_exit>:
9d010588:	27bdffe8 	addiu	sp,sp,-24
9d01058c:	afbf0014 	sw	ra,20(sp)
9d010590:	0f403f31 	jal	9d00fcc4 <__stdio_exit>
9d010594:	00000000 	nop
9d010598:	8fbf0014 	lw	ra,20(sp)
9d01059c:	03e00008 	jr	ra
9d0105a0:	27bd0018 	addiu	sp,sp,24

Disassembly of section .text.putc:

9d0105a4 <putc>:
9d0105a4:	27bdffe8 	addiu	sp,sp,-24
9d0105a8:	afbf0014 	sw	ra,20(sp)
9d0105ac:	0f403e2a 	jal	9d00f8a8 <__putc>
9d0105b0:	00000000 	nop
9d0105b4:	8fbf0014 	lw	ra,20(sp)
9d0105b8:	03e00008 	jr	ra
9d0105bc:	27bd0018 	addiu	sp,sp,24

Disassembly of section .text.__fopen:

9d0105c0 <__fopen>:
9d0105c0:	27bdffe8 	addiu	sp,sp,-24
9d0105c4:	afbf0014 	sw	ra,20(sp)
9d0105c8:	0f403cef 	jal	9d00f3bc <__fopen_rw>
9d0105cc:	00000000 	nop
9d0105d0:	8fbf0014 	lw	ra,20(sp)
9d0105d4:	03e00008 	jr	ra
9d0105d8:	27bd0018 	addiu	sp,sp,24

Disassembly of section .text.__ftello_adj:

9d0105dc <__ftello_adj>:
9d0105dc:	27bdffe8 	addiu	sp,sp,-24
9d0105e0:	afbf0014 	sw	ra,20(sp)
9d0105e4:	0f403f7a 	jal	9d00fde8 <__ftello_adj_rw>
9d0105e8:	00000000 	nop
9d0105ec:	8fbf0014 	lw	ra,20(sp)
9d0105f0:	03e00008 	jr	ra
9d0105f4:	27bd0018 	addiu	sp,sp,24

Disassembly of section .text.logb:

9d0105f8 <logb>:
9d0105f8:	27bdffe8 	addiu	sp,sp,-24
9d0105fc:	afbf0014 	sw	ra,20(sp)
9d010600:	0f40381c 	jal	9d00e070 <logbl>
9d010604:	00000000 	nop
9d010608:	8fbf0014 	lw	ra,20(sp)
9d01060c:	03e00008 	jr	ra
9d010610:	27bd0018 	addiu	sp,sp,24

Disassembly of section .text.drem:

9d010614 <drem>:
9d010614:	27bdffe8 	addiu	sp,sp,-24
9d010618:	afbf0014 	sw	ra,20(sp)
9d01061c:	0f4029d1 	jal	9d00a744 <dreml>
9d010620:	00000000 	nop
9d010624:	8fbf0014 	lw	ra,20(sp)
9d010628:	03e00008 	jr	ra
9d01062c:	27bd0018 	addiu	sp,sp,24

Disassembly of section .text.fabsl:

9d010630 <fabsl>:
9d010630:	27bdffe8 	addiu	sp,sp,-24
9d010634:	afbf0014 	sw	ra,20(sp)
9d010638:	0f4041c1 	jal	9d010704 <fabs>
9d01063c:	00000000 	nop
9d010640:	8fbf0014 	lw	ra,20(sp)
9d010644:	03e00008 	jr	ra
9d010648:	27bd0018 	addiu	sp,sp,24

Disassembly of section .text.scalbnl:

9d01064c <scalbnl>:
9d01064c:	27bdffe8 	addiu	sp,sp,-24
9d010650:	afbf0014 	sw	ra,20(sp)
9d010654:	0f4038e4 	jal	9d00e390 <scalbn>
9d010658:	00000000 	nop
9d01065c:	8fbf0014 	lw	ra,20(sp)
9d010660:	03e00008 	jr	ra
9d010664:	27bd0018 	addiu	sp,sp,24

Disassembly of section .text:

9d010680 <_nmi_handler>:
9d010680:	401a6000 	mfc0	k0,c0_status
9d010684:	3c1bffbf 	lui	k1,0xffbf
9d010688:	377bffff 	ori	k1,k1,0xffff
9d01068c:	035bd024 	and	k0,k0,k1
9d010690:	409a6000 	mtc0	k0,c0_status
9d010694:	42000018 	eret

Disassembly of section .rodata:

9d010698 <state_table>:
9d010698:	096c0768 906a834c c07aa074 88688000     h.l.L.j.t.z...h.
9d0106a8:	826c8400 00008100                       ..l.....

Disassembly of section .text:

9d0106b0 <__dinit_clear>:
9d0106b0:	24c6ffff 	addiu	a2,a2,-1
9d0106b4:	a0a00000 	sb	zero,0(a1)
9d0106b8:	14c0fffd 	bnez	a2,9d0106b0 <__dinit_clear>
9d0106bc:	24a50001 	addiu	a1,a1,1
9d0106c0:	03e00008 	jr	ra
9d0106c4:	00801025 	move	v0,a0

Disassembly of section .rodata:

9d0106c8 <_dinit_func_table>:
9d0106c8:	9d0106b0 9d0104a4 9d00f64c 9d00f64c     ........L...L...
9d0106d8:	9d00f64c                                L...

Disassembly of section .text.finitel:

9d0106dc <finitel>:
9d0106dc:	00051403 	sra	v0,a1,0x10
9d0106e0:	30427ff0 	andi	v0,v0,0x7ff0
9d0106e4:	38427ff0 	xori	v0,v0,0x7ff0
9d0106e8:	03e00008 	jr	ra
9d0106ec:	0002102b 	sltu	v0,zero,v0

Disassembly of section .text.finite:

9d0106f0 <finite>:
9d0106f0:	00051403 	sra	v0,a1,0x10
9d0106f4:	30427ff0 	andi	v0,v0,0x7ff0
9d0106f8:	38427ff0 	xori	v0,v0,0x7ff0
9d0106fc:	03e00008 	jr	ra
9d010700:	0002102b 	sltu	v0,zero,v0

Disassembly of section .text.fabs:

9d010704 <fabs>:
9d010704:	7ca6f000 	ext	a2,a1,0x0,0x1f
9d010708:	00801025 	move	v0,a0
9d01070c:	03e00008 	jr	ra
9d010710:	00c01825 	move	v1,a2

Disassembly of section .text.__get_stderr:

9d010714 <__get_stderr>:
9d010714:	3c02a000 	lui	v0,0xa000
9d010718:	03e00008 	jr	ra
9d01071c:	24420024 	addiu	v0,v0,36

Disassembly of section .text.__get_stdout:

9d010720 <__get_stdout>:
9d010720:	3c02a000 	lui	v0,0xa000
9d010724:	03e00008 	jr	ra
9d010728:	24420084 	addiu	v0,v0,132

Disassembly of section .text._on_reset:

9d01072c <_on_reset>:
9d01072c:	03e00008 	jr	ra
9d010730:	00000000 	nop

Disassembly of section .text._on_bootstrap:

9d010734 <_on_bootstrap>:
9d010734:	03e00008 	jr	ra
9d010738:	00000000 	nop

Disassembly of section .text.__dummy_fmt3:

9d01073c <__fmt_o>:
9d01073c:	03e00008 	jr	ra
9d010740:	00001025 	move	v0,zero

Disassembly of section .text.__dummy_fmt4:

9d010744 <__fmt_a>:
9d010744:	03e00008 	jr	ra
9d010748:	00001025 	move	v0,zero

Disassembly of section .text.__dummy_fmts:

9d01074c <__fmt_s>:
9d01074c:	03e00008 	jr	ra
9d010750:	00001025 	move	v0,zero

Disassembly of section .text.__dummy_scan:

9d010754 <__scan_a>:
9d010754:	03e00008 	jr	ra
9d010758:	00001025 	move	v0,zero

Disassembly of section .text.__dummy_scan_s:

9d01075c <__scan_s>:
9d01075c:	03e00008 	jr	ra
9d010760:	00001025 	move	v0,zero

Disassembly of section .text.__dummy:

9d010764 <__dummy>:
9d010764:	03e00008 	jr	ra
9d010768:	00000000 	nop

9d01076c <__stdio_exit_ofl>:
9d01076c:	03e00008 	jr	ra
9d010770:	00000000 	nop

Disassembly of section .text.__dummy1:

9d010774 <__dummy1>:
9d010774:	03e00008 	jr	ra
9d010778:	00001025 	move	v0,zero

Disassembly of section .text.__dummy:

9d01077c <__dummy>:
9d01077c:	03e00008 	jr	ra
9d010780:	00000000 	nop

9d010784 <__dummy>:
9d010784:	03e00008 	jr	ra
9d010788:	00001025 	move	v0,zero

Disassembly of section .text.__dummy:

9d01078c <__dummy>:
9d01078c:	03e00008 	jr	ra
9d010790:	00001025 	move	v0,zero

9d010794 <__init_stderr>:
9d010794:	03e00008 	jr	ra
9d010798:	00000000 	nop

Disassembly of section .text.lseek:

9d01079c <lseek>:
9d01079c:	03e00008 	jr	ra
9d0107a0:	00001025 	move	v0,zero

Disassembly of section .text.close:

9d0107a4 <close>:
9d0107a4:	03e00008 	jr	ra
9d0107a8:	00001025 	move	v0,zero

Disassembly of section .text.getpagesize:

9d0107ac <getpagesize>:
9d0107ac:	03e00008 	jr	ra
9d0107b0:	24020080 	li	v0,128
