
out.elf:     file format elf32-tradlittlemips


Disassembly of section .reset:

bd007000 <_reset>:
bd007000:	0f401c02 	jal	bd007008 <_startup>
bd007004:	00000000 	nop

bd007008 <_startup>:
bd007008:	401a6000 	mfc0	k0,c0_status
bd00700c:	7f5a04c0 	ext	k0,k0,0x13,0x1
bd007010:	13400005 	beqz	k0,bd007028 <_no_nmi>
bd007014:	00000000 	nop
bd007018:	3c1a9d01 	lui	k0,0x9d01
bd00701c:	275a93f0 	addiu	k0,k0,-27664
bd007020:	03400008 	jr	k0
bd007024:	00000000 	nop

bd007028 <_no_nmi>:
bd007028:	3c1da001 	lui	sp,0xa001
bd00702c:	27bdfff8 	addiu	sp,sp,-8
bd007030:	3c1ca000 	lui	gp,0xa000
bd007034:	279c7ff0 	addiu	gp,gp,32752
bd007038:	3c089d01 	lui	t0,0x9d01
bd00703c:	2508942c 	addiu	t0,t0,-27604
bd007040:	0100f809 	jalr	t0
bd007044:	00000000 	nop
bd007048:	3c089d01 	lui	t0,0x9d01
bd00704c:	250891dc 	addiu	t0,t0,-28196
bd007050:	0100f809 	jalr	t0
bd007054:	00000000 	nop
bd007058:	3c090000 	lui	t1,0x0
bd00705c:	25290000 	addiu	t1,t1,0
bd007060:	11200010 	beqz	t1,bd0070a4 <_ramfunc_done>
bd007064:	00000000 	nop
bd007068:	3c090001 	lui	t1,0x1
bd00706c:	25290000 	addiu	t1,t1,0
bd007070:	3c0abf88 	lui	t2,0xbf88
bd007074:	254a2010 	addiu	t2,t2,8208
bd007078:	ad490000 	sw	t1,0(t2)
bd00707c:	3c090001 	lui	t1,0x1
bd007080:	25290000 	addiu	t1,t1,0
bd007084:	3c0abf88 	lui	t2,0xbf88
bd007088:	254a2020 	addiu	t2,t2,8224
bd00708c:	ad490000 	sw	t1,0(t2)
bd007090:	3c090001 	lui	t1,0x1
bd007094:	25290000 	addiu	t1,t1,0
bd007098:	3c0abf88 	lui	t2,0xbf88
bd00709c:	254a2030 	addiu	t2,t2,8240
bd0070a0:	ad490000 	sw	t1,0(t2)

bd0070a4 <_ramfunc_done>:
bd0070a4:	40804800 	mtc0	zero,c0_count
bd0070a8:	240affff 	li	t2,-1
bd0070ac:	408a5800 	mtc0	t2,c0_compare
bd0070b0:	3c080040 	lui	t0,0x40
bd0070b4:	400a6000 	mfc0	t2,c0_status
bd0070b8:	010a5025 	or	t2,t0,t2
bd0070bc:	408a6000 	mtc0	t2,c0_status
bd0070c0:	3c099d00 	lui	t1,0x9d00
bd0070c4:	25296000 	addiu	t1,t1,24576
bd0070c8:	000000c0 	ehb
bd0070cc:	40897801 	mtc0	t1,c0_ebase
bd0070d0:	3c090000 	lui	t1,0x0
bd0070d4:	25290001 	addiu	t1,t1,1
bd0070d8:	240a0000 	li	t2,0
bd0070dc:	7d2a4944 	ins	t2,t1,0x5,0x5
bd0070e0:	408a6001 	mtc0	t2,c0_intctl
bd0070e4:	3c090080 	lui	t1,0x80
bd0070e8:	40896800 	mtc0	t1,c0_cause
bd0070ec:	40088000 	mfc0	t0,c0_config
bd0070f0:	7d090580 	ext	t1,t0,0x16,0x1
bd0070f4:	00094c40 	sll	t1,t1,0x11
bd0070f8:	40086000 	mfc0	t0,c0_status
bd0070fc:	3c010058 	lui	at,0x58
bd007100:	01014024 	and	t0,t0,at
bd007104:	01284025 	or	t0,t1,t0
bd007108:	40886000 	mtc0	t0,c0_status
bd00710c:	000000c0 	ehb
bd007110:	3c089d01 	lui	t0,0x9d01
bd007114:	25089434 	addiu	t0,t0,-27596
bd007118:	0100f809 	jalr	t0
bd00711c:	00000000 	nop
bd007120:	40086000 	mfc0	t0,c0_status
bd007124:	3c01ffbf 	lui	at,0xffbf
bd007128:	3421ffff 	ori	at,at,0xffff
bd00712c:	01014024 	and	t0,t0,at
bd007130:	40886000 	mtc0	t0,c0_status
bd007134:	30840000 	andi	a0,a0,0x0
bd007138:	30a50000 	andi	a1,a1,0x0
bd00713c:	3c089d01 	lui	t0,0x9d01
bd007140:	25089250 	addiu	t0,t0,-28080
bd007144:	01000008 	jr	t0
bd007148:	00000000 	nop

Disassembly of section .bev_excpt:

bfc07380 <_bev_exception>:
bfc07380:	3c1a9d01 	lui	k0,0x9d01
bfc07384:	275a92a4 	addiu	k0,k0,-27996
bfc07388:	03400008 	jr	k0
bfc0738c:	00000000 	nop

Disassembly of section .app_excpt:

9d006180 <_gen_exception>:
9d006180:	3c1a9d01 	lui	k0,0x9d01
9d006184:	275a90f8 	addiu	k0,k0,-28424
9d006188:	03400008 	jr	k0
9d00618c:	00000000 	nop

Disassembly of section .vector_0:

9d006200 <__vector_dispatch_0>:
9d006200:	0b4024cd 	j	9d009334 <_DefaultInterrupt>
9d006204:	00000000 	nop

Disassembly of section .vector_1:

9d006220 <__vector_dispatch_1>:
9d006220:	0b4024cd 	j	9d009334 <_DefaultInterrupt>
9d006224:	00000000 	nop

Disassembly of section .vector_2:

9d006240 <__vector_dispatch_2>:
9d006240:	0b4024cd 	j	9d009334 <_DefaultInterrupt>
9d006244:	00000000 	nop

Disassembly of section .vector_3:

9d006260 <__vector_dispatch_3>:
9d006260:	0b4024cd 	j	9d009334 <_DefaultInterrupt>
9d006264:	00000000 	nop

Disassembly of section .vector_4:

9d006280 <__vector_dispatch_4>:
9d006280:	0b4024cd 	j	9d009334 <_DefaultInterrupt>
9d006284:	00000000 	nop

Disassembly of section .vector_5:

9d0062a0 <__vector_dispatch_5>:
9d0062a0:	0b4024cd 	j	9d009334 <_DefaultInterrupt>
9d0062a4:	00000000 	nop

Disassembly of section .vector_6:

9d0062c0 <__vector_dispatch_6>:
9d0062c0:	0b4024cd 	j	9d009334 <_DefaultInterrupt>
9d0062c4:	00000000 	nop

Disassembly of section .vector_7:

9d0062e0 <__vector_dispatch_7>:
9d0062e0:	0b4024cd 	j	9d009334 <_DefaultInterrupt>
9d0062e4:	00000000 	nop

Disassembly of section .vector_8:

9d006300 <__vector_dispatch_8>:
9d006300:	0b4024cd 	j	9d009334 <_DefaultInterrupt>
9d006304:	00000000 	nop

Disassembly of section .vector_9:

9d006320 <__vector_dispatch_9>:
9d006320:	0b4024cd 	j	9d009334 <_DefaultInterrupt>
9d006324:	00000000 	nop

Disassembly of section .vector_10:

9d006340 <__vector_dispatch_10>:
9d006340:	0b4024cd 	j	9d009334 <_DefaultInterrupt>
9d006344:	00000000 	nop

Disassembly of section .vector_11:

9d006360 <__vector_dispatch_11>:
9d006360:	0b4024cd 	j	9d009334 <_DefaultInterrupt>
9d006364:	00000000 	nop

Disassembly of section .vector_12:

9d006380 <__vector_dispatch_12>:
9d006380:	0b4024cd 	j	9d009334 <_DefaultInterrupt>
9d006384:	00000000 	nop

Disassembly of section .vector_13:

9d0063a0 <__vector_dispatch_13>:
9d0063a0:	0b4024cd 	j	9d009334 <_DefaultInterrupt>
9d0063a4:	00000000 	nop

Disassembly of section .vector_14:

9d0063c0 <__vector_dispatch_14>:
9d0063c0:	0b4024cd 	j	9d009334 <_DefaultInterrupt>
9d0063c4:	00000000 	nop

Disassembly of section .vector_15:

9d0063e0 <__vector_dispatch_15>:
9d0063e0:	0b4024cd 	j	9d009334 <_DefaultInterrupt>
9d0063e4:	00000000 	nop

Disassembly of section .vector_16:

9d006400 <__vector_dispatch_16>:
9d006400:	0b4024cd 	j	9d009334 <_DefaultInterrupt>
9d006404:	00000000 	nop

Disassembly of section .vector_17:

9d006420 <__vector_dispatch_17>:
9d006420:	0b4024cd 	j	9d009334 <_DefaultInterrupt>
9d006424:	00000000 	nop

Disassembly of section .vector_18:

9d006440 <__vector_dispatch_18>:
9d006440:	0b4024cd 	j	9d009334 <_DefaultInterrupt>
9d006444:	00000000 	nop

Disassembly of section .vector_19:

9d006460 <__vector_dispatch_19>:
9d006460:	0b4024cd 	j	9d009334 <_DefaultInterrupt>
9d006464:	00000000 	nop

Disassembly of section .vector_20:

9d006480 <__vector_dispatch_20>:
9d006480:	0b4024cd 	j	9d009334 <_DefaultInterrupt>
9d006484:	00000000 	nop

Disassembly of section .vector_21:

9d0064a0 <__vector_dispatch_21>:
9d0064a0:	0b4024cd 	j	9d009334 <_DefaultInterrupt>
9d0064a4:	00000000 	nop

Disassembly of section .vector_22:

9d0064c0 <__vector_dispatch_22>:
9d0064c0:	0b4024cd 	j	9d009334 <_DefaultInterrupt>
9d0064c4:	00000000 	nop

Disassembly of section .vector_23:

9d0064e0 <__vector_dispatch_23>:
9d0064e0:	0b4024cd 	j	9d009334 <_DefaultInterrupt>
9d0064e4:	00000000 	nop

Disassembly of section .vector_24:

9d006500 <__vector_dispatch_24>:
9d006500:	0b4024cd 	j	9d009334 <_DefaultInterrupt>
9d006504:	00000000 	nop

Disassembly of section .vector_25:

9d006520 <__vector_dispatch_25>:
9d006520:	0b4024cd 	j	9d009334 <_DefaultInterrupt>
9d006524:	00000000 	nop

Disassembly of section .vector_26:

9d006540 <__vector_dispatch_26>:
9d006540:	0b4024cd 	j	9d009334 <_DefaultInterrupt>
9d006544:	00000000 	nop

Disassembly of section .vector_27:

9d006560 <__vector_dispatch_27>:
9d006560:	0b4024cd 	j	9d009334 <_DefaultInterrupt>
9d006564:	00000000 	nop

Disassembly of section .vector_28:

9d006580 <__vector_dispatch_28>:
9d006580:	0b4024cd 	j	9d009334 <_DefaultInterrupt>
9d006584:	00000000 	nop

Disassembly of section .vector_29:

9d0065a0 <__vector_dispatch_29>:
9d0065a0:	0b4024cd 	j	9d009334 <_DefaultInterrupt>
9d0065a4:	00000000 	nop

Disassembly of section .vector_30:

9d0065c0 <__vector_dispatch_30>:
9d0065c0:	0b4024cd 	j	9d009334 <_DefaultInterrupt>
9d0065c4:	00000000 	nop

Disassembly of section .vector_31:

9d0065e0 <__vector_dispatch_31>:
9d0065e0:	0b4024cd 	j	9d009334 <_DefaultInterrupt>
9d0065e4:	00000000 	nop

Disassembly of section .vector_32:

9d006600 <__vector_dispatch_32>:
9d006600:	0b4024cd 	j	9d009334 <_DefaultInterrupt>
9d006604:	00000000 	nop

Disassembly of section .vector_33:

9d006620 <__vector_dispatch_33>:
9d006620:	0b4024cd 	j	9d009334 <_DefaultInterrupt>
9d006624:	00000000 	nop

Disassembly of section .vector_34:

9d006640 <__vector_dispatch_34>:
9d006640:	0b4024cd 	j	9d009334 <_DefaultInterrupt>
9d006644:	00000000 	nop

Disassembly of section .vector_35:

9d006660 <__vector_dispatch_35>:
9d006660:	0b4024cd 	j	9d009334 <_DefaultInterrupt>
9d006664:	00000000 	nop

Disassembly of section .vector_36:

9d006680 <__vector_dispatch_36>:
9d006680:	0b4024cd 	j	9d009334 <_DefaultInterrupt>
9d006684:	00000000 	nop

Disassembly of section .vector_37:

9d0066a0 <__vector_dispatch_37>:
9d0066a0:	0b4024cd 	j	9d009334 <_DefaultInterrupt>
9d0066a4:	00000000 	nop

Disassembly of section .vector_38:

9d0066c0 <__vector_dispatch_38>:
9d0066c0:	0b4024cd 	j	9d009334 <_DefaultInterrupt>
9d0066c4:	00000000 	nop

Disassembly of section .vector_39:

9d0066e0 <__vector_dispatch_39>:
9d0066e0:	0b4024cd 	j	9d009334 <_DefaultInterrupt>
9d0066e4:	00000000 	nop

Disassembly of section .vector_40:

9d006700 <__vector_dispatch_40>:
9d006700:	0b4024cd 	j	9d009334 <_DefaultInterrupt>
9d006704:	00000000 	nop

Disassembly of section .vector_41:

9d006720 <__vector_dispatch_41>:
9d006720:	0b4024cd 	j	9d009334 <_DefaultInterrupt>
9d006724:	00000000 	nop

Disassembly of section .vector_42:

9d006740 <__vector_dispatch_42>:
9d006740:	0b4024cd 	j	9d009334 <_DefaultInterrupt>
9d006744:	00000000 	nop

Disassembly of section .vector_43:

9d006760 <__vector_dispatch_43>:
9d006760:	0b4024cd 	j	9d009334 <_DefaultInterrupt>
9d006764:	00000000 	nop

Disassembly of section ._debug_exception:

bfc00480 <__DbgExecReturn>:
bfc00480:	409bf800 	mtc0	k1,c0_desave
bfc00484:	000000c0 	ehb
bfc00488:	3c1b9d01 	lui	k1,0x9d01
bfc0048c:	277b937c 	addiu	k1,k1,-27780
bfc00490:	13600002 	beqz	k1,bfc0049c <__DbgExecReturn+0x1c>
bfc00494:	00000000 	nop
bfc00498:	409bc000 	mtc0	k1,c0_depc
bfc0049c:	401bf800 	mfc0	k1,c0_desave
bfc004a0:	000000c0 	ehb
bfc004a4:	4200001f 	deret
bfc004a8:	00000000 	nop

Disassembly of section .text.dp32mul:

9d007490 <__divdf3>:
9d007490:	00055040 000a5542 00054ac0 00047d42     @P..BU...J..B}..
9d0074a0:	012f4825 000442c0 3c0e8000 012e4825     %H/..B.....<%H..
9d0074b0:	00076840 000d6d42 000762c0 00067d42     @h..Bm...b..B}..
9d0074c0:	018f6025 00065ac0 018e6025 00a72826     %`...Z..%`..&(..
9d0074d0:	00ae2824 254fffff 2de107fe 102000cb     $(....O%...-.. .
9d0074e0:	00000000                                ....

9d0074e4 <Dlab1>:
9d0074e4:	25afffff 	addiu	t7,t5,-1
9d0074e8:	2de107fe 	sltiu	at,t7,2046
9d0074ec:	102000f4 	beqz	at,9d0078c0 <DspecB>
9d0074f0:	00000000 	nop

9d0074f4 <Dlab2>:
9d0074f4:	014d5023 	subu	t2,t2,t5
9d0074f8:	254a03ff 	addiu	t2,t2,1023
9d0074fc:	00084042 	srl	t0,t0,0x1
9d007500:	00097fc0 	sll	t7,t1,0x1f
9d007504:	010f4025 	or	t0,t0,t7
9d007508:	00094842 	srl	t1,t1,0x1
9d00750c:	000c3c02 	srl	a3,t4,0x10
9d007510:	00e001f4 	teq	a3,zero,0x7
9d007514:	0127001b 	divu	zero,t1,a3
9d007518:	00007012 	mflo	t6
9d00751c:	00004810 	mfhi	t1
9d007520:	3186ffff 	andi	a2,t4,0xffff
9d007524:	00ce0019 	multu	a2,t6
9d007528:	00002012 	mflo	a0
9d00752c:	00094c00 	sll	t1,t1,0x10
9d007530:	00087c02 	srl	t7,t0,0x10
9d007534:	012f4825 	or	t1,t1,t7
9d007538:	0124782b 	sltu	t7,t1,a0
9d00753c:	11e00006 	beqz	t7,9d007558 <i20>
9d007540:	01244823 	subu	t1,t1,a0

9d007544 <b21>:
9d007544:	25ceffff 	addiu	t6,t6,-1
9d007548:	012c4821 	addu	t1,t1,t4
9d00754c:	012c082b 	sltu	at,t1,t4
9d007550:	1020fffc 	beqz	at,9d007544 <b21>
9d007554:	00000000 	nop

9d007558 <i20>:
9d007558:	00e001f4 	teq	a3,zero,0x7
9d00755c:	0127001b 	divu	zero,t1,a3
9d007560:	00003812 	mflo	a3
9d007564:	00004810 	mfhi	t1
9d007568:	00c70019 	multu	a2,a3
9d00756c:	00002012 	mflo	a0
9d007570:	00094c00 	sll	t1,t1,0x10
9d007574:	310fffff 	andi	t7,t0,0xffff
9d007578:	012f4825 	or	t1,t1,t7
9d00757c:	0124782b 	sltu	t7,t1,a0
9d007580:	11e00006 	beqz	t7,9d00759c <i22>
9d007584:	01244823 	subu	t1,t1,a0

9d007588 <b23>:
9d007588:	24e7ffff 	addiu	a3,a3,-1
9d00758c:	012c4821 	addu	t1,t1,t4
9d007590:	012c082b 	sltu	at,t1,t4
9d007594:	1020fffc 	beqz	at,9d007588 <b23>
9d007598:	00000000 	nop

9d00759c <i22>:
9d00759c:	000e7400 	sll	t6,t6,0x10
9d0075a0:	01c77021 	addu	t6,t6,a3
9d0075a4:	01cb0019 	multu	t6,t3
9d0075a8:	00003812 	mflo	a3
9d0075ac:	00002010 	mfhi	a0
9d0075b0:	24080000 	li	t0,0
9d0075b4:	0107782b 	sltu	t7,t0,a3
9d0075b8:	01074023 	subu	t0,t0,a3
9d0075bc:	012f102b 	sltu	v0,t1,t7
9d0075c0:	012f4823 	subu	t1,t1,t7
9d0075c4:	0124782b 	sltu	t7,t1,a0
9d0075c8:	01e27825 	or	t7,t7,v0
9d0075cc:	11e0000b 	beqz	t7,9d0075fc <i24>
9d0075d0:	01244823 	subu	t1,t1,a0

9d0075d4 <Dlab3>:
9d0075d4:	25ceffff 	addiu	t6,t6,-1
9d0075d8:	010b4021 	addu	t0,t0,t3
9d0075dc:	010b782b 	sltu	t7,t0,t3
9d0075e0:	012c4821 	addu	t1,t1,t4
9d0075e4:	012f4821 	addu	t1,t1,t7
9d0075e8:	112c0002 	beq	t1,t4,9d0075f4 <L31>
9d0075ec:	00000000 	nop
9d0075f0:	012c782b 	sltu	t7,t1,t4

9d0075f4 <L31>:
9d0075f4:	11e0fff7 	beqz	t7,9d0075d4 <Dlab3>
9d0075f8:	00000000 	nop

9d0075fc <i24>:
9d0075fc:	152c0006 	bne	t1,t4,9d007618 <i25>
9d007600:	00000000 	nop
9d007604:	000b2025 	or	a0,zero,t3
9d007608:	00084825 	or	t1,zero,t0
9d00760c:	240d0000 	li	t5,0
9d007610:	1000002a 	b	9d0076bc <e25>
9d007614:	000d3825 	or	a3,zero,t5

9d007618 <i25>:
9d007618:	000c3c02 	srl	a3,t4,0x10
9d00761c:	00e001f4 	teq	a3,zero,0x7
9d007620:	0127001b 	divu	zero,t1,a3
9d007624:	00006812 	mflo	t5
9d007628:	00004810 	mfhi	t1
9d00762c:	3186ffff 	andi	a2,t4,0xffff
9d007630:	00cd0019 	multu	a2,t5
9d007634:	00002012 	mflo	a0
9d007638:	00094c00 	sll	t1,t1,0x10
9d00763c:	00087c02 	srl	t7,t0,0x10
9d007640:	012f4825 	or	t1,t1,t7
9d007644:	0124782b 	sltu	t7,t1,a0
9d007648:	11e00006 	beqz	t7,9d007664 <i26>
9d00764c:	01244823 	subu	t1,t1,a0

9d007650 <b27>:
9d007650:	25adffff 	addiu	t5,t5,-1
9d007654:	012c4821 	addu	t1,t1,t4
9d007658:	012c082b 	sltu	at,t1,t4
9d00765c:	1020fffc 	beqz	at,9d007650 <b27>
9d007660:	00000000 	nop

9d007664 <i26>:
9d007664:	00e001f4 	teq	a3,zero,0x7
9d007668:	0127001b 	divu	zero,t1,a3
9d00766c:	00003812 	mflo	a3
9d007670:	00004810 	mfhi	t1
9d007674:	00c70019 	multu	a2,a3
9d007678:	00002012 	mflo	a0
9d00767c:	00094c00 	sll	t1,t1,0x10
9d007680:	310fffff 	andi	t7,t0,0xffff
9d007684:	012f4825 	or	t1,t1,t7
9d007688:	0124782b 	sltu	t7,t1,a0
9d00768c:	11e00006 	beqz	t7,9d0076a8 <i28>
9d007690:	01244823 	subu	t1,t1,a0

9d007694 <b29>:
9d007694:	24e7ffff 	addiu	a3,a3,-1
9d007698:	012c4821 	addu	t1,t1,t4
9d00769c:	012c082b 	sltu	at,t1,t4
9d0076a0:	1020fffc 	beqz	at,9d007694 <b29>
9d0076a4:	00000000 	nop

9d0076a8 <i28>:
9d0076a8:	000d6c00 	sll	t5,t5,0x10
9d0076ac:	01a76821 	addu	t5,t5,a3
9d0076b0:	01ab0019 	multu	t5,t3
9d0076b4:	00003812 	mflo	a3
9d0076b8:	00002010 	mfhi	a0

9d0076bc <e25>:
9d0076bc:	24080000 	li	t0,0
9d0076c0:	0107782b 	sltu	t7,t0,a3
9d0076c4:	01074023 	subu	t0,t0,a3
9d0076c8:	012f102b 	sltu	v0,t1,t7
9d0076cc:	012f4823 	subu	t1,t1,t7
9d0076d0:	0124782b 	sltu	t7,t1,a0
9d0076d4:	01e27825 	or	t7,t7,v0
9d0076d8:	11e0000b 	beqz	t7,9d007708 <i30>
9d0076dc:	01244823 	subu	t1,t1,a0

9d0076e0 <Dlab4>:
9d0076e0:	25adffff 	addiu	t5,t5,-1
9d0076e4:	010b4021 	addu	t0,t0,t3
9d0076e8:	010b782b 	sltu	t7,t0,t3
9d0076ec:	012c4821 	addu	t1,t1,t4
9d0076f0:	012f4821 	addu	t1,t1,t7
9d0076f4:	112c0002 	beq	t1,t4,9d007700 <L32>
9d0076f8:	00000000 	nop
9d0076fc:	012c782b 	sltu	t7,t1,t4

9d007700 <L32>:
9d007700:	11e0fff7 	beqz	t7,9d0076e0 <Dlab4>
9d007704:	00000000 	nop

9d007708 <i30>:
9d007708:	05c00006 	bltz	t6,9d007724 <i31>
9d00770c:	00000000 	nop
9d007710:	01a0782a 	slt	t7,t5,zero
9d007714:	01ad6821 	addu	t5,t5,t5
9d007718:	01ce7021 	addu	t6,t6,t6
9d00771c:	01cf7021 	addu	t6,t6,t7
9d007720:	254affff 	addiu	t2,t2,-1

9d007724 <i31>:
9d007724:	01287825 	or	t7,t1,t0
9d007728:	11e00002 	beqz	t7,9d007734 <i32>
9d00772c:	00000000 	nop
9d007730:	35ad0001 	ori	t5,t5,0x1

9d007734 <i32>:
9d007734:	000e4825 	or	t1,zero,t6
9d007738:	000d4025 	or	t0,zero,t5
9d00773c:	254fffff 	addiu	t7,t2,-1
9d007740:	2de107fe 	sltiu	at,t7,2046
9d007744:	10200015 	beqz	at,9d00779c <Doveund>
9d007748:	00000000 	nop
9d00774c:	25080400 	addiu	t0,t0,1024
9d007750:	2d0f0400 	sltiu	t7,t0,1024
9d007754:	012f4821 	addu	t1,t1,t7
9d007758:	012f782b 	sltu	t7,t1,t7
9d00775c:	014f5021 	addu	t2,t2,t7

9d007760 <Dlab8>:
9d007760:	00087ac2 	srl	t7,t0,0xb
9d007764:	31ef0001 	andi	t7,t7,0x1
9d007768:	010f4023 	subu	t0,t0,t7
9d00776c:	000822c2 	srl	a0,t0,0xb
9d007770:	00097d40 	sll	t7,t1,0x15
9d007774:	008f2025 	or	a0,a0,t7
9d007778:	00097840 	sll	t7,t1,0x1
9d00777c:	000f7b02 	srl	t7,t7,0xc
9d007780:	00af2825 	or	a1,a1,t7
9d007784:	000a7d00 	sll	t7,t2,0x14
9d007788:	00af2825 	or	a1,a1,t7

9d00778c <Dret>:
9d00778c:	00041025 	or	v0,zero,a0
9d007790:	00051825 	or	v1,zero,a1

9d007794 <D999>:
9d007794:	03e00008 	jr	ra
9d007798:	00000000 	nop

9d00779c <Doveund>:
9d00779c:	1d400044 	bgtz	t2,9d0078b0 <Dinf>
9d0077a0:	00000000 	nop
9d0077a4:	240e0001 	li	t6,1
9d0077a8:	01ca7023 	subu	t6,t6,t2

9d0077ac <L33>:
9d0077ac:	2dc10020 	sltiu	at,t6,32
9d0077b0:	14200007 	bnez	at,9d0077d0 <L34>
9d0077b4:	00000000 	nop
9d0077b8:	21ceffe0 	addi	t6,t6,-32
9d0077bc:	0008202b 	sltu	a0,zero,t0
9d0077c0:	1009000d 	beq	zero,t1,9d0077f8 <L35>
9d0077c4:	01244025 	or	t0,t1,a0
9d0077c8:	1000fff8 	b	9d0077ac <L33>
9d0077cc:	34090000 	li	t1,0x0

9d0077d0 <L34>:
9d0077d0:	11c00009 	beqz	t6,9d0077f8 <L35>
9d0077d4:	00000000 	nop
9d0077d8:	000e3022 	neg	a2,t6
9d0077dc:	00c82004 	sllv	a0,t0,a2
9d0077e0:	00c93004 	sllv	a2,t1,a2
9d0077e4:	01c84006 	srlv	t0,t0,t6
9d0077e8:	01c94806 	srlv	t1,t1,t6
9d0077ec:	10800002 	beqz	a0,9d0077f8 <L35>
9d0077f0:	00c84025 	or	t0,a2,t0
9d0077f4:	35080002 	ori	t0,t0,0x2

9d0077f8 <L35>:
9d0077f8:	25080400 	addiu	t0,t0,1024
9d0077fc:	2d0f0400 	sltiu	t7,t0,1024
9d007800:	012f4821 	addu	t1,t1,t7
9d007804:	1000ffd6 	b	9d007760 <Dlab8>
9d007808:	000957c2 	srl	t2,t1,0x1f

9d00780c <DspecA>:
9d00780c:	0100782a 	slt	t7,t0,zero
9d007810:	01084021 	addu	t0,t0,t0
9d007814:	01294821 	addu	t1,t1,t1
9d007818:	15400017 	bnez	t2,9d007878 <i33>
9d00781c:	012f4821 	addu	t1,t1,t7
9d007820:	01287825 	or	t7,t1,t0
9d007824:	11e00014 	beqz	t7,9d007878 <i33>
9d007828:	00000000 	nop
9d00782c:	15200008 	bnez	t1,9d007850 <L36>
9d007830:	00000000 	nop
9d007834:	15000003 	bnez	t0,9d007844 <L37>
9d007838:	00000000 	nop
9d00783c:	1000ff29 	b	9d0074e4 <Dlab1>
9d007840:	240a0000 	li	t2,0

9d007844 <L37>:
9d007844:	01004825 	move	t1,t0
9d007848:	24080000 	li	t0,0
9d00784c:	254affe0 	addiu	t2,t2,-32

9d007850 <L36>:
9d007850:	712e7020 	clz	t6,t1
9d007854:	11c0ff23 	beqz	t6,9d0074e4 <Dlab1>
9d007858:	00000000 	nop
9d00785c:	014e5023 	subu	t2,t2,t6
9d007860:	000e3022 	neg	a2,t6
9d007864:	00c83006 	srlv	a2,t0,a2
9d007868:	01c84004 	sllv	t0,t0,t6
9d00786c:	01c94804 	sllv	t1,t1,t6
9d007870:	1000ff1c 	b	9d0074e4 <Dlab1>
9d007874:	01264825 	or	t1,t1,a2

9d007878 <i33>:
9d007878:	154d0005 	bne	t2,t5,9d007890 <i35>
9d00787c:	00000000 	nop
9d007880:	000c7840 	sll	t7,t4,0x1
9d007884:	01eb7825 	or	t7,t7,t3
9d007888:	11e0002b 	beqz	t7,9d007938 <Dnan>
9d00788c:	00000000 	nop

9d007890 <i35>:
9d007890:	240107ff 	li	at,2047
9d007894:	11a1000a 	beq	t5,at,9d0078c0 <DspecB>
9d007898:	00000000 	nop
9d00789c:	1140ffbb 	beqz	t2,9d00778c <Dret>
9d0078a0:	00000000 	nop
9d0078a4:	01287825 	or	t7,t1,t0
9d0078a8:	15e00023 	bnez	t7,9d007938 <Dnan>
9d0078ac:	00000000 	nop

9d0078b0 <Dinf>:
9d0078b0:	3c017ff0 	lui	at,0x7ff0
9d0078b4:	00a12825 	or	a1,a1,at
9d0078b8:	1000ffb4 	b	9d00778c <Dret>
9d0078bc:	24040000 	li	a0,0

9d0078c0 <DspecB>:
9d0078c0:	0160782a 	slt	t7,t3,zero
9d0078c4:	016b5821 	addu	t3,t3,t3
9d0078c8:	018c6021 	addu	t4,t4,t4
9d0078cc:	15a00017 	bnez	t5,9d00792c <i36>
9d0078d0:	018f6021 	addu	t4,t4,t7
9d0078d4:	018b7825 	or	t7,t4,t3
9d0078d8:	11e0fff5 	beqz	t7,9d0078b0 <Dinf>
9d0078dc:	00000000 	nop
9d0078e0:	15800008 	bnez	t4,9d007904 <L39>
9d0078e4:	00000000 	nop
9d0078e8:	15600003 	bnez	t3,9d0078f8 <L40>
9d0078ec:	00000000 	nop
9d0078f0:	1000ff00 	b	9d0074f4 <Dlab2>
9d0078f4:	240d0000 	li	t5,0

9d0078f8 <L40>:
9d0078f8:	01606025 	move	t4,t3
9d0078fc:	240b0000 	li	t3,0
9d007900:	25adffe0 	addiu	t5,t5,-32

9d007904 <L39>:
9d007904:	718e7020 	clz	t6,t4
9d007908:	11c0fefa 	beqz	t6,9d0074f4 <Dlab2>
9d00790c:	00000000 	nop
9d007910:	01ae6823 	subu	t5,t5,t6
9d007914:	000e3022 	neg	a2,t6
9d007918:	00cb3006 	srlv	a2,t3,a2
9d00791c:	01cb5804 	sllv	t3,t3,t6
9d007920:	01cc6004 	sllv	t4,t4,t6
9d007924:	1000fef3 	b	9d0074f4 <Dlab2>
9d007928:	01866025 	or	t4,t4,a2

9d00792c <i36>:
9d00792c:	018b7825 	or	t7,t4,t3
9d007930:	11e00002 	beqz	t7,9d00793c <i38>
9d007934:	00000000 	nop

9d007938 <Dnan>:
9d007938:	3c05fff8 	lui	a1,0xfff8

9d00793c <i38>:
9d00793c:	1000ff93 	b	9d00778c <Dret>
9d007940:	24040000 	li	a0,0
9d007944:	00000000 	nop

Disassembly of section .text:

9d007948 <__divdi3>:
9d007948:	04a10007 	bgez	a1,9d007968 <__divdi3+0x20>
9d00794c:	00005025 	move	t2,zero
9d007950:	00041023 	negu	v0,a0
9d007954:	0002182b 	sltu	v1,zero,v0
9d007958:	00052823 	negu	a1,a1
9d00795c:	00402025 	move	a0,v0
9d007960:	00a32823 	subu	a1,a1,v1
9d007964:	240affff 	li	t2,-1
9d007968:	04e10008 	bgez	a3,9d00798c <__divdi3+0x44>
9d00796c:	00c04025 	move	t0,a2
9d007970:	00061023 	negu	v0,a2
9d007974:	0002182b 	sltu	v1,zero,v0
9d007978:	00073823 	negu	a3,a3
9d00797c:	000a5027 	nor	t2,zero,t2
9d007980:	00403025 	move	a2,v0
9d007984:	00e33823 	subu	a3,a3,v1
9d007988:	00c04025 	move	t0,a2
9d00798c:	00e01825 	move	v1,a3
9d007990:	00804825 	move	t1,a0
9d007994:	14e000ab 	bnez	a3,9d007c44 <__divdi3+0x2fc>
9d007998:	00a01025 	move	v0,a1
9d00799c:	00a6302b 	sltu	a2,a1,a2
9d0079a0:	10c0003c 	beqz	a2,9d007a94 <__divdi3+0x14c>
9d0079a4:	00000000 	nop
9d0079a8:	71052820 	clz	a1,t0
9d0079ac:	10a00006 	beqz	a1,9d0079c8 <__divdi3+0x80>
9d0079b0:	00a22004 	sllv	a0,v0,a1
9d0079b4:	00051023 	negu	v0,a1
9d0079b8:	00491006 	srlv	v0,t1,v0
9d0079bc:	00a84004 	sllv	t0,t0,a1
9d0079c0:	00441025 	or	v0,v0,a0
9d0079c4:	00a94804 	sllv	t1,t1,a1
9d0079c8:	00083402 	srl	a2,t0,0x10
9d0079cc:	0046001b 	divu	zero,v0,a2
9d0079d0:	00c001f4 	teq	a2,zero,0x7
9d0079d4:	310bffff 	andi	t3,t0,0xffff
9d0079d8:	00091402 	srl	v0,t1,0x10
9d0079dc:	00003812 	mflo	a3
9d0079e0:	00002010 	mfhi	a0
9d0079e4:	00042400 	sll	a0,a0,0x10
9d0079e8:	00821025 	or	v0,a0,v0
9d0079ec:	71676002 	mul	t4,t3,a3
9d0079f0:	004c202b 	sltu	a0,v0,t4
9d0079f4:	1080000a 	beqz	a0,9d007a20 <__divdi3+0xd8>
9d0079f8:	00e02825 	move	a1,a3
9d0079fc:	00481021 	addu	v0,v0,t0
9d007a00:	0048202b 	sltu	a0,v0,t0
9d007a04:	14800006 	bnez	a0,9d007a20 <__divdi3+0xd8>
9d007a08:	24e5ffff 	addiu	a1,a3,-1
9d007a0c:	004c202b 	sltu	a0,v0,t4
9d007a10:	50800004 	beqzl	a0,9d007a24 <__divdi3+0xdc>
9d007a14:	004c1023 	subu	v0,v0,t4
9d007a18:	24e5fffe 	addiu	a1,a3,-2
9d007a1c:	00481021 	addu	v0,v0,t0
9d007a20:	004c1023 	subu	v0,v0,t4
9d007a24:	0046001b 	divu	zero,v0,a2
9d007a28:	00c001f4 	teq	a2,zero,0x7
9d007a2c:	3129ffff 	andi	t1,t1,0xffff
9d007a30:	00001012 	mflo	v0
9d007a34:	00003010 	mfhi	a2
9d007a38:	00063400 	sll	a2,a2,0x10
9d007a3c:	00c94825 	or	t1,a2,t1
9d007a40:	71625802 	mul	t3,t3,v0
9d007a44:	012b302b 	sltu	a2,t1,t3
9d007a48:	10c00008 	beqz	a2,9d007a6c <__divdi3+0x124>
9d007a4c:	00402025 	move	a0,v0
9d007a50:	01094821 	addu	t1,t0,t1
9d007a54:	0128402b 	sltu	t0,t1,t0
9d007a58:	15000004 	bnez	t0,9d007a6c <__divdi3+0x124>
9d007a5c:	2444ffff 	addiu	a0,v0,-1
9d007a60:	012b482b 	sltu	t1,t1,t3
9d007a64:	55200001 	bnezl	t1,9d007a6c <__divdi3+0x124>
9d007a68:	2444fffe 	addiu	a0,v0,-2
9d007a6c:	00051400 	sll	v0,a1,0x10
9d007a70:	00441025 	or	v0,v0,a0
9d007a74:	11400005 	beqz	t2,9d007a8c <__divdi3+0x144>
9d007a78:	00000000 	nop
9d007a7c:	00021023 	negu	v0,v0
9d007a80:	0002202b 	sltu	a0,zero,v0
9d007a84:	00031823 	negu	v1,v1
9d007a88:	00641823 	subu	v1,v1,a0
9d007a8c:	03e00008 	jr	ra
9d007a90:	00000000 	nop
9d007a94:	15000006 	bnez	t0,9d007ab0 <__divdi3+0x168>
9d007a98:	710b5820 	clz	t3,t0
9d007a9c:	24080001 	li	t0,1
9d007aa0:	0107001b 	divu	zero,t0,a3
9d007aa4:	00e001f4 	teq	a3,zero,0x7
9d007aa8:	00004012 	mflo	t0
9d007aac:	710b5820 	clz	t3,t0
9d007ab0:	1560002d 	bnez	t3,9d007b68 <__divdi3+0x220>
9d007ab4:	24030001 	li	v1,1
9d007ab8:	00a82823 	subu	a1,a1,t0
9d007abc:	00083c02 	srl	a3,t0,0x10
9d007ac0:	00a7001b 	divu	zero,a1,a3
9d007ac4:	00e001f4 	teq	a3,zero,0x7
9d007ac8:	310bffff 	andi	t3,t0,0xffff
9d007acc:	00091402 	srl	v0,t1,0x10
9d007ad0:	00002812 	mflo	a1
9d007ad4:	00002010 	mfhi	a0
9d007ad8:	00042400 	sll	a0,a0,0x10
9d007adc:	00821025 	or	v0,a0,v0
9d007ae0:	71656002 	mul	t4,t3,a1
9d007ae4:	004c202b 	sltu	a0,v0,t4
9d007ae8:	1080000a 	beqz	a0,9d007b14 <__divdi3+0x1cc>
9d007aec:	00a03025 	move	a2,a1
9d007af0:	00481021 	addu	v0,v0,t0
9d007af4:	0048202b 	sltu	a0,v0,t0
9d007af8:	14800006 	bnez	a0,9d007b14 <__divdi3+0x1cc>
9d007afc:	24a6ffff 	addiu	a2,a1,-1
9d007b00:	004c202b 	sltu	a0,v0,t4
9d007b04:	50800004 	beqzl	a0,9d007b18 <__divdi3+0x1d0>
9d007b08:	004c1023 	subu	v0,v0,t4
9d007b0c:	24a6fffe 	addiu	a2,a1,-2
9d007b10:	00481021 	addu	v0,v0,t0
9d007b14:	004c1023 	subu	v0,v0,t4
9d007b18:	0047001b 	divu	zero,v0,a3
9d007b1c:	00e001f4 	teq	a3,zero,0x7
9d007b20:	3129ffff 	andi	t1,t1,0xffff
9d007b24:	00001012 	mflo	v0
9d007b28:	00003810 	mfhi	a3
9d007b2c:	00073c00 	sll	a3,a3,0x10
9d007b30:	00e93825 	or	a3,a3,t1
9d007b34:	71622802 	mul	a1,t3,v0
9d007b38:	00e5482b 	sltu	t1,a3,a1
9d007b3c:	11200008 	beqz	t1,9d007b60 <__divdi3+0x218>
9d007b40:	00402025 	move	a0,v0
9d007b44:	01073821 	addu	a3,t0,a3
9d007b48:	00e8402b 	sltu	t0,a3,t0
9d007b4c:	15000004 	bnez	t0,9d007b60 <__divdi3+0x218>
9d007b50:	2444ffff 	addiu	a0,v0,-1
9d007b54:	00e5382b 	sltu	a3,a3,a1
9d007b58:	54e00001 	bnezl	a3,9d007b60 <__divdi3+0x218>
9d007b5c:	2444fffe 	addiu	a0,v0,-2
9d007b60:	1000ffc3 	b	9d007a70 <__divdi3+0x128>
9d007b64:	00061400 	sll	v0,a2,0x10
9d007b68:	24070020 	li	a3,32
9d007b6c:	00eb3823 	subu	a3,a3,t3
9d007b70:	01684004 	sllv	t0,t0,t3
9d007b74:	01651004 	sllv	v0,a1,t3
9d007b78:	00081c02 	srl	v1,t0,0x10
9d007b7c:	00e52806 	srlv	a1,a1,a3
9d007b80:	00a3001b 	divu	zero,a1,v1
9d007b84:	006001f4 	teq	v1,zero,0x7
9d007b88:	3106ffff 	andi	a2,t0,0xffff
9d007b8c:	00e44806 	srlv	t1,a0,a3
9d007b90:	01224825 	or	t1,t1,v0
9d007b94:	00091402 	srl	v0,t1,0x10
9d007b98:	00002812 	mflo	a1
9d007b9c:	00003810 	mfhi	a3
9d007ba0:	00073c00 	sll	a3,a3,0x10
9d007ba4:	00e23825 	or	a3,a3,v0
9d007ba8:	70c56002 	mul	t4,a2,a1
9d007bac:	00ec682b 	sltu	t5,a3,t4
9d007bb0:	11a0000a 	beqz	t5,9d007bdc <__divdi3+0x294>
9d007bb4:	00a01025 	move	v0,a1
9d007bb8:	00e83821 	addu	a3,a3,t0
9d007bbc:	00e8682b 	sltu	t5,a3,t0
9d007bc0:	15a00006 	bnez	t5,9d007bdc <__divdi3+0x294>
9d007bc4:	24a2ffff 	addiu	v0,a1,-1
9d007bc8:	00ec682b 	sltu	t5,a3,t4
9d007bcc:	51a00004 	beqzl	t5,9d007be0 <__divdi3+0x298>
9d007bd0:	00ec3823 	subu	a3,a3,t4
9d007bd4:	24a2fffe 	addiu	v0,a1,-2
9d007bd8:	00e83821 	addu	a3,a3,t0
9d007bdc:	00ec3823 	subu	a3,a3,t4
9d007be0:	00e3001b 	divu	zero,a3,v1
9d007be4:	006001f4 	teq	v1,zero,0x7
9d007be8:	3125ffff 	andi	a1,t1,0xffff
9d007bec:	00001812 	mflo	v1
9d007bf0:	00003810 	mfhi	a3
9d007bf4:	00073c00 	sll	a3,a3,0x10
9d007bf8:	00e52825 	or	a1,a3,a1
9d007bfc:	70c33002 	mul	a2,a2,v1
9d007c00:	00a6482b 	sltu	t1,a1,a2
9d007c04:	1120000a 	beqz	t1,9d007c30 <__divdi3+0x2e8>
9d007c08:	00603825 	move	a3,v1
9d007c0c:	00a82821 	addu	a1,a1,t0
9d007c10:	00a8482b 	sltu	t1,a1,t0
9d007c14:	15200006 	bnez	t1,9d007c30 <__divdi3+0x2e8>
9d007c18:	2467ffff 	addiu	a3,v1,-1
9d007c1c:	00a6482b 	sltu	t1,a1,a2
9d007c20:	51200004 	beqzl	t1,9d007c34 <__divdi3+0x2ec>
9d007c24:	00021c00 	sll	v1,v0,0x10
9d007c28:	2467fffe 	addiu	a3,v1,-2
9d007c2c:	00a82821 	addu	a1,a1,t0
9d007c30:	00021c00 	sll	v1,v0,0x10
9d007c34:	01644804 	sllv	t1,a0,t3
9d007c38:	00a62823 	subu	a1,a1,a2
9d007c3c:	1000ff9f 	b	9d007abc <__divdi3+0x174>
9d007c40:	00671825 	or	v1,v1,a3
9d007c44:	00a7402b 	sltu	t0,a1,a3
9d007c48:	00001825 	move	v1,zero
9d007c4c:	1500ff89 	bnez	t0,9d007a74 <__divdi3+0x12c>
9d007c50:	00001025 	move	v0,zero
9d007c54:	70eb5820 	clz	t3,a3
9d007c58:	15600007 	bnez	t3,9d007c78 <__divdi3+0x330>
9d007c5c:	24090020 	li	t1,32
9d007c60:	00e5282b 	sltu	a1,a3,a1
9d007c64:	14a0ff83 	bnez	a1,9d007a74 <__divdi3+0x12c>
9d007c68:	24020001 	li	v0,1
9d007c6c:	0086102b 	sltu	v0,a0,a2
9d007c70:	1000ff80 	b	9d007a74 <__divdi3+0x12c>
9d007c74:	38420001 	xori	v0,v0,0x1
9d007c78:	012b4823 	subu	t1,t1,t3
9d007c7c:	01261006 	srlv	v0,a2,t1
9d007c80:	01673804 	sllv	a3,a3,t3
9d007c84:	00473825 	or	a3,v0,a3
9d007c88:	00074402 	srl	t0,a3,0x10
9d007c8c:	01651004 	sllv	v0,a1,t3
9d007c90:	01252806 	srlv	a1,a1,t1
9d007c94:	00a8001b 	divu	zero,a1,t0
9d007c98:	010001f4 	teq	t0,zero,0x7
9d007c9c:	30ecffff 	andi	t4,a3,0xffff
9d007ca0:	01241806 	srlv	v1,a0,t1
9d007ca4:	00621025 	or	v0,v1,v0
9d007ca8:	00021c02 	srl	v1,v0,0x10
9d007cac:	00002812 	mflo	a1
9d007cb0:	00004810 	mfhi	t1
9d007cb4:	00094c00 	sll	t1,t1,0x10
9d007cb8:	01234825 	or	t1,t1,v1
9d007cbc:	71856802 	mul	t5,t4,a1
9d007cc0:	012d702b 	sltu	t6,t1,t5
9d007cc4:	11c0000a 	beqz	t6,9d007cf0 <__divdi3+0x3a8>
9d007cc8:	00a01825 	move	v1,a1
9d007ccc:	01274821 	addu	t1,t1,a3
9d007cd0:	0127702b 	sltu	t6,t1,a3
9d007cd4:	15c00006 	bnez	t6,9d007cf0 <__divdi3+0x3a8>
9d007cd8:	24a3ffff 	addiu	v1,a1,-1
9d007cdc:	012d702b 	sltu	t6,t1,t5
9d007ce0:	51c00004 	beqzl	t6,9d007cf4 <__divdi3+0x3ac>
9d007ce4:	012d4823 	subu	t1,t1,t5
9d007ce8:	24a3fffe 	addiu	v1,a1,-2
9d007cec:	01274821 	addu	t1,t1,a3
9d007cf0:	012d4823 	subu	t1,t1,t5
9d007cf4:	0128001b 	divu	zero,t1,t0
9d007cf8:	010001f4 	teq	t0,zero,0x7
9d007cfc:	3045ffff 	andi	a1,v0,0xffff
9d007d00:	00004012 	mflo	t0
9d007d04:	00004810 	mfhi	t1
9d007d08:	00094c00 	sll	t1,t1,0x10
9d007d0c:	01252825 	or	a1,t1,a1
9d007d10:	71886002 	mul	t4,t4,t0
9d007d14:	00ac102b 	sltu	v0,a1,t4
9d007d18:	1040000a 	beqz	v0,9d007d44 <__divdi3+0x3fc>
9d007d1c:	01004825 	move	t1,t0
9d007d20:	00a72821 	addu	a1,a1,a3
9d007d24:	00a7102b 	sltu	v0,a1,a3
9d007d28:	14400006 	bnez	v0,9d007d44 <__divdi3+0x3fc>
9d007d2c:	2509ffff 	addiu	t1,t0,-1
9d007d30:	00ac102b 	sltu	v0,a1,t4
9d007d34:	10400004 	beqz	v0,9d007d48 <__divdi3+0x400>
9d007d38:	00031400 	sll	v0,v1,0x10
9d007d3c:	2509fffe 	addiu	t1,t0,-2
9d007d40:	00a72821 	addu	a1,a1,a3
9d007d44:	00031400 	sll	v0,v1,0x10
9d007d48:	01663004 	sllv	a2,a2,t3
9d007d4c:	00491025 	or	v0,v0,t1
9d007d50:	00c20019 	multu	a2,v0
9d007d54:	00ac2823 	subu	a1,a1,t4
9d007d58:	00003810 	mfhi	a3
9d007d5c:	00a7182b 	sltu	v1,a1,a3
9d007d60:	14600007 	bnez	v1,9d007d80 <__divdi3+0x438>
9d007d64:	00003012 	mflo	a2
9d007d68:	14a7ff42 	bne	a1,a3,9d007a74 <__divdi3+0x12c>
9d007d6c:	00001825 	move	v1,zero
9d007d70:	01642004 	sllv	a0,a0,t3
9d007d74:	0086202b 	sltu	a0,a0,a2
9d007d78:	1080ff3e 	beqz	a0,9d007a74 <__divdi3+0x12c>
9d007d7c:	00000000 	nop
9d007d80:	2442ffff 	addiu	v0,v0,-1
9d007d84:	1000ff3b 	b	9d007a74 <__divdi3+0x12c>
9d007d88:	00001825 	move	v1,zero

Disassembly of section .text.dp32subadd:

9d007d8c <__subdf3>:
9d007d8c:	3c018000 00e13826                       ...<&8..

9d007d94 <__adddf3>:
9d007d94:	00055840 000b5d42 000552c0 00047d42     @X..B]...R..B}..
9d007da4:	014f5025 00044ac0 3c088000 01485025     %PO..J.....<%PH.
9d007db4:	00077040 000e7542 00076ac0 00067d42     @p..Bu...j..B}..
9d007dc4:	01af6825 000662c0 01a86825 256fffff     %h...b..%h....o%
9d007dd4:	2de107fe 1020008d 00000000              ...-.. .....

9d007de0 <Blab1>:
9d007de0:	25cfffff 	addiu	t7,t6,-1
9d007de4:	2de107fe 	sltiu	at,t7,2046
9d007de8:	102000bb 	beqz	at,9d0080d8 <BspecB>
9d007dec:	00000000 	nop

9d007df0 <Blab2>:
9d007df0:	3c018000 	lui	at,0x8000
9d007df4:	00a12824 	and	a1,a1,at
9d007df8:	016e4023 	subu	t0,t3,t6
9d007dfc:	1100002c 	beqz	t0,9d007eb0 <Badd3>
9d007e00:	00000000 	nop
9d007e04:	19000015 	blez	t0,9d007e5c <i1>
9d007e08:	00000000 	nop

9d007e0c <L1>:
9d007e0c:	2d010020 	sltiu	at,t0,32
9d007e10:	14200007 	bnez	at,9d007e30 <L2>
9d007e14:	00000000 	nop
9d007e18:	2108ffe0 	addi	t0,t0,-32
9d007e1c:	000c302b 	sltu	a2,zero,t4
9d007e20:	100d0023 	beq	zero,t5,9d007eb0 <Badd3>
9d007e24:	01a66025 	or	t4,t5,a2
9d007e28:	1000fff8 	b	9d007e0c <L1>
9d007e2c:	340d0000 	li	t5,0x0

9d007e30 <L2>:
9d007e30:	1100001f 	beqz	t0,9d007eb0 <Badd3>
9d007e34:	00000000 	nop
9d007e38:	00082022 	neg	a0,t0
9d007e3c:	008c3004 	sllv	a2,t4,a0
9d007e40:	008d2004 	sllv	a0,t5,a0
9d007e44:	010c6006 	srlv	t4,t4,t0
9d007e48:	010d6806 	srlv	t5,t5,t0
9d007e4c:	10c00018 	beqz	a2,9d007eb0 <Badd3>
9d007e50:	008c6025 	or	t4,a0,t4
9d007e54:	10000016 	b	9d007eb0 <Badd3>
9d007e58:	358c0002 	ori	t4,t4,0x2

9d007e5c <i1>:
9d007e5c:	000e5825 	or	t3,zero,t6
9d007e60:	00084023 	negu	t0,t0

9d007e64 <L4>:
9d007e64:	2d010020 	sltiu	at,t0,32
9d007e68:	14200007 	bnez	at,9d007e88 <L5>
9d007e6c:	00000000 	nop
9d007e70:	2108ffe0 	addi	t0,t0,-32
9d007e74:	0009302b 	sltu	a2,zero,t1
9d007e78:	100a000d 	beq	zero,t2,9d007eb0 <Badd3>
9d007e7c:	01464825 	or	t1,t2,a2
9d007e80:	1000fff8 	b	9d007e64 <L4>
9d007e84:	340a0000 	li	t2,0x0

9d007e88 <L5>:
9d007e88:	11000009 	beqz	t0,9d007eb0 <Badd3>
9d007e8c:	00000000 	nop
9d007e90:	00082022 	neg	a0,t0
9d007e94:	00893004 	sllv	a2,t1,a0
9d007e98:	008a2004 	sllv	a0,t2,a0
9d007e9c:	01094806 	srlv	t1,t1,t0
9d007ea0:	010a5006 	srlv	t2,t2,t0
9d007ea4:	10c00002 	beqz	a2,9d007eb0 <Badd3>
9d007ea8:	00894825 	or	t1,a0,t1
9d007eac:	35290002 	ori	t1,t1,0x2

9d007eb0 <Badd3>:
9d007eb0:	00a77826 	xor	t7,a1,a3
9d007eb4:	05e0001c 	bltz	t7,9d007f28 <Bsub1>
9d007eb8:	00000000 	nop
9d007ebc:	012c4821 	addu	t1,t1,t4
9d007ec0:	012c782b 	sltu	t7,t1,t4
9d007ec4:	014d5021 	addu	t2,t2,t5
9d007ec8:	014f5021 	addu	t2,t2,t7
9d007ecc:	114d0002 	beq	t2,t5,9d007ed8 <L7>
9d007ed0:	00000000 	nop
9d007ed4:	014d782b 	sltu	t7,t2,t5

9d007ed8 <L7>:
9d007ed8:	11e00037 	beqz	t7,9d007fb8 <Bres>
9d007edc:	00000000 	nop
9d007ee0:	312f0001 	andi	t7,t1,0x1
9d007ee4:	11e00002 	beqz	t7,9d007ef0 <i3>
9d007ee8:	00000000 	nop
9d007eec:	35290002 	ori	t1,t1,0x2

9d007ef0 <i3>:
9d007ef0:	00094842 	srl	t1,t1,0x1
9d007ef4:	000a7fc0 	sll	t7,t2,0x1f
9d007ef8:	012f4825 	or	t1,t1,t7
9d007efc:	000a5042 	srl	t2,t2,0x1
9d007f00:	3c018000 	lui	at,0x8000
9d007f04:	01415025 	or	t2,t2,at
9d007f08:	256b0001 	addiu	t3,t3,1
9d007f0c:	240107ff 	li	at,2047
9d007f10:	15610029 	bne	t3,at,9d007fb8 <Bres>
9d007f14:	00000000 	nop
9d007f18:	3c017ff0 	lui	at,0x7ff0
9d007f1c:	00a12825 	or	a1,a1,at
9d007f20:	10000037 	b	9d008000 <BretA>
9d007f24:	24040000 	li	a0,0

9d007f28 <Bsub1>:
9d007f28:	012c782b 	sltu	t7,t1,t4
9d007f2c:	012c4823 	subu	t1,t1,t4
9d007f30:	014f102b 	sltu	v0,t2,t7
9d007f34:	014f5023 	subu	t2,t2,t7
9d007f38:	014d782b 	sltu	t7,t2,t5
9d007f3c:	01e27825 	or	t7,t7,v0
9d007f40:	11e00007 	beqz	t7,9d007f60 <i5>
9d007f44:	014d5023 	subu	t2,t2,t5
9d007f48:	3c018000 	lui	at,0x8000
9d007f4c:	00a12826 	xor	a1,a1,at
9d007f50:	0009782b 	sltu	t7,zero,t1
9d007f54:	00094823 	negu	t1,t1
9d007f58:	000a5023 	negu	t2,t2
9d007f5c:	014f5023 	subu	t2,t2,t7

9d007f60 <i5>:
9d007f60:	15400008 	bnez	t2,9d007f84 <L8>
9d007f64:	00000000 	nop
9d007f68:	15200003 	bnez	t1,9d007f78 <L9>
9d007f6c:	00000000 	nop
9d007f70:	1000000d 	b	9d007fa8 <L10>
9d007f74:	240b0000 	li	t3,0

9d007f78 <L9>:
9d007f78:	01205025 	move	t2,t1
9d007f7c:	24090000 	li	t1,0
9d007f80:	256bffe0 	addiu	t3,t3,-32

9d007f84 <L8>:
9d007f84:	71484020 	clz	t0,t2
9d007f88:	11000007 	beqz	t0,9d007fa8 <L10>
9d007f8c:	00000000 	nop
9d007f90:	01685823 	subu	t3,t3,t0
9d007f94:	00082022 	neg	a0,t0
9d007f98:	00892006 	srlv	a0,t1,a0
9d007f9c:	01094804 	sllv	t1,t1,t0
9d007fa0:	010a5004 	sllv	t2,t2,t0
9d007fa4:	01445025 	or	t2,t2,a0

9d007fa8 <L10>:
9d007fa8:	01497825 	or	t7,t2,t1
9d007fac:	15e00002 	bnez	t7,9d007fb8 <Bres>
9d007fb0:	00000000 	nop
9d007fb4:	24050000 	li	a1,0

9d007fb8 <Bres>:
9d007fb8:	19600068 	blez	t3,9d00815c <Bund>
9d007fbc:	00000000 	nop

9d007fc0 <Blab8>:
9d007fc0:	25290400 	addiu	t1,t1,1024
9d007fc4:	2d2f0400 	sltiu	t7,t1,1024
9d007fc8:	014f5021 	addu	t2,t2,t7
9d007fcc:	014f782b 	sltu	t7,t2,t7
9d007fd0:	016f5821 	addu	t3,t3,t7
9d007fd4:	00097ac2 	srl	t7,t1,0xb
9d007fd8:	31ef0001 	andi	t7,t7,0x1
9d007fdc:	012f4823 	subu	t1,t1,t7
9d007fe0:	000922c2 	srl	a0,t1,0xb
9d007fe4:	000a7d40 	sll	t7,t2,0x15
9d007fe8:	008f2025 	or	a0,a0,t7
9d007fec:	000a7840 	sll	t7,t2,0x1
9d007ff0:	000f7b02 	srl	t7,t7,0xc
9d007ff4:	00af2825 	or	a1,a1,t7
9d007ff8:	000b7d00 	sll	t7,t3,0x14
9d007ffc:	00af2825 	or	a1,a1,t7

9d008000 <BretA>:
9d008000:	00041025 	or	v0,zero,a0
9d008004:	00051825 	or	v1,zero,a1

9d008008 <B999>:
9d008008:	03e00008 	jr	ra
9d00800c:	00000000 	nop

9d008010 <BspecA>:
9d008010:	0120782a 	slt	t7,t1,zero
9d008014:	01294821 	addu	t1,t1,t1
9d008018:	014a5021 	addu	t2,t2,t2
9d00801c:	15600023 	bnez	t3,9d0080ac <i7>
9d008020:	014f5021 	addu	t2,t2,t7
9d008024:	01497825 	or	t7,t2,t1
9d008028:	11e00014 	beqz	t7,9d00807c <i8>
9d00802c:	00000000 	nop
9d008030:	15400008 	bnez	t2,9d008054 <L11>
9d008034:	00000000 	nop
9d008038:	15200003 	bnez	t1,9d008048 <L12>
9d00803c:	00000000 	nop
9d008040:	1000ff67 	b	9d007de0 <Blab1>
9d008044:	240b0000 	li	t3,0

9d008048 <L12>:
9d008048:	01205025 	move	t2,t1
9d00804c:	24090000 	li	t1,0
9d008050:	256bffe0 	addiu	t3,t3,-32

9d008054 <L11>:
9d008054:	71484020 	clz	t0,t2
9d008058:	1100ff61 	beqz	t0,9d007de0 <Blab1>
9d00805c:	00000000 	nop
9d008060:	01685823 	subu	t3,t3,t0
9d008064:	00082022 	neg	a0,t0
9d008068:	00892006 	srlv	a0,t1,a0
9d00806c:	01094804 	sllv	t1,t1,t0
9d008070:	010a5004 	sllv	t2,t2,t0
9d008074:	1000ff5a 	b	9d007de0 <Blab1>
9d008078:	01445025 	or	t2,t2,a0

9d00807c <i8>:
9d00807c:	240107ff 	li	at,2047
9d008080:	11c10015 	beq	t6,at,9d0080d8 <BspecB>
9d008084:	00000000 	nop
9d008088:	00e74021 	addu	t0,a3,a3
9d00808c:	01067825 	or	t7,t0,a2
9d008090:	15e00003 	bnez	t7,9d0080a0 <BretB>
9d008094:	00000000 	nop
9d008098:	04e0ffd9 	bltz	a3,9d008000 <BretA>
9d00809c:	00000000 	nop

9d0080a0 <BretB>:
9d0080a0:	00061025 	or	v0,zero,a2
9d0080a4:	1000ffd8 	b	9d008008 <B999>
9d0080a8:	00071825 	or	v1,zero,a3

9d0080ac <i7>:
9d0080ac:	01497825 	or	t7,t2,t1
9d0080b0:	15e00027 	bnez	t7,9d008150 <Bnan>
9d0080b4:	00000000 	nop
9d0080b8:	240107ff 	li	at,2047
9d0080bc:	15c1ffd0 	bne	t6,at,9d008000 <BretA>
9d0080c0:	00000000 	nop
9d0080c4:	00a77826 	xor	t7,a1,a3
9d0080c8:	05e00021 	bltz	t7,9d008150 <Bnan>
9d0080cc:	00000000 	nop
9d0080d0:	1000fff3 	b	9d0080a0 <BretB>
9d0080d4:	00000000 	nop

9d0080d8 <BspecB>:
9d0080d8:	0180782a 	slt	t7,t4,zero
9d0080dc:	018c6021 	addu	t4,t4,t4
9d0080e0:	01ad6821 	addu	t5,t5,t5
9d0080e4:	15c00017 	bnez	t6,9d008144 <i11>
9d0080e8:	01af6821 	addu	t5,t5,t7
9d0080ec:	01ac7825 	or	t7,t5,t4
9d0080f0:	11e0ffc3 	beqz	t7,9d008000 <BretA>
9d0080f4:	00000000 	nop
9d0080f8:	15a00008 	bnez	t5,9d00811c <L14>
9d0080fc:	00000000 	nop
9d008100:	15800003 	bnez	t4,9d008110 <L15>
9d008104:	00000000 	nop
9d008108:	1000ff39 	b	9d007df0 <Blab2>
9d00810c:	240e0000 	li	t6,0

9d008110 <L15>:
9d008110:	01806825 	move	t5,t4
9d008114:	240c0000 	li	t4,0
9d008118:	25ceffe0 	addiu	t6,t6,-32

9d00811c <L14>:
9d00811c:	71a84020 	clz	t0,t5
9d008120:	1100ff33 	beqz	t0,9d007df0 <Blab2>
9d008124:	00000000 	nop
9d008128:	01c87023 	subu	t6,t6,t0
9d00812c:	00082022 	neg	a0,t0
9d008130:	008c2006 	srlv	a0,t4,a0
9d008134:	010c6004 	sllv	t4,t4,t0
9d008138:	010d6804 	sllv	t5,t5,t0
9d00813c:	1000ff2c 	b	9d007df0 <Blab2>
9d008140:	01a46825 	or	t5,t5,a0

9d008144 <i11>:
9d008144:	01ac7825 	or	t7,t5,t4
9d008148:	11e0ffd5 	beqz	t7,9d0080a0 <BretB>
9d00814c:	00000000 	nop

9d008150 <Bnan>:
9d008150:	3c05fff8 	lui	a1,0xfff8
9d008154:	1000ffaa 	b	9d008000 <BretA>
9d008158:	24040000 	li	a0,0

9d00815c <Bund>:
9d00815c:	24080001 	li	t0,1
9d008160:	010b4023 	subu	t0,t0,t3

9d008164 <L17>:
9d008164:	2d010020 	sltiu	at,t0,32
9d008168:	14200007 	bnez	at,9d008188 <L18>
9d00816c:	00000000 	nop
9d008170:	2108ffe0 	addi	t0,t0,-32
9d008174:	0009302b 	sltu	a2,zero,t1
9d008178:	100a000d 	beq	zero,t2,9d0081b0 <L19>
9d00817c:	01464825 	or	t1,t2,a2
9d008180:	1000fff8 	b	9d008164 <L17>
9d008184:	340a0000 	li	t2,0x0

9d008188 <L18>:
9d008188:	11000009 	beqz	t0,9d0081b0 <L19>
9d00818c:	00000000 	nop
9d008190:	00082022 	neg	a0,t0
9d008194:	00893004 	sllv	a2,t1,a0
9d008198:	008a2004 	sllv	a0,t2,a0
9d00819c:	01094806 	srlv	t1,t1,t0
9d0081a0:	010a5006 	srlv	t2,t2,t0
9d0081a4:	10c00002 	beqz	a2,9d0081b0 <L19>
9d0081a8:	00894825 	or	t1,a0,t1
9d0081ac:	35290002 	ori	t1,t1,0x2

9d0081b0 <L19>:
9d0081b0:	1000ff83 	b	9d007fc0 <Blab8>
9d0081b4:	240b0000 	li	t3,0
9d0081b8:	00000000 	nop

Disassembly of section .text.dp32mul:

9d0081bc <__muldf3>:
9d0081bc:	00055040 000a5542 00054ac0 00047d42     @P..BU...J..B}..
9d0081cc:	012f4825 000442c0 3c0e8000 012e4825     %H/..B.....<%H..
9d0081dc:	00076840 000d6d42 000762c0 00067d42     @h..Bm...b..B}..
9d0081ec:	018f6025 00065ac0 018e6025 00a72826     %`...Z..%`..&(..
9d0081fc:	00ae2824 254fffff 2de107fe 10200047     $(....O%...-G. .
9d00820c:	00000000                                ....

9d008210 <Clab1>:
9d008210:	25afffff 	addiu	t7,t5,-1
9d008214:	2de107fe 	sltiu	at,t7,2046
9d008218:	1020006f 	beqz	at,9d0083d8 <CspecB>
9d00821c:	00000000 	nop

9d008220 <Clab2>:
9d008220:	25affc02 	addiu	t7,t5,-1022
9d008224:	014f5021 	addu	t2,t2,t7
9d008228:	012c0019 	multu	t1,t4
9d00822c:	00003812 	mflo	a3
9d008230:	00007010 	mfhi	t6
9d008234:	010b0019 	multu	t0,t3
9d008238:	00002012 	mflo	a0
9d00823c:	00003010 	mfhi	a2
9d008240:	012b0019 	multu	t1,t3
9d008244:	00005812 	mflo	t3
9d008248:	00006810 	mfhi	t5
9d00824c:	00cb3021 	addu	a2,a2,t3
9d008250:	00cb782b 	sltu	t7,a2,t3
9d008254:	00ed3821 	addu	a3,a3,t5
9d008258:	00ef3821 	addu	a3,a3,t7
9d00825c:	10ed0002 	beq	a3,t5,9d008268 <L20>
9d008260:	00000000 	nop
9d008264:	00ed782b 	sltu	t7,a3,t5

9d008268 <L20>:
9d008268:	01cf7021 	addu	t6,t6,t7
9d00826c:	010c0019 	multu	t0,t4
9d008270:	00004012 	mflo	t0
9d008274:	00004810 	mfhi	t1
9d008278:	00c83021 	addu	a2,a2,t0
9d00827c:	00c8782b 	sltu	t7,a2,t0
9d008280:	00e93821 	addu	a3,a3,t1
9d008284:	00ef3821 	addu	a3,a3,t7
9d008288:	10e90002 	beq	a3,t1,9d008294 <L21>
9d00828c:	00000000 	nop
9d008290:	00e9782b 	sltu	t7,a3,t1

9d008294 <L21>:
9d008294:	01cf7021 	addu	t6,t6,t7
9d008298:	00867825 	or	t7,a0,a2
9d00829c:	11e00002 	beqz	t7,9d0082a8 <i13>
9d0082a0:	00000000 	nop
9d0082a4:	34e70001 	ori	a3,a3,0x1

9d0082a8 <i13>:
9d0082a8:	000e4825 	or	t1,zero,t6
9d0082ac:	05200006 	bltz	t1,9d0082c8 <i14>
9d0082b0:	00074025 	or	t0,zero,a3
9d0082b4:	0100782a 	slt	t7,t0,zero
9d0082b8:	01084021 	addu	t0,t0,t0
9d0082bc:	01294821 	addu	t1,t1,t1
9d0082c0:	012f4821 	addu	t1,t1,t7
9d0082c4:	254affff 	addiu	t2,t2,-1

9d0082c8 <i14>:
9d0082c8:	254fffff 	addiu	t7,t2,-1
9d0082cc:	2de107fe 	sltiu	at,t7,2046
9d0082d0:	10200068 	beqz	at,9d008474 <Coveund>
9d0082d4:	00000000 	nop
9d0082d8:	25080400 	addiu	t0,t0,1024
9d0082dc:	2d0f0400 	sltiu	t7,t0,1024
9d0082e0:	012f4821 	addu	t1,t1,t7
9d0082e4:	012f782b 	sltu	t7,t1,t7
9d0082e8:	014f5021 	addu	t2,t2,t7

9d0082ec <Clab8>:
9d0082ec:	00087ac2 	srl	t7,t0,0xb
9d0082f0:	31ef0001 	andi	t7,t7,0x1
9d0082f4:	010f4023 	subu	t0,t0,t7
9d0082f8:	000822c2 	srl	a0,t0,0xb
9d0082fc:	00097d40 	sll	t7,t1,0x15
9d008300:	008f2025 	or	a0,a0,t7
9d008304:	00097840 	sll	t7,t1,0x1
9d008308:	000f7b02 	srl	t7,t7,0xc
9d00830c:	00af2825 	or	a1,a1,t7
9d008310:	000a7d00 	sll	t7,t2,0x14
9d008314:	00af2825 	or	a1,a1,t7

9d008318 <Cret>:
9d008318:	00041025 	or	v0,zero,a0
9d00831c:	00051825 	or	v1,zero,a1

9d008320 <C999>:
9d008320:	03e00008 	jr	ra
9d008324:	00000000 	nop

9d008328 <CspecA>:
9d008328:	0100782a 	slt	t7,t0,zero
9d00832c:	01084021 	addu	t0,t0,t0
9d008330:	01294821 	addu	t1,t1,t1
9d008334:	1540001c 	bnez	t2,9d0083a8 <i15>
9d008338:	012f4821 	addu	t1,t1,t7
9d00833c:	01287825 	or	t7,t1,t0
9d008340:	11e00014 	beqz	t7,9d008394 <i16>
9d008344:	00000000 	nop
9d008348:	15200008 	bnez	t1,9d00836c <L22>
9d00834c:	00000000 	nop
9d008350:	15000003 	bnez	t0,9d008360 <L23>
9d008354:	00000000 	nop
9d008358:	1000ffad 	b	9d008210 <Clab1>
9d00835c:	240a0000 	li	t2,0

9d008360 <L23>:
9d008360:	01004825 	move	t1,t0
9d008364:	24080000 	li	t0,0
9d008368:	254affe0 	addiu	t2,t2,-32

9d00836c <L22>:
9d00836c:	712e7020 	clz	t6,t1
9d008370:	11c0ffa7 	beqz	t6,9d008210 <Clab1>
9d008374:	00000000 	nop
9d008378:	014e5023 	subu	t2,t2,t6
9d00837c:	000e3822 	neg	a3,t6
9d008380:	00e83806 	srlv	a3,t0,a3
9d008384:	01c84004 	sllv	t0,t0,t6
9d008388:	01c94804 	sllv	t1,t1,t6
9d00838c:	1000ffa0 	b	9d008210 <Clab1>
9d008390:	01274825 	or	t1,t1,a3

9d008394 <i16>:
9d008394:	240107ff 	li	at,2047
9d008398:	11a10033 	beq	t5,at,9d008468 <Cnan>
9d00839c:	00000000 	nop
9d0083a0:	1000ffdd 	b	9d008318 <Cret>
9d0083a4:	00000000 	nop

9d0083a8 <i15>:
9d0083a8:	01287825 	or	t7,t1,t0
9d0083ac:	15e0002e 	bnez	t7,9d008468 <Cnan>
9d0083b0:	00000000 	nop
9d0083b4:	15a00005 	bnez	t5,9d0083cc <i17>
9d0083b8:	00000000 	nop
9d0083bc:	000c7840 	sll	t7,t4,0x1
9d0083c0:	01eb7825 	or	t7,t7,t3
9d0083c4:	11e00028 	beqz	t7,9d008468 <Cnan>
9d0083c8:	00000000 	nop

9d0083cc <i17>:
9d0083cc:	240107ff 	li	at,2047
9d0083d0:	15a10021 	bne	t5,at,9d008458 <Cinf>
9d0083d4:	00000000 	nop

9d0083d8 <CspecB>:
9d0083d8:	0160782a 	slt	t7,t3,zero
9d0083dc:	016b5821 	addu	t3,t3,t3
9d0083e0:	018c6021 	addu	t4,t4,t4
9d0083e4:	15a00019 	bnez	t5,9d00844c <i18>
9d0083e8:	018f6021 	addu	t4,t4,t7
9d0083ec:	018b7825 	or	t7,t4,t3
9d0083f0:	11e00014 	beqz	t7,9d008444 <i19>
9d0083f4:	00000000 	nop
9d0083f8:	15800008 	bnez	t4,9d00841c <L25>
9d0083fc:	00000000 	nop
9d008400:	15600003 	bnez	t3,9d008410 <L26>
9d008404:	00000000 	nop
9d008408:	1000ff85 	b	9d008220 <Clab2>
9d00840c:	240d0000 	li	t5,0

9d008410 <L26>:
9d008410:	01606025 	move	t4,t3
9d008414:	240b0000 	li	t3,0
9d008418:	25adffe0 	addiu	t5,t5,-32

9d00841c <L25>:
9d00841c:	71863020 	clz	a2,t4
9d008420:	10c0ff7f 	beqz	a2,9d008220 <Clab2>
9d008424:	00000000 	nop
9d008428:	01a66823 	subu	t5,t5,a2
9d00842c:	00067022 	neg	t6,a2
9d008430:	01cb7006 	srlv	t6,t3,t6
9d008434:	00cb5804 	sllv	t3,t3,a2
9d008438:	00cc6004 	sllv	t4,t4,a2
9d00843c:	1000ff78 	b	9d008220 <Clab2>
9d008440:	018e6025 	or	t4,t4,t6

9d008444 <i19>:
9d008444:	1000ffb4 	b	9d008318 <Cret>
9d008448:	24040000 	li	a0,0

9d00844c <i18>:
9d00844c:	018b7825 	or	t7,t4,t3
9d008450:	15e00005 	bnez	t7,9d008468 <Cnan>
9d008454:	00000000 	nop

9d008458 <Cinf>:
9d008458:	3c017ff0 	lui	at,0x7ff0
9d00845c:	00a12825 	or	a1,a1,at
9d008460:	1000ffad 	b	9d008318 <Cret>
9d008464:	24040000 	li	a0,0

9d008468 <Cnan>:
9d008468:	3c05fff8 	lui	a1,0xfff8
9d00846c:	1000ffaa 	b	9d008318 <Cret>
9d008470:	24040000 	li	a0,0

9d008474 <Coveund>:
9d008474:	1d40fff8 	bgtz	t2,9d008458 <Cinf>
9d008478:	00000000 	nop
9d00847c:	240e0001 	li	t6,1
9d008480:	01ca7023 	subu	t6,t6,t2

9d008484 <L28>:
9d008484:	2dc10020 	sltiu	at,t6,32
9d008488:	14200007 	bnez	at,9d0084a8 <L29>
9d00848c:	00000000 	nop
9d008490:	21ceffe0 	addi	t6,t6,-32
9d008494:	0008302b 	sltu	a2,zero,t0
9d008498:	1009000d 	beq	zero,t1,9d0084d0 <L30>
9d00849c:	01264025 	or	t0,t1,a2
9d0084a0:	1000fff8 	b	9d008484 <L28>
9d0084a4:	34090000 	li	t1,0x0

9d0084a8 <L29>:
9d0084a8:	11c00009 	beqz	t6,9d0084d0 <L30>
9d0084ac:	00000000 	nop
9d0084b0:	000e3822 	neg	a3,t6
9d0084b4:	00e83004 	sllv	a2,t0,a3
9d0084b8:	00e93804 	sllv	a3,t1,a3
9d0084bc:	01c84006 	srlv	t0,t0,t6
9d0084c0:	01c94806 	srlv	t1,t1,t6
9d0084c4:	10c00002 	beqz	a2,9d0084d0 <L30>
9d0084c8:	00e84025 	or	t0,a3,t0
9d0084cc:	35080002 	ori	t0,t0,0x2

9d0084d0 <L30>:
9d0084d0:	25080400 	addiu	t0,t0,1024
9d0084d4:	2d0f0400 	sltiu	t7,t0,1024
9d0084d8:	012f4821 	addu	t1,t1,t7
9d0084dc:	1000ff83 	b	9d0082ec <Clab8>
9d0084e0:	000957c2 	srl	t2,t1,0x1f
9d0084e4:	00000000 	nop

Disassembly of section .text:

9d0084e8 <main>:
int main(void){
9d0084e8:	27bdff90 	addiu	sp,sp,-112
9d0084ec:	afbf006c 	sw	ra,108(sp)
9d0084f0:	afbe0068 	sw	s8,104(sp)
9d0084f4:	03a0f025 	move	s8,sp
    char c1=5, c2=6, c3;
9d0084f8:	24020005 	li	v0,5
9d0084fc:	a3c20010 	sb	v0,16(s8)
9d008500:	24020006 	li	v0,6
9d008504:	a3c20011 	sb	v0,17(s8)
    int i1=5, i2=6, i3;
9d008508:	24020005 	li	v0,5
9d00850c:	afc20014 	sw	v0,20(s8)
9d008510:	24020006 	li	v0,6
9d008514:	afc20018 	sw	v0,24(s8)
    long long int j1=5, j2=6, j3;
9d008518:	24020005 	li	v0,5
9d00851c:	00001825 	move	v1,zero
9d008520:	afc20020 	sw	v0,32(s8)
9d008524:	afc30024 	sw	v1,36(s8)
9d008528:	24020006 	li	v0,6
9d00852c:	00001825 	move	v1,zero
9d008530:	afc20028 	sw	v0,40(s8)
9d008534:	afc3002c 	sw	v1,44(s8)
    float f1=1.01, f2=2.02, f3;
9d008538:	3c029d01 	lui	v0,0x9d01
9d00853c:	8c4293d8 	lw	v0,-27688(v0)
9d008540:	afc20030 	sw	v0,48(s8)
9d008544:	3c029d01 	lui	v0,0x9d01
9d008548:	8c4293dc 	lw	v0,-27684(v0)
9d00854c:	afc20034 	sw	v0,52(s8)
    long double d1=1.01, d2=2.02, d3;
9d008550:	3c029d01 	lui	v0,0x9d01
9d008554:	8c4393e4 	lw	v1,-27676(v0)
9d008558:	8c4293e0 	lw	v0,-27680(v0)
9d00855c:	afc20038 	sw	v0,56(s8)
9d008560:	afc3003c 	sw	v1,60(s8)
9d008564:	3c029d01 	lui	v0,0x9d01
9d008568:	8c4393ec 	lw	v1,-27668(v0)
9d00856c:	8c4293e8 	lw	v0,-27672(v0)
9d008570:	afc20040 	sw	v0,64(s8)
9d008574:	afc30044 	sw	v1,68(s8)

    c3 = c1+c2;
9d008578:	93c30010 	lbu	v1,16(s8)
9d00857c:	93c20011 	lbu	v0,17(s8)
9d008580:	00621021 	addu	v0,v1,v0
9d008584:	304200ff 	andi	v0,v0,0xff
9d008588:	a3c20048 	sb	v0,72(s8)
    c3 = c1-c2;
9d00858c:	93c30010 	lbu	v1,16(s8)
9d008590:	93c20011 	lbu	v0,17(s8)
9d008594:	00621023 	subu	v0,v1,v0
9d008598:	304200ff 	andi	v0,v0,0xff
9d00859c:	a3c20048 	sb	v0,72(s8)
    c3 = c1*c2;
9d0085a0:	93c30010 	lbu	v1,16(s8)
9d0085a4:	93c20011 	lbu	v0,17(s8)
9d0085a8:	70621002 	mul	v0,v1,v0
9d0085ac:	304200ff 	andi	v0,v0,0xff
9d0085b0:	a3c20048 	sb	v0,72(s8)
    c3 = c1/c2;
9d0085b4:	83c30010 	lb	v1,16(s8)
9d0085b8:	83c20011 	lb	v0,17(s8)
9d0085bc:	0062001a 	div	zero,v1,v0
9d0085c0:	004001f4 	teq	v0,zero,0x7
9d0085c4:	00001010 	mfhi	v0
9d0085c8:	00001012 	mflo	v0
9d0085cc:	a3c20048 	sb	v0,72(s8)

    i3 = i1+i2;
9d0085d0:	8fc30014 	lw	v1,20(s8)
9d0085d4:	8fc20018 	lw	v0,24(s8)
9d0085d8:	00621021 	addu	v0,v1,v0
9d0085dc:	afc2004c 	sw	v0,76(s8)
    i3 = i1-i2;
9d0085e0:	8fc30014 	lw	v1,20(s8)
9d0085e4:	8fc20018 	lw	v0,24(s8)
9d0085e8:	00621023 	subu	v0,v1,v0
9d0085ec:	afc2004c 	sw	v0,76(s8)
    i3 = i1*i2;
9d0085f0:	8fc30014 	lw	v1,20(s8)
9d0085f4:	8fc20018 	lw	v0,24(s8)
9d0085f8:	70621002 	mul	v0,v1,v0
9d0085fc:	afc2004c 	sw	v0,76(s8)
    i3 = i1/i2;
9d008600:	8fc30014 	lw	v1,20(s8)
9d008604:	8fc20018 	lw	v0,24(s8)
9d008608:	0062001a 	div	zero,v1,v0
9d00860c:	004001f4 	teq	v0,zero,0x7
9d008610:	00001010 	mfhi	v0
9d008614:	00001012 	mflo	v0
9d008618:	afc2004c 	sw	v0,76(s8)

    j3 = j1+j2;
9d00861c:	8fc40020 	lw	a0,32(s8)
9d008620:	8fc50024 	lw	a1,36(s8)
9d008624:	8fc60028 	lw	a2,40(s8)
9d008628:	8fc7002c 	lw	a3,44(s8)
9d00862c:	00861021 	addu	v0,a0,a2
9d008630:	0044402b 	sltu	t0,v0,a0
9d008634:	00a71821 	addu	v1,a1,a3
9d008638:	01032021 	addu	a0,t0,v1
9d00863c:	00801825 	move	v1,a0
9d008640:	afc20050 	sw	v0,80(s8)
9d008644:	afc30054 	sw	v1,84(s8)
    j3 = j1-j2;
9d008648:	8fc40020 	lw	a0,32(s8)
9d00864c:	8fc50024 	lw	a1,36(s8)
9d008650:	8fc60028 	lw	a2,40(s8)
9d008654:	8fc7002c 	lw	a3,44(s8)
9d008658:	00861023 	subu	v0,a0,a2
9d00865c:	0082402b 	sltu	t0,a0,v0
9d008660:	00a71823 	subu	v1,a1,a3
9d008664:	00682023 	subu	a0,v1,t0
9d008668:	00801825 	move	v1,a0
9d00866c:	afc20050 	sw	v0,80(s8)
9d008670:	afc30054 	sw	v1,84(s8)
    j3 = j1*j2;
9d008674:	8fc30024 	lw	v1,36(s8)
9d008678:	8fc20028 	lw	v0,40(s8)
9d00867c:	70621802 	mul	v1,v1,v0
9d008680:	8fc4002c 	lw	a0,44(s8)
9d008684:	8fc20020 	lw	v0,32(s8)
9d008688:	70821002 	mul	v0,a0,v0
9d00868c:	00622021 	addu	a0,v1,v0
9d008690:	8fc30020 	lw	v1,32(s8)
9d008694:	8fc20028 	lw	v0,40(s8)
9d008698:	00620019 	multu	v1,v0
9d00869c:	00001012 	mflo	v0
9d0086a0:	00001810 	mfhi	v1
9d0086a4:	00832021 	addu	a0,a0,v1
9d0086a8:	00801825 	move	v1,a0
9d0086ac:	afc20050 	sw	v0,80(s8)
9d0086b0:	afc30054 	sw	v1,84(s8)
9d0086b4:	afc20050 	sw	v0,80(s8)
9d0086b8:	afc30054 	sw	v1,84(s8)
    j3 = j1/j2;
9d0086bc:	8fc60028 	lw	a2,40(s8)
9d0086c0:	8fc7002c 	lw	a3,44(s8)
9d0086c4:	8fc40020 	lw	a0,32(s8)
9d0086c8:	8fc50024 	lw	a1,36(s8)
9d0086cc:	0f401e52 	jal	9d007948 <__divdi3>
9d0086d0:	00000000 	nop
9d0086d4:	afc20050 	sw	v0,80(s8)
9d0086d8:	afc30054 	sw	v1,84(s8)

    f3 = f1+f2;
9d0086dc:	8fc50034 	lw	a1,52(s8)
9d0086e0:	8fc40030 	lw	a0,48(s8)
9d0086e4:	0f4022a7 	jal	9d008a9c <__addsf3>
9d0086e8:	00000000 	nop
9d0086ec:	afc20058 	sw	v0,88(s8)
    f3 = f1-f2;
9d0086f0:	8fc50034 	lw	a1,52(s8)
9d0086f4:	8fc40030 	lw	a0,48(s8)
9d0086f8:	0f4022a5 	jal	9d008a94 <__subsf3>
9d0086fc:	00000000 	nop
9d008700:	afc20058 	sw	v0,88(s8)
    f3 = f1*f2;
9d008704:	8fc50034 	lw	a1,52(s8)
9d008708:	8fc40030 	lw	a0,48(s8)
9d00870c:	0f4023cf 	jal	9d008f3c <__mulsf3>
9d008710:	00000000 	nop
9d008714:	afc20058 	sw	v0,88(s8)
    f3 = f1/f2;
9d008718:	8fc50034 	lw	a1,52(s8)
9d00871c:	8fc40030 	lw	a0,48(s8)
9d008720:	0f402343 	jal	9d008d0c <__divsf3>
9d008724:	00000000 	nop
9d008728:	afc20058 	sw	v0,88(s8)

    d3 = d1+d2;
9d00872c:	8fc60040 	lw	a2,64(s8)
9d008730:	8fc70044 	lw	a3,68(s8)
9d008734:	8fc40038 	lw	a0,56(s8)
9d008738:	8fc5003c 	lw	a1,60(s8)
9d00873c:	0f401f65 	jal	9d007d94 <__adddf3>
9d008740:	00000000 	nop
9d008744:	afc20060 	sw	v0,96(s8)
9d008748:	afc30064 	sw	v1,100(s8)
    d3 = d1-d2;
9d00874c:	8fc60040 	lw	a2,64(s8)
9d008750:	8fc70044 	lw	a3,68(s8)
9d008754:	8fc40038 	lw	a0,56(s8)
9d008758:	8fc5003c 	lw	a1,60(s8)
9d00875c:	0f401f63 	jal	9d007d8c <__subdf3>
9d008760:	00000000 	nop
9d008764:	afc20060 	sw	v0,96(s8)
9d008768:	afc30064 	sw	v1,100(s8)
    d3 = d1*d2;
9d00876c:	8fc60040 	lw	a2,64(s8)
9d008770:	8fc70044 	lw	a3,68(s8)
9d008774:	8fc40038 	lw	a0,56(s8)
9d008778:	8fc5003c 	lw	a1,60(s8)
9d00877c:	0f40206f 	jal	9d0081bc <__muldf3>
9d008780:	00000000 	nop
9d008784:	afc20060 	sw	v0,96(s8)
9d008788:	afc30064 	sw	v1,100(s8)
    d3 = d1/d2;
9d00878c:	8fc60040 	lw	a2,64(s8)
9d008790:	8fc70044 	lw	a3,68(s8)
9d008794:	8fc40038 	lw	a0,56(s8)
9d008798:	8fc5003c 	lw	a1,60(s8)
9d00879c:	0f401d24 	jal	9d007490 <__divdf3>
9d0087a0:	00000000 	nop
9d0087a4:	afc20060 	sw	v0,96(s8)
9d0087a8:	afc30064 	sw	v1,100(s8)
9d0087ac:	00001025 	move	v0,zero
9d0087b0:	03c0e825 	move	sp,s8
9d0087b4:	8fbf006c 	lw	ra,108(sp)
9d0087b8:	8fbe0068 	lw	s8,104(sp)
9d0087bc:	27bd0070 	addiu	sp,sp,112
9d0087c0:	03e00008 	jr	ra
9d0087c4:	00000000 	nop

9d0087c8 <NU32DIP_Startup>:
#include "nu32dip.h"

void NU32DIP_Startup() {
9d0087c8:	27bdfff8 	addiu	sp,sp,-8
9d0087cc:	afbf0004 	sw	ra,4(sp)
9d0087d0:	afbe0000 	sw	s8,0(sp)
9d0087d4:	03a0f025 	move	s8,sp
    __builtin_disable_interrupts(); // disable interrupts while initializing things
9d0087d8:	41626000 	di	v0
9d0087dc:	000000c0 	ehb
9d0087e0:	00000000 	nop

    // set the CP0 CONFIG register to indicate that kseg0 is cacheable (0x3)
    __builtin_mtc0(_CP0_CONFIG, _CP0_CONFIG_SELECT, 0xa4210583);
9d0087e4:	3c02a421 	lui	v0,0xa421
9d0087e8:	34420583 	ori	v0,v0,0x583
9d0087ec:	40828000 	mtc0	v0,c0_config
9d0087f0:	000000c0 	ehb

    // 0 data RAM access wait states
    BMXCONbits.BMXWSDRM = 0x0;
9d0087f4:	3c03bf88 	lui	v1,0xbf88
9d0087f8:	8c622000 	lw	v0,8192(v1)
9d0087fc:	7c023184 	ins	v0,zero,0x6,0x1
9d008800:	ac622000 	sw	v0,8192(v1)

    // enable multi vector interrupts
    INTCONbits.MVEC = 0x1;
9d008804:	3c03bf88 	lui	v1,0xbf88
9d008808:	8c621000 	lw	v0,4096(v1)
9d00880c:	24040001 	li	a0,1
9d008810:	7c826304 	ins	v0,a0,0xc,0x1
9d008814:	ac621000 	sw	v0,4096(v1)

    // disable JTAG to get pins back
    DDPCONbits.JTAGEN = 0;
9d008818:	3c03bf81 	lui	v1,0xbf81
9d00881c:	9462f200 	lhu	v0,-3584(v1)
9d008820:	7c0218c4 	ins	v0,zero,0x3,0x1
9d008824:	a462f200 	sh	v0,-3584(v1)

    // do your TRIS and LAT commands here
    TRISBCLR = 0b110000; // B4 and B5 LEDs
9d008828:	3c02bf88 	lui	v0,0xbf88
9d00882c:	24030030 	li	v1,48
9d008830:	ac436114 	sw	v1,24852(v0)
    TRISASET = 0b010000; // A4 user button
9d008834:	3c02bf88 	lui	v0,0xbf88
9d008838:	24030010 	li	v1,16
9d00883c:	ac436018 	sw	v1,24600(v0)
    //NU32_LED1 = 1; // LED1 is off
    NU32DIP_YELLOW = 1;
9d008840:	3c03bf88 	lui	v1,0xbf88
9d008844:	94626130 	lhu	v0,24880(v1)
9d008848:	24040001 	li	a0,1
9d00884c:	7c822944 	ins	v0,a0,0x5,0x1
9d008850:	a4626130 	sh	v0,24880(v1)
    //NU32_LED2 = 0; // LED2 is on
    NU32DIP_GREEN = 0;
9d008854:	3c03bf88 	lui	v1,0xbf88
9d008858:	94626130 	lhu	v0,24880(v1)
9d00885c:	7c022104 	ins	v0,zero,0x4,0x1
9d008860:	a4626130 	sh	v0,24880(v1)

    //UART1 pins
    U1RXRbits.U1RXR = 0b0000; // Set A2 to U1RX
9d008864:	3c03bf81 	lui	v1,0xbf81
9d008868:	9062fa50 	lbu	v0,-1456(v1)
9d00886c:	7c021804 	ins	v0,zero,0x0,0x4
9d008870:	a062fa50 	sb	v0,-1456(v1)
    RPB3Rbits.RPB3R = 0b0001; // Set B3 to U1TX
9d008874:	3c03bf81 	lui	v1,0xbf81
9d008878:	9062fb38 	lbu	v0,-1224(v1)
9d00887c:	24040001 	li	a0,1
9d008880:	7c821804 	ins	v0,a0,0x0,0x4
9d008884:	a062fb38 	sb	v0,-1224(v1)

    // turn on UART1 without an interrupt
    U1MODEbits.BRGH = 0; // set baud to NU32_DESIRED_BAUD
9d008888:	3c03bf80 	lui	v1,0xbf80
9d00888c:	94626000 	lhu	v0,24576(v1)
9d008890:	7c0218c4 	ins	v0,zero,0x3,0x1
9d008894:	a4626000 	sh	v0,24576(v1)
    U1BRG = ((NU32DIP_SYS_FREQ / NU32DIP_DESIRED_BAUD) / 16) - 1;
9d008898:	3c02bf80 	lui	v0,0xbf80
9d00889c:	2403000c 	li	v1,12
9d0088a0:	ac436040 	sw	v1,24640(v0)

    // 8 bit, no parity bit, and 1 stop bit (8N1 setup)
    U1MODEbits.PDSEL = 0;
9d0088a4:	3c03bf80 	lui	v1,0xbf80
9d0088a8:	94626000 	lhu	v0,24576(v1)
9d0088ac:	7c021044 	ins	v0,zero,0x1,0x2
9d0088b0:	a4626000 	sh	v0,24576(v1)
    U1MODEbits.STSEL = 0;
9d0088b4:	3c03bf80 	lui	v1,0xbf80
9d0088b8:	94626000 	lhu	v0,24576(v1)
9d0088bc:	7c020004 	ins	v0,zero,0x0,0x1
9d0088c0:	a4626000 	sh	v0,24576(v1)

    // configure TX & RX pins as output & input pins
    U1STAbits.UTXEN = 1;
9d0088c4:	3c03bf80 	lui	v1,0xbf80
9d0088c8:	8c626010 	lw	v0,24592(v1)
9d0088cc:	24040001 	li	a0,1
9d0088d0:	7c825284 	ins	v0,a0,0xa,0x1
9d0088d4:	ac626010 	sw	v0,24592(v1)
    U1STAbits.URXEN = 1;
9d0088d8:	3c03bf80 	lui	v1,0xbf80
9d0088dc:	8c626010 	lw	v0,24592(v1)
9d0088e0:	24040001 	li	a0,1
9d0088e4:	7c826304 	ins	v0,a0,0xc,0x1
9d0088e8:	ac626010 	sw	v0,24592(v1)
    // configure without hardware flow control
    U1MODEbits.UEN = 0;
9d0088ec:	3c03bf80 	lui	v1,0xbf80
9d0088f0:	94626000 	lhu	v0,24576(v1)
9d0088f4:	7c024a04 	ins	v0,zero,0x8,0x2
9d0088f8:	a4626000 	sh	v0,24576(v1)

    // enable the uart
    U1MODEbits.ON = 1;
9d0088fc:	3c03bf80 	lui	v1,0xbf80
9d008900:	94626000 	lhu	v0,24576(v1)
9d008904:	24040001 	li	a0,1
9d008908:	7c827bc4 	ins	v0,a0,0xf,0x1
9d00890c:	a4626000 	sh	v0,24576(v1)

    __builtin_enable_interrupts();
9d008910:	41626020 	ei	v0
}
9d008914:	00000000 	nop
9d008918:	03c0e825 	move	sp,s8
9d00891c:	8fbf0004 	lw	ra,4(sp)
9d008920:	8fbe0000 	lw	s8,0(sp)
9d008924:	27bd0008 	addiu	sp,sp,8
9d008928:	03e00008 	jr	ra
9d00892c:	00000000 	nop

9d008930 <NU32DIP_ReadUART1>:

// Read from UART1
// block other functions until you get a '\r' or '\n'
// send the pointer to your char array and the number of elements in the array

void NU32DIP_ReadUART1(char * message, int maxLength) {
9d008930:	27bdffe8 	addiu	sp,sp,-24
9d008934:	afbe0014 	sw	s8,20(sp)
9d008938:	03a0f025 	move	s8,sp
9d00893c:	afc40018 	sw	a0,24(s8)
9d008940:	afc5001c 	sw	a1,28(s8)
    char data = 0;
9d008944:	a3c00008 	sb	zero,8(s8)
    int complete = 0, num_bytes = 0;
9d008948:	afc00000 	sw	zero,0(s8)
9d00894c:	afc00004 	sw	zero,4(s8)
    // loop until you get a '\r' or '\n'
    while (!complete) {
9d008950:	10000024 	b	9d0089e4 <NU32DIP_ReadUART1+0xb4>
9d008954:	00000000 	nop
        if (U1STAbits.URXDA) { // if data is available
9d008958:	3c02bf80 	lui	v0,0xbf80
9d00895c:	8c426010 	lw	v0,24592(v0)
9d008960:	7c420000 	ext	v0,v0,0x0,0x1
9d008964:	304200ff 	andi	v0,v0,0xff
9d008968:	1040001e 	beqz	v0,9d0089e4 <NU32DIP_ReadUART1+0xb4>
9d00896c:	00000000 	nop
            data = U1RXREG; // read the data
9d008970:	3c02bf80 	lui	v0,0xbf80
9d008974:	8c426030 	lw	v0,24624(v0)
9d008978:	a3c20008 	sb	v0,8(s8)
            if ((data == '\n') || (data == '\r')) {
9d00897c:	83c30008 	lb	v1,8(s8)
9d008980:	2402000a 	li	v0,10
9d008984:	10620005 	beq	v1,v0,9d00899c <NU32DIP_ReadUART1+0x6c>
9d008988:	00000000 	nop
9d00898c:	83c30008 	lb	v1,8(s8)
9d008990:	2402000d 	li	v0,13
9d008994:	14620005 	bne	v1,v0,9d0089ac <NU32DIP_ReadUART1+0x7c>
9d008998:	00000000 	nop
                complete = 1;
9d00899c:	24020001 	li	v0,1
9d0089a0:	afc20000 	sw	v0,0(s8)
9d0089a4:	1000000f 	b	9d0089e4 <NU32DIP_ReadUART1+0xb4>
9d0089a8:	00000000 	nop
            } else {
                message[num_bytes] = data;
9d0089ac:	8fc20004 	lw	v0,4(s8)
9d0089b0:	8fc30018 	lw	v1,24(s8)
9d0089b4:	00621021 	addu	v0,v1,v0
9d0089b8:	93c30008 	lbu	v1,8(s8)
9d0089bc:	a0430000 	sb	v1,0(v0)
                ++num_bytes;
9d0089c0:	8fc20004 	lw	v0,4(s8)
9d0089c4:	24420001 	addiu	v0,v0,1
9d0089c8:	afc20004 	sw	v0,4(s8)
                // roll over if the array is too small
                if (num_bytes >= maxLength) {
9d0089cc:	8fc30004 	lw	v1,4(s8)
9d0089d0:	8fc2001c 	lw	v0,28(s8)
9d0089d4:	0062102a 	slt	v0,v1,v0
9d0089d8:	14400002 	bnez	v0,9d0089e4 <NU32DIP_ReadUART1+0xb4>
9d0089dc:	00000000 	nop
                    num_bytes = 0;
9d0089e0:	afc00004 	sw	zero,4(s8)
    while (!complete) {
9d0089e4:	8fc20000 	lw	v0,0(s8)
9d0089e8:	1040ffdb 	beqz	v0,9d008958 <NU32DIP_ReadUART1+0x28>
9d0089ec:	00000000 	nop
                }
            }
        }
    }
    // end the string
    message[num_bytes] = '\0';
9d0089f0:	8fc20004 	lw	v0,4(s8)
9d0089f4:	8fc30018 	lw	v1,24(s8)
9d0089f8:	00621021 	addu	v0,v1,v0
9d0089fc:	a0400000 	sb	zero,0(v0)
}
9d008a00:	00000000 	nop
9d008a04:	03c0e825 	move	sp,s8
9d008a08:	8fbe0014 	lw	s8,20(sp)
9d008a0c:	27bd0018 	addiu	sp,sp,24
9d008a10:	03e00008 	jr	ra
9d008a14:	00000000 	nop

9d008a18 <NU32DIP_WriteUART1>:

// Write a character array using UART1

void NU32DIP_WriteUART1(const char * string) {
9d008a18:	27bdfff8 	addiu	sp,sp,-8
9d008a1c:	afbe0004 	sw	s8,4(sp)
9d008a20:	03a0f025 	move	s8,sp
9d008a24:	afc40008 	sw	a0,8(s8)
    while (*string != '\0') {
9d008a28:	10000010 	b	9d008a6c <NU32DIP_WriteUART1+0x54>
9d008a2c:	00000000 	nop
        while (U1STAbits.UTXBF) {
9d008a30:	00000000 	nop
9d008a34:	3c02bf80 	lui	v0,0xbf80
9d008a38:	8c426010 	lw	v0,24592(v0)
9d008a3c:	7c420240 	ext	v0,v0,0x9,0x1
9d008a40:	304200ff 	andi	v0,v0,0xff
9d008a44:	1440fffb 	bnez	v0,9d008a34 <NU32DIP_WriteUART1+0x1c>
9d008a48:	00000000 	nop
            ; // wait until tx buffer isn't full
        }
        U1TXREG = *string;
9d008a4c:	8fc20008 	lw	v0,8(s8)
9d008a50:	80420000 	lb	v0,0(v0)
9d008a54:	00401825 	move	v1,v0
9d008a58:	3c02bf80 	lui	v0,0xbf80
9d008a5c:	ac436020 	sw	v1,24608(v0)
        ++string;
9d008a60:	8fc20008 	lw	v0,8(s8)
9d008a64:	24420001 	addiu	v0,v0,1
9d008a68:	afc20008 	sw	v0,8(s8)
    while (*string != '\0') {
9d008a6c:	8fc20008 	lw	v0,8(s8)
9d008a70:	80420000 	lb	v0,0(v0)
9d008a74:	1440ffee 	bnez	v0,9d008a30 <NU32DIP_WriteUART1+0x18>
9d008a78:	00000000 	nop
    }
}
9d008a7c:	00000000 	nop
9d008a80:	03c0e825 	move	sp,s8
9d008a84:	8fbe0004 	lw	s8,4(sp)
9d008a88:	27bd0008 	addiu	sp,sp,8
9d008a8c:	03e00008 	jr	ra
9d008a90:	00000000 	nop

Disassembly of section .text.fpsubadd:

9d008a94 <__subsf3>:
9d008a94:	3c018000 00a12826                       ...<&(..

9d008a9c <__addsf3>:
9d008a9c:	00044dc2 312900ff 00055dc2 316b00ff     .M....)1.]....k1
9d008aac:	3c078000 00044200 01074025 00055200     ...<.B..%@...R..
9d008abc:	01475025 252dffff 2da100fe 10200061     %PG...-%...-a. .
9d008acc:	00000000                                ....

9d008ad0 <Blab1>:
9d008ad0:	256dffff 	addiu	t5,t3,-1
9d008ad4:	2da100fe 	sltiu	at,t5,254
9d008ad8:	10200077 	beqz	at,9d008cb8 <BspecB>
9d008adc:	00000000 	nop

9d008ae0 <Blab2>:
9d008ae0:	012b6023 	subu	t4,t1,t3
9d008ae4:	0580000d 	bltz	t4,9d008b1c <i1>
9d008ae8:	00000000 	nop
9d008aec:	29810020 	slti	at,t4,32
9d008af0:	14200003 	bnez	at,9d008b00 <i2>
9d008af4:	00000000 	nop
9d008af8:	10000015 	b	9d008b50 <e1>
9d008afc:	240a0002 	li	t2,2

9d008b00 <i2>:
9d008b00:	000a3025 	or	a2,zero,t2
9d008b04:	018a5006 	srlv	t2,t2,t4
9d008b08:	018a6804 	sllv	t5,t2,t4
9d008b0c:	11a60010 	beq	t5,a2,9d008b50 <e1>
9d008b10:	00000000 	nop
9d008b14:	1000000e 	b	9d008b50 <e1>
9d008b18:	354a0002 	ori	t2,t2,0x2

9d008b1c <i1>:
9d008b1c:	000b4825 	or	t1,zero,t3
9d008b20:	000c6023 	negu	t4,t4
9d008b24:	29810020 	slti	at,t4,32
9d008b28:	14200003 	bnez	at,9d008b38 <i4>
9d008b2c:	00000000 	nop
9d008b30:	10000007 	b	9d008b50 <e1>
9d008b34:	24080002 	li	t0,2

9d008b38 <i4>:
9d008b38:	00083025 	or	a2,zero,t0
9d008b3c:	01884006 	srlv	t0,t0,t4
9d008b40:	01886804 	sllv	t5,t0,t4
9d008b44:	11a60002 	beq	t5,a2,9d008b50 <e1>
9d008b48:	00000000 	nop
9d008b4c:	35080002 	ori	t0,t0,0x2

9d008b50 <e1>:
9d008b50:	00876024 	and	t4,a0,a3
9d008b54:	01856826 	xor	t5,t4,a1
9d008b58:	05a00010 	bltz	t5,9d008b9c <Bsub1>
9d008b5c:	00000000 	nop
9d008b60:	010a4021 	addu	t0,t0,t2
9d008b64:	010a682b 	sltu	t5,t0,t2
9d008b68:	11a00017 	beqz	t5,9d008bc8 <Bres>
9d008b6c:	00000000 	nop
9d008b70:	310d0001 	andi	t5,t0,0x1
9d008b74:	11a00002 	beqz	t5,9d008b80 <i7>
9d008b78:	00000000 	nop
9d008b7c:	35080002 	ori	t0,t0,0x2

9d008b80 <i7>:
9d008b80:	00084042 	srl	t0,t0,0x1
9d008b84:	25290001 	addiu	t1,t1,1
9d008b88:	240100ff 	li	at,255
9d008b8c:	1521000e 	bne	t1,at,9d008bc8 <Bres>
9d008b90:	00000000 	nop
9d008b94:	1000000c 	b	9d008bc8 <Bres>
9d008b98:	24080000 	li	t0,0

9d008b9c <Bsub1>:
9d008b9c:	010a682b 	sltu	t5,t0,t2
9d008ba0:	11a00004 	beqz	t5,9d008bb4 <i9>
9d008ba4:	010a4023 	subu	t0,t0,t2
9d008ba8:	00084023 	negu	t0,t0
9d008bac:	10000003 	b	9d008bbc <e9>
9d008bb0:	01876026 	xor	t4,t4,a3

9d008bb4 <i9>:
9d008bb4:	11000050 	beqz	t0,9d008cf8 <Bzer>
9d008bb8:	00000000 	nop

9d008bbc <e9>:
9d008bbc:	71063020 	clz	a2,t0
9d008bc0:	01264823 	subu	t1,t1,a2
9d008bc4:	00c84004 	sllv	t0,t0,a2

9d008bc8 <Bres>:
9d008bc8:	1920000e 	blez	t1,9d008c04 <Bund>
9d008bcc:	00000000 	nop

9d008bd0 <Blab12>:
9d008bd0:	25080080 	addiu	t0,t0,128
9d008bd4:	2d0d0080 	sltiu	t5,t0,128
9d008bd8:	012d4821 	addu	t1,t1,t5
9d008bdc:	00086a02 	srl	t5,t0,0x8
9d008be0:	31ad0001 	andi	t5,t5,0x1
9d008be4:	010d4023 	subu	t0,t0,t5
9d008be8:	00084040 	sll	t0,t0,0x1
9d008bec:	00084242 	srl	t0,t0,0x9
9d008bf0:	00096dc0 	sll	t5,t1,0x17
9d008bf4:	010d4025 	or	t0,t0,t5
9d008bf8:	010c1025 	or	v0,t0,t4

9d008bfc <B999>:
9d008bfc:	03e00008 	jr	ra
9d008c00:	00000000 	nop

9d008c04 <Bund>:
9d008c04:	24060001 	li	a2,1
9d008c08:	00c93023 	subu	a2,a2,t1
9d008c0c:	2cc10020 	sltiu	at,a2,32
9d008c10:	10200039 	beqz	at,9d008cf8 <Bzer>
9d008c14:	00000000 	nop
9d008c18:	3c018000 	lui	at,0x8000
9d008c1c:	01014025 	or	t0,t0,at
9d008c20:	240d0020 	li	t5,32
9d008c24:	01a66823 	subu	t5,t5,a2
9d008c28:	01a84804 	sllv	t1,t0,t5
9d008c2c:	11200002 	beqz	t1,9d008c38 <i10>
9d008c30:	00c84006 	srlv	t0,t0,a2
9d008c34:	35080001 	ori	t0,t0,0x1

9d008c38 <i10>:
9d008c38:	24090000 	li	t1,0
9d008c3c:	250d0080 	addiu	t5,t0,128
9d008c40:	05a1ffe3 	bgez	t5,9d008bd0 <Blab12>
9d008c44:	00000000 	nop
9d008c48:	1000ffe1 	b	9d008bd0 <Blab12>
9d008c4c:	24090001 	li	t1,1

9d008c50 <BspecA>:
9d008c50:	1520000e 	bnez	t1,9d008c8c <i12>
9d008c54:	00000000 	nop
9d008c58:	01084021 	addu	t0,t0,t0
9d008c5c:	11000005 	beqz	t0,9d008c74 <i13>
9d008c60:	00000000 	nop
9d008c64:	710c6020 	clz	t4,t0
9d008c68:	012c4823 	subu	t1,t1,t4
9d008c6c:	1000ff98 	b	9d008ad0 <Blab1>
9d008c70:	01884004 	sllv	t0,t0,t4

9d008c74 <i13>:
9d008c74:	240100ff 	li	at,255
9d008c78:	1161000f 	beq	t3,at,9d008cb8 <BspecB>
9d008c7c:	00000000 	nop
9d008c80:	3c018000 	lui	at,0x8000
9d008c84:	14a10018 	bne	a1,at,9d008ce8 <BretB>
9d008c88:	00000000 	nop

9d008c8c <i12>:
9d008c8c:	01086821 	addu	t5,t0,t0
9d008c90:	15a0001b 	bnez	t5,9d008d00 <Bnan>
9d008c94:	00000000 	nop
9d008c98:	240100ff 	li	at,255
9d008c9c:	15610014 	bne	t3,at,9d008cf0 <BretA>
9d008ca0:	00000000 	nop
9d008ca4:	00856826 	xor	t5,a0,a1
9d008ca8:	05a00015 	bltz	t5,9d008d00 <Bnan>
9d008cac:	00000000 	nop
9d008cb0:	1000000d 	b	9d008ce8 <BretB>
9d008cb4:	00000000 	nop

9d008cb8 <BspecB>:
9d008cb8:	15600008 	bnez	t3,9d008cdc <i15>
9d008cbc:	00000000 	nop
9d008cc0:	014a5021 	addu	t2,t2,t2
9d008cc4:	1140000a 	beqz	t2,9d008cf0 <BretA>
9d008cc8:	00000000 	nop
9d008ccc:	714c6020 	clz	t4,t2
9d008cd0:	016c5823 	subu	t3,t3,t4
9d008cd4:	1000ff82 	b	9d008ae0 <Blab2>
9d008cd8:	018a5004 	sllv	t2,t2,t4

9d008cdc <i15>:
9d008cdc:	014a6821 	addu	t5,t2,t2
9d008ce0:	15a00007 	bnez	t5,9d008d00 <Bnan>
9d008ce4:	00000000 	nop

9d008ce8 <BretB>:
9d008ce8:	1000ffc4 	b	9d008bfc <B999>
9d008cec:	00051025 	or	v0,zero,a1

9d008cf0 <BretA>:
9d008cf0:	1000ffc2 	b	9d008bfc <B999>
9d008cf4:	00041025 	or	v0,zero,a0

9d008cf8 <Bzer>:
9d008cf8:	1000ffc0 	b	9d008bfc <B999>
9d008cfc:	24020000 	li	v0,0

9d008d00 <Bnan>:
9d008d00:	1000ffbe 	b	9d008bfc <B999>
9d008d04:	3c02ffc0 	lui	v0,0xffc0
9d008d08:	00000000 	nop

Disassembly of section .text.fp32div:

9d008d0c <__divsf3>:
9d008d0c:	3c0b8000 000445c2 310800ff 000555c2     ...<.E.....1.U..
9d008d1c:	314a00ff 00043a00 00eb3825 00054a00     ..J1.:..%8...J..
9d008d2c:	012b4825 00857026 016e5824 250effff     %H+.&p..$Xn....%
9d008d3c:	2dc100fe 1020003f 00000000              ...-?. .....

9d008d48 <Dlab1>:
9d008d48:	254effff 	addiu	t6,t2,-1
9d008d4c:	2dc100fe 	sltiu	at,t6,254
9d008d50:	10200053 	beqz	at,9d008ea0 <DspecB>
9d008d54:	00000000 	nop

9d008d58 <Dlab2>:
9d008d58:	00e9082b 	sltu	at,a3,t1
9d008d5c:	14200003 	bnez	at,9d008d6c <i27>
9d008d60:	00000000 	nop
9d008d64:	00073842 	srl	a3,a3,0x1
9d008d68:	25080001 	addiu	t0,t0,1

9d008d6c <i27>:
9d008d6c:	00096382 	srl	t4,t1,0xe
9d008d70:	018001f4 	teq	t4,zero,0x7
9d008d74:	00ec001b 	divu	zero,a3,t4
9d008d78:	00002012 	mflo	a0
9d008d7c:	00003010 	mfhi	a2
9d008d80:	312d3fff 	andi	t5,t1,0x3fff
9d008d84:	01a40019 	multu	t5,a0
9d008d88:	00002812 	mflo	a1
9d008d8c:	00063380 	sll	a2,a2,0xe
9d008d90:	00c5702b 	sltu	t6,a2,a1
9d008d94:	11c00004 	beqz	t6,9d008da8 <i28>
9d008d98:	00c53023 	subu	a2,a2,a1
9d008d9c:	2484ffff 	addiu	a0,a0,-1
9d008da0:	00c93021 	addu	a2,a2,t1
9d008da4:	00c9702b 	sltu	t6,a2,t1

9d008da8 <i28>:
9d008da8:	018001f4 	teq	t4,zero,0x7
9d008dac:	00cc001b 	divu	zero,a2,t4
9d008db0:	00003812 	mflo	a3
9d008db4:	00003010 	mfhi	a2
9d008db8:	01a70019 	multu	t5,a3
9d008dbc:	00002812 	mflo	a1
9d008dc0:	00063380 	sll	a2,a2,0xe
9d008dc4:	00c5702b 	sltu	t6,a2,a1
9d008dc8:	11c00004 	beqz	t6,9d008ddc <i29>
9d008dcc:	00c53023 	subu	a2,a2,a1
9d008dd0:	24e7ffff 	addiu	a3,a3,-1
9d008dd4:	00c93021 	addu	a2,a2,t1
9d008dd8:	00c9702b 	sltu	t6,a2,t1

9d008ddc <i29>:
9d008ddc:	00047380 	sll	t6,a0,0xe
9d008de0:	00ee3821 	addu	a3,a3,t6
9d008de4:	10c00002 	beqz	a2,9d008df0 <i30>
9d008de8:	00073900 	sll	a3,a3,0x4
9d008dec:	34e70001 	ori	a3,a3,0x1

9d008df0 <i30>:
9d008df0:	240e007e 	li	t6,126
9d008df4:	01ca7023 	subu	t6,t6,t2
9d008df8:	010e4021 	addu	t0,t0,t6
9d008dfc:	250effff 	addiu	t6,t0,-1
9d008e00:	2dc100fe 	sltiu	at,t6,254
9d008e04:	10200034 	beqz	at,9d008ed8 <Doveund>
9d008e08:	00000000 	nop

9d008e0c <Dlab8>:
9d008e0c:	24e70080 	addiu	a3,a3,128
9d008e10:	2cee0080 	sltiu	t6,a3,128
9d008e14:	010e4021 	addu	t0,t0,t6
9d008e18:	00077202 	srl	t6,a3,0x8
9d008e1c:	31ce0001 	andi	t6,t6,0x1
9d008e20:	00ee3823 	subu	a3,a3,t6
9d008e24:	00073840 	sll	a3,a3,0x1
9d008e28:	00073a42 	srl	a3,a3,0x9
9d008e2c:	000875c0 	sll	t6,t0,0x17
9d008e30:	00ee3825 	or	a3,a3,t6
9d008e34:	00eb1025 	or	v0,a3,t3

9d008e38 <D999>:
9d008e38:	03e00008 	jr	ra
9d008e3c:	00000000 	nop

9d008e40 <DspecA>:
9d008e40:	15000008 	bnez	t0,9d008e64 <i31>
9d008e44:	00000000 	nop
9d008e48:	00e73821 	addu	a3,a3,a3
9d008e4c:	10e00005 	beqz	a3,9d008e64 <i31>
9d008e50:	00000000 	nop
9d008e54:	70ec6020 	clz	t4,a3
9d008e58:	010c4023 	subu	t0,t0,t4
9d008e5c:	1000ffba 	b	9d008d48 <Dlab1>
9d008e60:	01873804 	sllv	a3,a3,t4

9d008e64 <i31>:
9d008e64:	15480004 	bne	t2,t0,9d008e78 <i33>
9d008e68:	00000000 	nop
9d008e6c:	01297021 	addu	t6,t1,t1
9d008e70:	11c0002f 	beqz	t6,9d008f30 <Dnan>
9d008e74:	00000000 	nop

9d008e78 <i33>:
9d008e78:	240100ff 	li	at,255
9d008e7c:	11410008 	beq	t2,at,9d008ea0 <DspecB>
9d008e80:	00000000 	nop
9d008e84:	11000012 	beqz	t0,9d008ed0 <Dzer>
9d008e88:	00000000 	nop
9d008e8c:	00e77021 	addu	t6,a3,a3
9d008e90:	15c00027 	bnez	t6,9d008f30 <Dnan>
9d008e94:	00000000 	nop
9d008e98:	10000022 	b	9d008f24 <Dinf>
9d008e9c:	00000000 	nop

9d008ea0 <DspecB>:
9d008ea0:	15400008 	bnez	t2,9d008ec4 <i34>
9d008ea4:	00000000 	nop
9d008ea8:	01294821 	addu	t1,t1,t1
9d008eac:	1120001d 	beqz	t1,9d008f24 <Dinf>
9d008eb0:	00000000 	nop
9d008eb4:	712c6020 	clz	t4,t1
9d008eb8:	014c5023 	subu	t2,t2,t4
9d008ebc:	1000ffa6 	b	9d008d58 <Dlab2>
9d008ec0:	01894804 	sllv	t1,t1,t4

9d008ec4 <i34>:
9d008ec4:	01297021 	addu	t6,t1,t1
9d008ec8:	15c00019 	bnez	t6,9d008f30 <Dnan>
9d008ecc:	00000000 	nop

9d008ed0 <Dzer>:
9d008ed0:	1000ffd9 	b	9d008e38 <D999>
9d008ed4:	000b1025 	or	v0,zero,t3

9d008ed8 <Doveund>:
9d008ed8:	1d000012 	bgtz	t0,9d008f24 <Dinf>
9d008edc:	00000000 	nop
9d008ee0:	240c0001 	li	t4,1
9d008ee4:	01886023 	subu	t4,t4,t0
9d008ee8:	2d810020 	sltiu	at,t4,32
9d008eec:	1020fff8 	beqz	at,9d008ed0 <Dzer>
9d008ef0:	00000000 	nop
9d008ef4:	240e0020 	li	t6,32
9d008ef8:	01cc7023 	subu	t6,t6,t4
9d008efc:	01c74004 	sllv	t0,a3,t6
9d008f00:	11000002 	beqz	t0,9d008f0c <i37>
9d008f04:	01873806 	srlv	a3,a3,t4
9d008f08:	34e70002 	ori	a3,a3,0x2

9d008f0c <i37>:
9d008f0c:	24080000 	li	t0,0
9d008f10:	24ee0080 	addiu	t6,a3,128
9d008f14:	05c1ffbd 	bgez	t6,9d008e0c <Dlab8>
9d008f18:	00000000 	nop
9d008f1c:	1000ffbb 	b	9d008e0c <Dlab8>
9d008f20:	24080001 	li	t0,1

9d008f24 <Dinf>:
9d008f24:	3c017f80 	lui	at,0x7f80
9d008f28:	1000ffc3 	b	9d008e38 <D999>
9d008f2c:	01611025 	or	v0,t3,at

9d008f30 <Dnan>:
9d008f30:	1000ffc1 	b	9d008e38 <D999>
9d008f34:	3c02ffc0 	lui	v0,0xffc0
9d008f38:	00000000 	nop

Disassembly of section .text.fp32mul:

9d008f3c <__mulsf3>:
9d008f3c:	00043dc2 30e700ff 00054dc2 312900ff     .=.....0.M....)1
9d008f4c:	3c0a8000 00043200 00ca3025 00054200     ...<.2..%0...B..
9d008f5c:	010a4025 00856026 014c5024 24ecffff     %@..&`..$PL....$
9d008f6c:	2d8100fe 10200021 00000000              ...-!. .....

9d008f78 <Clab1>:
9d008f78:	252cffff 	addiu	t4,t1,-1
9d008f7c:	2d8100fe 	sltiu	at,t4,254
9d008f80:	10200036 	beqz	at,9d00905c <CspecB>
9d008f84:	00000000 	nop

9d008f88 <Clab2>:
9d008f88:	00c80019 	multu	a2,t0
9d008f8c:	00005812 	mflo	t3
9d008f90:	11600002 	beqz	t3,9d008f9c <i17>
9d008f94:	00003010 	mfhi	a2
9d008f98:	34c60001 	ori	a2,a2,0x1

9d008f9c <i17>:
9d008f9c:	04c00003 	bltz	a2,9d008fac <i18>
9d008fa0:	00000000 	nop
9d008fa4:	00063040 	sll	a2,a2,0x1
9d008fa8:	24e7ffff 	addiu	a3,a3,-1

9d008fac <i18>:
9d008fac:	252cff82 	addiu	t4,t1,-126
9d008fb0:	00ec3821 	addu	a3,a3,t4
9d008fb4:	24ecffff 	addiu	t4,a3,-1
9d008fb8:	2d8100fe 	sltiu	at,t4,254
9d008fbc:	1020003a 	beqz	at,9d0090a8 <Coveund>
9d008fc0:	00000000 	nop

9d008fc4 <Clab8>:
9d008fc4:	24c60080 	addiu	a2,a2,128
9d008fc8:	2ccc0080 	sltiu	t4,a2,128
9d008fcc:	00ec3821 	addu	a3,a3,t4
9d008fd0:	00066202 	srl	t4,a2,0x8
9d008fd4:	318c0001 	andi	t4,t4,0x1
9d008fd8:	00cc3023 	subu	a2,a2,t4
9d008fdc:	00063040 	sll	a2,a2,0x1
9d008fe0:	00063242 	srl	a2,a2,0x9
9d008fe4:	000765c0 	sll	t4,a3,0x17
9d008fe8:	00cc3025 	or	a2,a2,t4
9d008fec:	00ca1025 	or	v0,a2,t2

9d008ff0 <C999>:
9d008ff0:	03e00008 	jr	ra
9d008ff4:	00000000 	nop

9d008ff8 <CspecA>:
9d008ff8:	14e0000d 	bnez	a3,9d009030 <i19>
9d008ffc:	00000000 	nop
9d009000:	00c63021 	addu	a2,a2,a2
9d009004:	10c00005 	beqz	a2,9d00901c <i20>
9d009008:	00000000 	nop
9d00900c:	70cb5820 	clz	t3,a2
9d009010:	00eb3823 	subu	a3,a3,t3
9d009014:	1000ffd8 	b	9d008f78 <Clab1>
9d009018:	01663004 	sllv	a2,a2,t3

9d00901c <i20>:
9d00901c:	240100ff 	li	at,255
9d009020:	1121001f 	beq	t1,at,9d0090a0 <Cnan>
9d009024:	00000000 	nop
9d009028:	10000015 	b	9d009080 <Czer>
9d00902c:	00000000 	nop

9d009030 <i19>:
9d009030:	00c66021 	addu	t4,a2,a2
9d009034:	1580001a 	bnez	t4,9d0090a0 <Cnan>
9d009038:	00000000 	nop
9d00903c:	15200004 	bnez	t1,9d009050 <i21>
9d009040:	00000000 	nop
9d009044:	01086021 	addu	t4,t0,t0
9d009048:	11800015 	beqz	t4,9d0090a0 <Cnan>
9d00904c:	00000000 	nop

9d009050 <i21>:
9d009050:	240100ff 	li	at,255
9d009054:	1521000f 	bne	t1,at,9d009094 <Cinf>
9d009058:	00000000 	nop

9d00905c <CspecB>:
9d00905c:	1520000a 	bnez	t1,9d009088 <i22>
9d009060:	00000000 	nop
9d009064:	01084021 	addu	t0,t0,t0
9d009068:	11000005 	beqz	t0,9d009080 <Czer>
9d00906c:	00000000 	nop
9d009070:	710b5820 	clz	t3,t0
9d009074:	012b4823 	subu	t1,t1,t3
9d009078:	1000ffc3 	b	9d008f88 <Clab2>
9d00907c:	01684004 	sllv	t0,t0,t3

9d009080 <Czer>:
9d009080:	1000ffdb 	b	9d008ff0 <C999>
9d009084:	000a1025 	or	v0,zero,t2

9d009088 <i22>:
9d009088:	01086021 	addu	t4,t0,t0
9d00908c:	15800004 	bnez	t4,9d0090a0 <Cnan>
9d009090:	00000000 	nop

9d009094 <Cinf>:
9d009094:	3c017f80 	lui	at,0x7f80
9d009098:	1000ffd5 	b	9d008ff0 <C999>
9d00909c:	01411025 	or	v0,t2,at

9d0090a0 <Cnan>:
9d0090a0:	1000ffd3 	b	9d008ff0 <C999>
9d0090a4:	3c02ffc0 	lui	v0,0xffc0

9d0090a8 <Coveund>:
9d0090a8:	1ce0fffa 	bgtz	a3,9d009094 <Cinf>
9d0090ac:	00000000 	nop
9d0090b0:	240b0001 	li	t3,1
9d0090b4:	01675823 	subu	t3,t3,a3
9d0090b8:	2d610020 	sltiu	at,t3,32
9d0090bc:	1020fff0 	beqz	at,9d009080 <Czer>
9d0090c0:	00000000 	nop
9d0090c4:	240c0020 	li	t4,32
9d0090c8:	018b6023 	subu	t4,t4,t3
9d0090cc:	01863804 	sllv	a3,a2,t4
9d0090d0:	10e00002 	beqz	a3,9d0090dc <i25>
9d0090d4:	01663006 	srlv	a2,a2,t3
9d0090d8:	34c60002 	ori	a2,a2,0x2

9d0090dc <i25>:
9d0090dc:	24070000 	li	a3,0
9d0090e0:	24cc0080 	addiu	t4,a2,128
9d0090e4:	0581ffb7 	bgez	t4,9d008fc4 <Clab8>
9d0090e8:	00000000 	nop
9d0090ec:	1000ffb5 	b	9d008fc4 <Clab8>
9d0090f0:	24070001 	li	a3,1
9d0090f4:	00000000 	nop

Disassembly of section .text.general_exception:

9d0090f8 <_general_exception_context>:
9d0090f8:	27bdffa8 	addiu	sp,sp,-88
9d0090fc:	afa10004 	sw	at,4(sp)
9d009100:	afa20008 	sw	v0,8(sp)
9d009104:	afa3000c 	sw	v1,12(sp)
9d009108:	afa40010 	sw	a0,16(sp)
9d00910c:	afa50014 	sw	a1,20(sp)
9d009110:	afa60018 	sw	a2,24(sp)
9d009114:	afa7001c 	sw	a3,28(sp)
9d009118:	afa80020 	sw	t0,32(sp)
9d00911c:	afa90024 	sw	t1,36(sp)
9d009120:	afaa0028 	sw	t2,40(sp)
9d009124:	afab002c 	sw	t3,44(sp)
9d009128:	afac0030 	sw	t4,48(sp)
9d00912c:	afad0034 	sw	t5,52(sp)
9d009130:	afae0038 	sw	t6,56(sp)
9d009134:	afaf003c 	sw	t7,60(sp)
9d009138:	afb80040 	sw	t8,64(sp)
9d00913c:	afb90044 	sw	t9,68(sp)
9d009140:	afbf0048 	sw	ra,72(sp)
9d009144:	00004012 	mflo	t0
9d009148:	afa8004c 	sw	t0,76(sp)
9d00914c:	00004010 	mfhi	t0
9d009150:	afa80050 	sw	t0,80(sp)
9d009154:	3c1a9d01 	lui	k0,0x9d01
9d009158:	275a92ec 	addiu	k0,k0,-27924
9d00915c:	00000000 	nop
9d009160:	40046800 	mfc0	a0,c0_cause
9d009164:	40056000 	mfc0	a1,c0_status
9d009168:	0340f809 	jalr	k0
9d00916c:	00000000 	nop
9d009170:	8fa80050 	lw	t0,80(sp)
9d009174:	01000011 	mthi	t0
9d009178:	8fa8004c 	lw	t0,76(sp)
9d00917c:	01000013 	mtlo	t0
9d009180:	8fa10004 	lw	at,4(sp)
9d009184:	8fa20008 	lw	v0,8(sp)
9d009188:	8fa3000c 	lw	v1,12(sp)
9d00918c:	8fa40010 	lw	a0,16(sp)
9d009190:	8fa50014 	lw	a1,20(sp)
9d009194:	8fa60018 	lw	a2,24(sp)
9d009198:	8fa7001c 	lw	a3,28(sp)
9d00919c:	8fa80020 	lw	t0,32(sp)
9d0091a0:	8fa90024 	lw	t1,36(sp)
9d0091a4:	8faa0028 	lw	t2,40(sp)
9d0091a8:	8fab002c 	lw	t3,44(sp)
9d0091ac:	8fac0030 	lw	t4,48(sp)
9d0091b0:	8fad0034 	lw	t5,52(sp)
9d0091b4:	8fae0038 	lw	t6,56(sp)
9d0091b8:	8faf003c 	lw	t7,60(sp)
9d0091bc:	8fb80040 	lw	t8,64(sp)
9d0091c0:	8fb90044 	lw	t9,68(sp)
9d0091c4:	8fbf0048 	lw	ra,72(sp)
9d0091c8:	27bd0058 	addiu	sp,sp,88
9d0091cc:	000000c0 	ehb
9d0091d0:	42000018 	eret

Disassembly of section .text:

9d0091d4 <__dinit_clear>:
9d0091d4:	03e00008 	jr	ra
9d0091d8:	00000000 	nop

9d0091dc <__pic32_data_init>:
9d0091dc:	03e01825 	move	v1,ra

9d0091e0 <_dinit_init>:
9d0091e0:	3c049d01 	lui	a0,0x9d01
9d0091e4:	2484941c 	addiu	a0,a0,-27620
9d0091e8:	10800016 	beqz	a0,9d009244 <_dinit_init+0x64>
9d0091ec:	00000000 	nop
9d0091f0:	8c850000 	lw	a1,0(a0)
9d0091f4:	10a00013 	beqz	a1,9d009244 <_dinit_init+0x64>
9d0091f8:	24840004 	addiu	a0,a0,4
9d0091fc:	8c860000 	lw	a2,0(a0)
9d009200:	24840004 	addiu	a0,a0,4
9d009204:	848b0000 	lh	t3,0(a0)
9d009208:	24840004 	addiu	a0,a0,4
9d00920c:	3c0c9d01 	lui	t4,0x9d01
9d009210:	258c9408 	addiu	t4,t4,-27640
9d009214:	000b5880 	sll	t3,t3,0x2
9d009218:	016c6021 	addu	t4,t3,t4
9d00921c:	8d8c0000 	lw	t4,0(t4)
9d009220:	0180f809 	jalr	t4
9d009224:	00000000 	nop
9d009228:	00402025 	move	a0,v0
9d00922c:	24840003 	addiu	a0,a0,3
9d009230:	2406fffc 	li	a2,-4
9d009234:	00c42024 	and	a0,a2,a0
9d009238:	8c850000 	lw	a1,0(a0)
9d00923c:	14a0ffec 	bnez	a1,9d0091f0 <_dinit_init+0x10>
9d009240:	00000000 	nop
9d009244:	0060f825 	move	ra,v1
9d009248:	03e00008 	jr	ra
9d00924c:	00000000 	nop

Disassembly of section .text.main_entry:

9d009250 <_main_entry>:
9d009250:	3c040000 	lui	a0,0x0
9d009254:	27bdffe8 	addiu	sp,sp,-24
9d009258:	24840000 	addiu	a0,a0,0
9d00925c:	10800003 	beqz	a0,9d00926c <_main_entry+0x1c>
9d009260:	afbf0014 	sw	ra,20(sp)
9d009264:	0080f809 	jalr	a0
9d009268:	00000000 	nop
9d00926c:	30840000 	andi	a0,a0,0x0
9d009270:	30a50000 	andi	a1,a1,0x0
9d009274:	3c089d01 	lui	t0,0x9d01
9d009278:	250884e8 	addiu	t0,t0,-31512
9d00927c:	0100f809 	jalr	t0
9d009280:	00000000 	nop

9d009284 <__crt0_exit>:
9d009284:	3c020000 24420000 10400003 00000000     ...<..B$..@.....
9d009294:	0040f809 00000000 1000fff9 00000000     ..@.............

Disassembly of section .text._bootstrap_exception_handler:

9d0092a4 <_bootstrap_exception_handler>:
9d0092a4:	3c020000 	lui	v0,0x0
9d0092a8:	24420000 	addiu	v0,v0,0
9d0092ac:	10400005 	beqz	v0,9d0092c4 <_bootstrap_exception_handler+0x20>
9d0092b0:	3c020000 	lui	v0,0x0
9d0092b4:	24420000 	addiu	v0,v0,0
9d0092b8:	10400003 	beqz	v0,9d0092c8 <_bootstrap_exception_handler+0x24>
9d0092bc:	3c029d01 	lui	v0,0x9d01
9d0092c0:	7000003f 	sdbbp
9d0092c4:	3c029d01 	lui	v0,0x9d01
9d0092c8:	2442937c 	addiu	v0,v0,-27780
9d0092cc:	10400005 	beqz	v0,9d0092e4 <_bootstrap_exception_handler+0x40>
9d0092d0:	00000000 	nop
9d0092d4:	27bdffe8 	addiu	sp,sp,-24
9d0092d8:	afbf0014 	sw	ra,20(sp)
9d0092dc:	0040f809 	jalr	v0
9d0092e0:	00000000 	nop
9d0092e4:	1000ffff 	b	9d0092e4 <_bootstrap_exception_handler+0x40>
9d0092e8:	00000000 	nop

Disassembly of section .text._general_exception_handler:

9d0092ec <_general_exception_handler>:
9d0092ec:	3c020000 	lui	v0,0x0
9d0092f0:	24420000 	addiu	v0,v0,0
9d0092f4:	10400005 	beqz	v0,9d00930c <_general_exception_handler+0x20>
9d0092f8:	3c020000 	lui	v0,0x0
9d0092fc:	24420000 	addiu	v0,v0,0
9d009300:	10400003 	beqz	v0,9d009310 <_general_exception_handler+0x24>
9d009304:	3c029d01 	lui	v0,0x9d01
9d009308:	7000003f 	sdbbp
9d00930c:	3c029d01 	lui	v0,0x9d01
9d009310:	2442937c 	addiu	v0,v0,-27780
9d009314:	10400005 	beqz	v0,9d00932c <_general_exception_handler+0x40>
9d009318:	00000000 	nop
9d00931c:	27bdffe8 	addiu	sp,sp,-24
9d009320:	afbf0014 	sw	ra,20(sp)
9d009324:	0040f809 	jalr	v0
9d009328:	00000000 	nop
9d00932c:	1000ffff 	b	9d00932c <_general_exception_handler+0x40>
9d009330:	00000000 	nop

Disassembly of section .vector_default:

9d009334 <_DefaultInterrupt>:
9d009334:	3c020000 	lui	v0,0x0
9d009338:	24420000 	addiu	v0,v0,0
9d00933c:	10400007 	beqz	v0,9d00935c <_DefaultInterrupt+0x28>
9d009340:	3c020000 	lui	v0,0x0
9d009344:	24420000 	addiu	v0,v0,0
9d009348:	50400005 	beqzl	v0,9d009360 <_DefaultInterrupt+0x2c>
9d00934c:	3c029d01 	lui	v0,0x9d01
9d009350:	7000003f 	sdbbp
9d009354:	03e00008 	jr	ra
9d009358:	00000000 	nop
9d00935c:	3c029d01 	lui	v0,0x9d01
9d009360:	2442937c 	addiu	v0,v0,-27780
9d009364:	10400003 	beqz	v0,9d009374 <_DefaultInterrupt+0x40>
9d009368:	00000000 	nop
9d00936c:	0040f809 	jalr	v0
9d009370:	00000000 	nop
9d009374:	03e00008 	jr	ra
9d009378:	00000000 	nop

Disassembly of section .text:

9d00937c <__pic32_software_reset>:
9d00937c:	41606000 	di
9d009380:	000000c0 	ehb
9d009384:	3c03aa99 	lui	v1,0xaa99
9d009388:	3c02bf81 	lui	v0,0xbf81
9d00938c:	24636655 	addiu	v1,v1,26197
9d009390:	ac40f230 	sw	zero,-3536(v0)
9d009394:	ac43f230 	sw	v1,-3536(v0)
9d009398:	3c035566 	lui	v1,0x5566
9d00939c:	346399aa 	ori	v1,v1,0x99aa
9d0093a0:	ac43f230 	sw	v1,-3536(v0)
9d0093a4:	3c02bf81 	lui	v0,0xbf81
9d0093a8:	24030001 	li	v1,1
9d0093ac:	ac43f618 	sw	v1,-2536(v0)
9d0093b0:	3c02bf81 	lui	v0,0xbf81
9d0093b4:	8c42f610 	lw	v0,-2544(v0)
9d0093b8:	0b4024e1 	j	9d009384 <__pic32_software_reset+0x8>
9d0093bc:	00000000 	nop

Disassembly of section .rodata:

9d0093d8 <.rodata>:
9d0093d8:	3f8147ae 	0x3f8147ae
9d0093dc:	400147ae 	0x400147ae
9d0093e0:	c28f5c29 	ll	t7,23593(s4)
9d0093e4:	3ff028f5 	0x3ff028f5
9d0093e8:	c28f5c29 	ll	t7,23593(s4)
9d0093ec:	400028f5 	0x400028f5

Disassembly of section .text:

9d0093f0 <_nmi_handler>:
9d0093f0:	401a6000 	mfc0	k0,c0_status
9d0093f4:	3c1bffbf 	lui	k1,0xffbf
9d0093f8:	377bffff 	ori	k1,k1,0xffff
9d0093fc:	035bd024 	and	k0,k0,k1
9d009400:	409a6000 	mtc0	k0,c0_status
9d009404:	42000018 	eret

Disassembly of section .rodata:

9d009408 <_dinit_func_table>:
9d009408:	9d0091d4 9d0091d4 9d0091d4 9d0091d4     ................
9d009418:	9d0091d4                                ....

Disassembly of section .dinit:

9d00941c <.dinit>:
9d00941c:	00000000 	nop
9d009420:	66666666 	0x66666666
9d009424:	66666666 	0x66666666
9d009428:	66666666 	0x66666666

Disassembly of section .text._on_reset:

9d00942c <_on_reset>:
9d00942c:	03e00008 	jr	ra
9d009430:	00000000 	nop

Disassembly of section .text._on_bootstrap:

9d009434 <_on_bootstrap>:
9d009434:	03e00008 	jr	ra
9d009438:	00000000 	nop
